GAS LISTING d:/github/AIOT_WORKSHOP/AIoT_MT2503AVE_SDK/11CW1418SP4_03_CORETEK03AE_11C_V1_GPRS_MMI/plutommi/Customer/ResGenerator/gcctmp/ccmAfaaa.s 			page 1


   1              		.file	"mtk_resgenerator.cpp"
   4              		.text
   5              	Ltext0:
 838              	.lcomm __ZSt8__ioinit,16
 2898              	.globl _g_is_clean
 2899              		.bss
 2900              		.align 4
 2901              	_g_is_clean:
 2902 0000 00000000 		.space 4
 2903              		.text
 2904              		.align 32
 2905              	LC0:
 2906 0000 47656E65 		.ascii "GenerateENFBAssociatedIDFile(): File output: CustENFBImgMap.c\0"
 2906      72617465 
 2906      454E4642 
 2906      4173736F 
 2906      63696174 
 2907              	LC1:
 2908 003e 4D544B5F 		.ascii "MTK_RESGENERATOR\0"
 2908      52455347 
 2908      454E4552 
 2908      41544F52 
 2908      00
 2909              	LC2:
 2910 004f 7700     		.ascii "w\0"
 2911 0051 EB0D9090 		.align 32
 2911      90909090 
 2911      90909090 
 2911      909090
 2912              	LC3:
 2913 0060 2E2E5C2E 		.ascii "..\\..\\Customer\\CustResource\\CustENFBImgMap.c\0"
 2913      2E5C4375 
 2913      73746F6D 
 2913      65725C43 
 2913      75737452 
 2914 008d 90909090 		.align 32
 2914      90909090 
 2914      90909090 
 2914      90909090 
 2914      909090
 2915              	LC4:
 2916 00a0 2F2A2A0A 		.ascii "/**\12 *\11Copyright Notice\12 *\11?2002 - 2003, Pixtel Communications, Inc., 1489 43rd Av
 2916      202A0943 
 2916      6F707972 
 2916      69676874 
 2916      204E6F74 
 2917 0196 8D76008D 		.align 32
 2917      BC270000 
 2917      0000
 2918              	LC5:
 2919 01a0 0A2F2A2A 		.ascii "\12/************************************************************** \12 FILENAME\11: CustEN
 2919      2A2A2A2A 
 2919      2A2A2A2A 
 2919      2A2A2A2A 
 2919      2A2A2A2A 
 2920              	LC6:
 2921 02ab 23696E63 		.ascii "#include \"CustDataRes.h\"\12\12\0"
GAS LISTING d:/github/AIOT_WORKSHOP/AIoT_MT2503AVE_SDK/11CW1418SP4_03_CORETEK03AE_11C_V1_GPRS_MMI/plutommi/Customer/ResGenerator/gcctmp/ccmAfaaa.s 			page 2


 2921      6C756465 
 2921      20224375 
 2921      73744461 
 2921      74615265 
 2922 02c6 90909090 		.align 32
 2922      90909090 
 2922      90909090 
 2922      90909090 
 2922      90909090 
 2923              	LC7:
 2924 02e0 636F6E73 		.ascii "const U32 CurrMaxENFBAssociatedIDNum = %d;\12\12\0"
 2924      74205533 
 2924      32204375 
 2924      72724D61 
 2924      78454E46 
 2925 030d 90909090 		.align 32
 2925      90909090 
 2925      90909090 
 2925      90909090 
 2925      909090
 2926              	LC8:
 2927 0320 636F6E73 		.ascii "const U16 Associated_IDs_%d[] = {\0"
 2927      74205531 
 2927      36204173 
 2927      736F6369 
 2927      61746564 
 2928              	LC9:
 2929 0342 25642C20 		.ascii "%d, \0"
 2929      00
 2930              	LC10:
 2931 0347 25647D3B 		.ascii "%d};\12\0"
 2931      0A00
 2932              	LC11:
 2933 034d 0A00     		.ascii "\12\0"
 2934 034f 90909090 		.align 32
 2934      90909090 
 2934      90909090 
 2934      90909090 
 2934      90
 2935              	LC12:
 2936 0360 636F6E73 		.ascii "const CUSTOM_ENFB AssociatedID_map[] = \12{\12\0"
 2936      74204355 
 2936      53544F4D 
 2936      5F454E46 
 2936      42204173 
 2937              	LC13:
 2938 038b 097B302C 		.ascii "\11{0, 0},\12\0"
 2938      20307D2C 
 2938      0A00
 2939              	LC14:
 2940 0395 097B302C 		.ascii "\11{0, 0}\12\0"
 2940      20307D0A 
 2940      00
 2941 039e 89F6     		.align 32
 2942              	LC15:
 2943 03a0 097B2564 		.ascii "\11{%d, (U16 *)&Associated_IDs_%d},\12\0"
 2943      2C202855 
GAS LISTING d:/github/AIOT_WORKSHOP/AIoT_MT2503AVE_SDK/11CW1418SP4_03_CORETEK03AE_11C_V1_GPRS_MMI/plutommi/Customer/ResGenerator/gcctmp/ccmAfaaa.s 			page 3


 2943      3136202A 
 2943      29264173 
 2943      736F6369 
 2944 03c3 90909090 		.align 32
 2944      90909090 
 2944      90909090 
 2944      90909090 
 2944      90909090 
 2945              	LC16:
 2946 03e0 097B2564 		.ascii "\11{%d, (U16 *)&Associated_IDs_%d}\12\0"
 2946      2C202855 
 2946      3136202A 
 2946      29264173 
 2946      736F6369 
 2947              	LC17:
 2948 0402 7D3B0A00 		.ascii "};\12\0"
 2949 0406 90909090 		.align 32
 2949      90909090 
 2949      90909090 
 2949      90909090 
 2949      90909090 
 2950              	LC18:
 2951 0420 4F757470 		.ascii "Output CustENFBImgMap.c... done\12\0"
 2951      75742043 
 2951      75737445 
 2951      4E464249 
 2951      6D674D61 
 2952 0441 90       		.align 2
 2955              	__Z28GenerateENFBAssociatedIDFilev:
   1:mtk_resgenerator.cpp **** /*****************************************************************************
   2:mtk_resgenerator.cpp **** *  Copyright Statement:
   3:mtk_resgenerator.cpp **** *  --------------------
   4:mtk_resgenerator.cpp **** *  This software is protected by Copyright and the information contained
   5:mtk_resgenerator.cpp **** *  herein is confidential. The software may not be copied and the information
   6:mtk_resgenerator.cpp **** *  contained herein may not be used or disclosed except with the written
   7:mtk_resgenerator.cpp **** *  permission of MediaTek Inc. (C) 2005
   8:mtk_resgenerator.cpp **** *
   9:mtk_resgenerator.cpp **** *  BY OPENING THIS FILE, BUYER HEREBY UNEQUIVOCALLY ACKNOWLEDGES AND AGREES
  10:mtk_resgenerator.cpp **** *  THAT THE SOFTWARE/FIRMWARE AND ITS DOCUMENTATIONS ("MEDIATEK SOFTWARE")
  11:mtk_resgenerator.cpp **** *  RECEIVED FROM MEDIATEK AND/OR ITS REPRESENTATIVES ARE PROVIDED TO BUYER ON
  12:mtk_resgenerator.cpp **** *  AN "AS-IS" BASIS ONLY. MEDIATEK EXPRESSLY DISCLAIMS ANY AND ALL WARRANTIES,
  13:mtk_resgenerator.cpp **** *  EXPRESS OR IMPLIED, INCLUDING BUT NOT LIMITED TO THE IMPLIED WARRANTIES OF
  14:mtk_resgenerator.cpp **** *  MERCHANTABILITY, FITNESS FOR A PARTICULAR PURPOSE OR NONINFRINGEMENT.
  15:mtk_resgenerator.cpp **** *  NEITHER DOES MEDIATEK PROVIDE ANY WARRANTY WHATSOEVER WITH RESPECT TO THE
  16:mtk_resgenerator.cpp **** *  SOFTWARE OF ANY THIRD PARTY WHICH MAY BE USED BY, INCORPORATED IN, OR
  17:mtk_resgenerator.cpp **** *  SUPPLIED WITH THE MEDIATEK SOFTWARE, AND BUYER AGREES TO LOOK ONLY TO SUCH
  18:mtk_resgenerator.cpp **** *  THIRD PARTY FOR ANY WARRANTY CLAIM RELATING THERETO. MEDIATEK SHALL ALSO
  19:mtk_resgenerator.cpp **** *  NOT BE RESPONSIBLE FOR ANY MEDIATEK SOFTWARE RELEASES MADE TO BUYER'S
  20:mtk_resgenerator.cpp **** *  SPECIFICATION OR TO CONFORM TO A PARTICULAR STANDARD OR OPEN FORUM.
  21:mtk_resgenerator.cpp **** *
  22:mtk_resgenerator.cpp **** *  BUYER'S SOLE AND EXCLUSIVE REMEDY AND MEDIATEK'S ENTIRE AND CUMULATIVE
  23:mtk_resgenerator.cpp **** *  LIABILITY WITH RESPECT TO THE MEDIATEK SOFTWARE RELEASED HEREUNDER WILL BE,
  24:mtk_resgenerator.cpp **** *  AT MEDIATEK'S OPTION, TO REVISE OR REPLACE THE MEDIATEK SOFTWARE AT ISSUE,
  25:mtk_resgenerator.cpp **** *  OR REFUND ANY SOFTWARE LICENSE FEES OR SERVICE CHARGE PAID BY BUYER TO
  26:mtk_resgenerator.cpp **** *  MEDIATEK FOR SUCH MEDIATEK SOFTWARE AT ISSUE.
  27:mtk_resgenerator.cpp **** *
  28:mtk_resgenerator.cpp **** *  THE TRANSACTION CONTEMPLATED HEREUNDER SHALL BE CONSTRUED IN ACCORDANCE
GAS LISTING d:/github/AIOT_WORKSHOP/AIoT_MT2503AVE_SDK/11CW1418SP4_03_CORETEK03AE_11C_V1_GPRS_MMI/plutommi/Customer/ResGenerator/gcctmp/ccmAfaaa.s 			page 4


  29:mtk_resgenerator.cpp **** *  WITH THE LAWS OF THE STATE OF CALIFORNIA, USA, EXCLUDING ITS CONFLICT OF
  30:mtk_resgenerator.cpp **** *  LAWS PRINCIPLES.  ANY DISPUTES, CONTROVERSIES OR CLAIMS ARISING THEREOF AND
  31:mtk_resgenerator.cpp **** *  RELATED THERETO SHALL BE SETTLED BY ARBITRATION IN SAN FRANCISCO, CA, UNDER
  32:mtk_resgenerator.cpp **** *  THE RULES OF THE INTERNATIONAL CHAMBER OF COMMERCE (ICC).
  33:mtk_resgenerator.cpp **** *
  34:mtk_resgenerator.cpp **** *****************************************************************************/
  35:mtk_resgenerator.cpp **** 
  36:mtk_resgenerator.cpp **** /*******************************************************************************
  37:mtk_resgenerator.cpp ****  * Filename:
  38:mtk_resgenerator.cpp ****  * ---------
  39:mtk_resgenerator.cpp ****  *  mtk_resgenerator.cpp
  40:mtk_resgenerator.cpp ****  *
  41:mtk_resgenerator.cpp ****  * Project:
  42:mtk_resgenerator.cpp ****  * --------
  43:mtk_resgenerator.cpp ****  *   MAUI
  44:mtk_resgenerator.cpp ****  *
  45:mtk_resgenerator.cpp ****  * Description:
  46:mtk_resgenerator.cpp ****  * ------------
  47:mtk_resgenerator.cpp ****  *   To Generator Resource C files.
  48:mtk_resgenerator.cpp ****  *
  49:mtk_resgenerator.cpp ****  * Author:
  50:mtk_resgenerator.cpp ****  * -------
  51:mtk_resgenerator.cpp ****  * -------
  52:mtk_resgenerator.cpp ****  *
  53:mtk_resgenerator.cpp **** *==============================================================================
  54:mtk_resgenerator.cpp ****  *              HISTORY
  55:mtk_resgenerator.cpp ****  * Below this line, this part is controlled by PVCS VM. DO NOT MODIFY!!
  56:mtk_resgenerator.cpp ****  *------------------------------------------------------------------------------
  57:mtk_resgenerator.cpp ****  * removed!
  58:mtk_resgenerator.cpp ****  *
  59:mtk_resgenerator.cpp ****  * removed!
  60:mtk_resgenerator.cpp ****  * removed!
  61:mtk_resgenerator.cpp ****  * removed!
  62:mtk_resgenerator.cpp ****  *
  63:mtk_resgenerator.cpp ****  * removed!
  64:mtk_resgenerator.cpp ****  * removed!
  65:mtk_resgenerator.cpp ****  * removed!
  66:mtk_resgenerator.cpp ****  *
  67:mtk_resgenerator.cpp ****  * removed!
  68:mtk_resgenerator.cpp ****  * removed!
  69:mtk_resgenerator.cpp ****  * removed!
  70:mtk_resgenerator.cpp ****  *
  71:mtk_resgenerator.cpp ****  * removed!
  72:mtk_resgenerator.cpp ****  * removed!
  73:mtk_resgenerator.cpp ****  * removed!
  74:mtk_resgenerator.cpp ****  *
  75:mtk_resgenerator.cpp ****  * removed!
  76:mtk_resgenerator.cpp ****  * removed!
  77:mtk_resgenerator.cpp ****  * removed!
  78:mtk_resgenerator.cpp ****  *
  79:mtk_resgenerator.cpp ****  * removed!
  80:mtk_resgenerator.cpp ****  * removed!
  81:mtk_resgenerator.cpp ****  *
  82:mtk_resgenerator.cpp ****  * removed!
  83:mtk_resgenerator.cpp ****  * removed!
  84:mtk_resgenerator.cpp ****  * removed!
  85:mtk_resgenerator.cpp ****  * removed!
GAS LISTING d:/github/AIOT_WORKSHOP/AIoT_MT2503AVE_SDK/11CW1418SP4_03_CORETEK03AE_11C_V1_GPRS_MMI/plutommi/Customer/ResGenerator/gcctmp/ccmAfaaa.s 			page 5


  86:mtk_resgenerator.cpp ****  * removed!
  87:mtk_resgenerator.cpp ****  *
  88:mtk_resgenerator.cpp ****  * removed!
  89:mtk_resgenerator.cpp ****  * removed!
  90:mtk_resgenerator.cpp ****  * removed!
  91:mtk_resgenerator.cpp ****  *
  92:mtk_resgenerator.cpp ****  * removed!
  93:mtk_resgenerator.cpp ****  * removed!
  94:mtk_resgenerator.cpp ****  * removed!
  95:mtk_resgenerator.cpp ****  *
  96:mtk_resgenerator.cpp ****  * removed!
  97:mtk_resgenerator.cpp ****  * removed!
  98:mtk_resgenerator.cpp ****  * removed!
  99:mtk_resgenerator.cpp ****  *
 100:mtk_resgenerator.cpp ****  * removed!
 101:mtk_resgenerator.cpp ****  * removed!
 102:mtk_resgenerator.cpp ****  * removed!
 103:mtk_resgenerator.cpp ****  *
 104:mtk_resgenerator.cpp ****  * removed!
 105:mtk_resgenerator.cpp ****  * removed!
 106:mtk_resgenerator.cpp ****  * removed!
 107:mtk_resgenerator.cpp ****  *
 108:mtk_resgenerator.cpp ****  * removed!
 109:mtk_resgenerator.cpp ****  * removed!
 110:mtk_resgenerator.cpp ****  * removed!
 111:mtk_resgenerator.cpp ****  *
 112:mtk_resgenerator.cpp ****  * removed!
 113:mtk_resgenerator.cpp ****  * removed!
 114:mtk_resgenerator.cpp ****  * removed!
 115:mtk_resgenerator.cpp ****  *
 116:mtk_resgenerator.cpp ****  * removed!
 117:mtk_resgenerator.cpp ****  * removed!
 118:mtk_resgenerator.cpp ****  * removed!
 119:mtk_resgenerator.cpp ****  *
 120:mtk_resgenerator.cpp ****  * removed!
 121:mtk_resgenerator.cpp ****  * removed!
 122:mtk_resgenerator.cpp ****  * removed!
 123:mtk_resgenerator.cpp ****  *
 124:mtk_resgenerator.cpp ****  * removed!
 125:mtk_resgenerator.cpp ****  * removed!
 126:mtk_resgenerator.cpp ****  * removed!
 127:mtk_resgenerator.cpp ****  *
 128:mtk_resgenerator.cpp ****  * removed!
 129:mtk_resgenerator.cpp ****  * removed!
 130:mtk_resgenerator.cpp ****  * removed!
 131:mtk_resgenerator.cpp ****  *
 132:mtk_resgenerator.cpp ****  * removed!
 133:mtk_resgenerator.cpp ****  * removed!
 134:mtk_resgenerator.cpp ****  * removed!
 135:mtk_resgenerator.cpp ****  *
 136:mtk_resgenerator.cpp ****  * removed!
 137:mtk_resgenerator.cpp ****  * removed!
 138:mtk_resgenerator.cpp ****  * removed!
 139:mtk_resgenerator.cpp ****  *
 140:mtk_resgenerator.cpp ****  * removed!
 141:mtk_resgenerator.cpp ****  * removed!
 142:mtk_resgenerator.cpp ****  * removed!
GAS LISTING d:/github/AIOT_WORKSHOP/AIoT_MT2503AVE_SDK/11CW1418SP4_03_CORETEK03AE_11C_V1_GPRS_MMI/plutommi/Customer/ResGenerator/gcctmp/ccmAfaaa.s 			page 6


 143:mtk_resgenerator.cpp ****  *
 144:mtk_resgenerator.cpp ****  * removed!
 145:mtk_resgenerator.cpp ****  * removed!
 146:mtk_resgenerator.cpp ****  * removed!
 147:mtk_resgenerator.cpp ****  *
 148:mtk_resgenerator.cpp ****  * removed!
 149:mtk_resgenerator.cpp ****  * removed!
 150:mtk_resgenerator.cpp ****  * removed!
 151:mtk_resgenerator.cpp ****  *
 152:mtk_resgenerator.cpp ****  * removed!
 153:mtk_resgenerator.cpp ****  * removed!
 154:mtk_resgenerator.cpp ****  * removed!
 155:mtk_resgenerator.cpp ****  *
 156:mtk_resgenerator.cpp ****  * removed!
 157:mtk_resgenerator.cpp ****  * removed!
 158:mtk_resgenerator.cpp ****  * removed!
 159:mtk_resgenerator.cpp ****  *
 160:mtk_resgenerator.cpp ****  * removed!
 161:mtk_resgenerator.cpp ****  * removed!
 162:mtk_resgenerator.cpp ****  * removed!
 163:mtk_resgenerator.cpp ****  *
 164:mtk_resgenerator.cpp ****  * removed!
 165:mtk_resgenerator.cpp ****  * removed!
 166:mtk_resgenerator.cpp ****  * removed!
 167:mtk_resgenerator.cpp ****  *
 168:mtk_resgenerator.cpp ****  * removed!
 169:mtk_resgenerator.cpp ****  * removed!
 170:mtk_resgenerator.cpp ****  * removed!
 171:mtk_resgenerator.cpp ****  *
 172:mtk_resgenerator.cpp ****  * removed!
 173:mtk_resgenerator.cpp ****  * removed!
 174:mtk_resgenerator.cpp ****  * removed!
 175:mtk_resgenerator.cpp ****  *
 176:mtk_resgenerator.cpp ****  * removed!
 177:mtk_resgenerator.cpp ****  * removed!
 178:mtk_resgenerator.cpp ****  * removed!
 179:mtk_resgenerator.cpp ****  *
 180:mtk_resgenerator.cpp ****  * removed!
 181:mtk_resgenerator.cpp ****  * removed!
 182:mtk_resgenerator.cpp ****  * removed!
 183:mtk_resgenerator.cpp ****  *
 184:mtk_resgenerator.cpp ****  * removed!
 185:mtk_resgenerator.cpp ****  * removed!
 186:mtk_resgenerator.cpp ****  * removed!
 187:mtk_resgenerator.cpp ****  *
 188:mtk_resgenerator.cpp ****  * removed!
 189:mtk_resgenerator.cpp ****  * removed!
 190:mtk_resgenerator.cpp ****  * removed!
 191:mtk_resgenerator.cpp ****  *
 192:mtk_resgenerator.cpp ****  * removed!
 193:mtk_resgenerator.cpp ****  * removed!
 194:mtk_resgenerator.cpp ****  * removed!
 195:mtk_resgenerator.cpp ****  *
 196:mtk_resgenerator.cpp ****  * removed!
 197:mtk_resgenerator.cpp ****  * removed!
 198:mtk_resgenerator.cpp ****  * removed!
 199:mtk_resgenerator.cpp ****  *
GAS LISTING d:/github/AIOT_WORKSHOP/AIoT_MT2503AVE_SDK/11CW1418SP4_03_CORETEK03AE_11C_V1_GPRS_MMI/plutommi/Customer/ResGenerator/gcctmp/ccmAfaaa.s 			page 7


 200:mtk_resgenerator.cpp ****  * removed!
 201:mtk_resgenerator.cpp ****  * removed!
 202:mtk_resgenerator.cpp ****  * removed!
 203:mtk_resgenerator.cpp ****  *
 204:mtk_resgenerator.cpp ****  * removed!
 205:mtk_resgenerator.cpp ****  * removed!
 206:mtk_resgenerator.cpp ****  * removed!
 207:mtk_resgenerator.cpp ****  *
 208:mtk_resgenerator.cpp ****  * removed!
 209:mtk_resgenerator.cpp ****  * removed!
 210:mtk_resgenerator.cpp ****  * removed!
 211:mtk_resgenerator.cpp ****  *
 212:mtk_resgenerator.cpp ****  * removed!
 213:mtk_resgenerator.cpp ****  * removed!
 214:mtk_resgenerator.cpp ****  * removed!
 215:mtk_resgenerator.cpp ****  *
 216:mtk_resgenerator.cpp ****  * removed!
 217:mtk_resgenerator.cpp ****  * removed!
 218:mtk_resgenerator.cpp ****  * removed!
 219:mtk_resgenerator.cpp ****  *
 220:mtk_resgenerator.cpp ****  * removed!
 221:mtk_resgenerator.cpp ****  * removed!
 222:mtk_resgenerator.cpp ****  * removed!
 223:mtk_resgenerator.cpp ****  *
 224:mtk_resgenerator.cpp ****  * removed!
 225:mtk_resgenerator.cpp ****  * removed!
 226:mtk_resgenerator.cpp ****  * removed!
 227:mtk_resgenerator.cpp ****  *
 228:mtk_resgenerator.cpp ****  * removed!
 229:mtk_resgenerator.cpp ****  * removed!
 230:mtk_resgenerator.cpp ****  * removed!
 231:mtk_resgenerator.cpp ****  *
 232:mtk_resgenerator.cpp ****  * removed!
 233:mtk_resgenerator.cpp ****  * removed!
 234:mtk_resgenerator.cpp ****  * removed!
 235:mtk_resgenerator.cpp ****  *
 236:mtk_resgenerator.cpp ****  * removed!
 237:mtk_resgenerator.cpp ****  * removed!
 238:mtk_resgenerator.cpp ****  * removed!
 239:mtk_resgenerator.cpp ****  *
 240:mtk_resgenerator.cpp ****  * removed!
 241:mtk_resgenerator.cpp ****  * removed!
 242:mtk_resgenerator.cpp ****  * removed!
 243:mtk_resgenerator.cpp ****  *
 244:mtk_resgenerator.cpp ****  * removed!
 245:mtk_resgenerator.cpp ****  * removed!
 246:mtk_resgenerator.cpp ****  * removed!
 247:mtk_resgenerator.cpp ****  *
 248:mtk_resgenerator.cpp ****  * removed!
 249:mtk_resgenerator.cpp ****  * removed!
 250:mtk_resgenerator.cpp ****  * removed!
 251:mtk_resgenerator.cpp ****  *
 252:mtk_resgenerator.cpp ****  * removed!
 253:mtk_resgenerator.cpp ****  * removed!
 254:mtk_resgenerator.cpp ****  * removed!
 255:mtk_resgenerator.cpp ****  *
 256:mtk_resgenerator.cpp ****  * removed!
GAS LISTING d:/github/AIOT_WORKSHOP/AIoT_MT2503AVE_SDK/11CW1418SP4_03_CORETEK03AE_11C_V1_GPRS_MMI/plutommi/Customer/ResGenerator/gcctmp/ccmAfaaa.s 			page 8


 257:mtk_resgenerator.cpp ****  * removed!
 258:mtk_resgenerator.cpp ****  * removed!
 259:mtk_resgenerator.cpp ****  *
 260:mtk_resgenerator.cpp ****  * removed!
 261:mtk_resgenerator.cpp ****  * removed!
 262:mtk_resgenerator.cpp ****  * removed!
 263:mtk_resgenerator.cpp ****  *
 264:mtk_resgenerator.cpp ****  * removed!
 265:mtk_resgenerator.cpp ****  * removed!
 266:mtk_resgenerator.cpp ****  * removed!
 267:mtk_resgenerator.cpp ****  *
 268:mtk_resgenerator.cpp ****  * removed!
 269:mtk_resgenerator.cpp ****  * removed!
 270:mtk_resgenerator.cpp ****  * removed!
 271:mtk_resgenerator.cpp ****  *
 272:mtk_resgenerator.cpp ****  * removed!
 273:mtk_resgenerator.cpp ****  * removed!
 274:mtk_resgenerator.cpp ****  * removed!
 275:mtk_resgenerator.cpp ****  *
 276:mtk_resgenerator.cpp ****  * removed!
 277:mtk_resgenerator.cpp ****  * removed!
 278:mtk_resgenerator.cpp ****  *
 279:mtk_resgenerator.cpp ****  *
 280:mtk_resgenerator.cpp ****  * removed!
 281:mtk_resgenerator.cpp ****  * removed!
 282:mtk_resgenerator.cpp ****  * removed!
 283:mtk_resgenerator.cpp ****  *
 284:mtk_resgenerator.cpp ****  * removed!
 285:mtk_resgenerator.cpp ****  * removed!
 286:mtk_resgenerator.cpp ****  *
 287:mtk_resgenerator.cpp ****  *
 288:mtk_resgenerator.cpp ****  * removed!
 289:mtk_resgenerator.cpp ****  * removed!
 290:mtk_resgenerator.cpp ****  *
 291:mtk_resgenerator.cpp ****  *
 292:mtk_resgenerator.cpp ****  * removed!
 293:mtk_resgenerator.cpp ****  * removed!
 294:mtk_resgenerator.cpp ****  *
 295:mtk_resgenerator.cpp ****  *
 296:mtk_resgenerator.cpp ****  * removed!
 297:mtk_resgenerator.cpp ****  * removed!
 298:mtk_resgenerator.cpp ****  *
 299:mtk_resgenerator.cpp ****  *
 300:mtk_resgenerator.cpp ****  * removed!
 301:mtk_resgenerator.cpp ****  * removed!
 302:mtk_resgenerator.cpp ****  *
 303:mtk_resgenerator.cpp ****  *
 304:mtk_resgenerator.cpp ****  * removed!
 305:mtk_resgenerator.cpp ****  * removed!
 306:mtk_resgenerator.cpp ****  *
 307:mtk_resgenerator.cpp ****  *
 308:mtk_resgenerator.cpp ****  * removed!
 309:mtk_resgenerator.cpp ****  * removed!
 310:mtk_resgenerator.cpp ****  *
 311:mtk_resgenerator.cpp ****  *
 312:mtk_resgenerator.cpp ****  * removed!
 313:mtk_resgenerator.cpp ****  * removed!
GAS LISTING d:/github/AIOT_WORKSHOP/AIoT_MT2503AVE_SDK/11CW1418SP4_03_CORETEK03AE_11C_V1_GPRS_MMI/plutommi/Customer/ResGenerator/gcctmp/ccmAfaaa.s 			page 9


 314:mtk_resgenerator.cpp ****  *
 315:mtk_resgenerator.cpp ****  *
 316:mtk_resgenerator.cpp ****  * removed!
 317:mtk_resgenerator.cpp ****  * removed!
 318:mtk_resgenerator.cpp ****  *
 319:mtk_resgenerator.cpp ****  *
 320:mtk_resgenerator.cpp ****  * removed!
 321:mtk_resgenerator.cpp ****  * removed!
 322:mtk_resgenerator.cpp ****  *
 323:mtk_resgenerator.cpp ****  *
 324:mtk_resgenerator.cpp ****  * removed!
 325:mtk_resgenerator.cpp ****  * removed!
 326:mtk_resgenerator.cpp ****  * removed!
 327:mtk_resgenerator.cpp ****  *
 328:mtk_resgenerator.cpp ****  * removed!
 329:mtk_resgenerator.cpp ****  * removed!
 330:mtk_resgenerator.cpp ****  *
 331:mtk_resgenerator.cpp ****  *
 332:mtk_resgenerator.cpp ****  * removed!
 333:mtk_resgenerator.cpp ****  * removed!
 334:mtk_resgenerator.cpp ****  *
 335:mtk_resgenerator.cpp ****  *
 336:mtk_resgenerator.cpp ****  * removed!
 337:mtk_resgenerator.cpp ****  * removed!
 338:mtk_resgenerator.cpp ****  *
 339:mtk_resgenerator.cpp ****  *
 340:mtk_resgenerator.cpp ****  * removed!
 341:mtk_resgenerator.cpp ****  * removed!
 342:mtk_resgenerator.cpp ****  *
 343:mtk_resgenerator.cpp ****  *
 344:mtk_resgenerator.cpp ****  * removed!
 345:mtk_resgenerator.cpp ****  * removed!
 346:mtk_resgenerator.cpp ****  *
 347:mtk_resgenerator.cpp ****  *
 348:mtk_resgenerator.cpp ****  * removed!
 349:mtk_resgenerator.cpp ****  * removed!
 350:mtk_resgenerator.cpp ****  *
 351:mtk_resgenerator.cpp ****  *
 352:mtk_resgenerator.cpp ****  * removed!
 353:mtk_resgenerator.cpp ****  * removed!
 354:mtk_resgenerator.cpp ****  *
 355:mtk_resgenerator.cpp ****  *
 356:mtk_resgenerator.cpp ****  * removed!
 357:mtk_resgenerator.cpp ****  * removed!
 358:mtk_resgenerator.cpp ****  *
 359:mtk_resgenerator.cpp ****  *
 360:mtk_resgenerator.cpp ****  * removed!
 361:mtk_resgenerator.cpp ****  * removed!
 362:mtk_resgenerator.cpp ****  *
 363:mtk_resgenerator.cpp ****  *
 364:mtk_resgenerator.cpp ****  * removed!
 365:mtk_resgenerator.cpp ****  * removed!
 366:mtk_resgenerator.cpp ****  *
 367:mtk_resgenerator.cpp ****  *
 368:mtk_resgenerator.cpp ****  * removed!
 369:mtk_resgenerator.cpp ****  * removed!
 370:mtk_resgenerator.cpp ****  * removed!
GAS LISTING d:/github/AIOT_WORKSHOP/AIoT_MT2503AVE_SDK/11CW1418SP4_03_CORETEK03AE_11C_V1_GPRS_MMI/plutommi/Customer/ResGenerator/gcctmp/ccmAfaaa.s 			page 10


 371:mtk_resgenerator.cpp ****  *
 372:mtk_resgenerator.cpp ****  * removed!
 373:mtk_resgenerator.cpp ****  * removed!
 374:mtk_resgenerator.cpp ****  *
 375:mtk_resgenerator.cpp ****  *
 376:mtk_resgenerator.cpp ****  * removed!
 377:mtk_resgenerator.cpp ****  * removed!
 378:mtk_resgenerator.cpp ****  * removed!
 379:mtk_resgenerator.cpp ****  *
 380:mtk_resgenerator.cpp ****  * removed!
 381:mtk_resgenerator.cpp ****  * removed!
 382:mtk_resgenerator.cpp ****  *
 383:mtk_resgenerator.cpp ****  *
 384:mtk_resgenerator.cpp ****  * removed!
 385:mtk_resgenerator.cpp ****  * removed!
 386:mtk_resgenerator.cpp ****  *
 387:mtk_resgenerator.cpp ****  *
 388:mtk_resgenerator.cpp ****  * removed!
 389:mtk_resgenerator.cpp ****  * removed!
 390:mtk_resgenerator.cpp ****  *
 391:mtk_resgenerator.cpp ****  *
 392:mtk_resgenerator.cpp ****  * removed!
 393:mtk_resgenerator.cpp ****  * removed!
 394:mtk_resgenerator.cpp ****  *
 395:mtk_resgenerator.cpp ****  *
 396:mtk_resgenerator.cpp ****  * removed!
 397:mtk_resgenerator.cpp ****  * removed!
 398:mtk_resgenerator.cpp ****  *
 399:mtk_resgenerator.cpp ****  *
 400:mtk_resgenerator.cpp ****  * removed!
 401:mtk_resgenerator.cpp ****  * removed!
 402:mtk_resgenerator.cpp ****  *
 403:mtk_resgenerator.cpp ****  *
 404:mtk_resgenerator.cpp ****  * removed!
 405:mtk_resgenerator.cpp ****  * removed!
 406:mtk_resgenerator.cpp ****  *
 407:mtk_resgenerator.cpp ****  *
 408:mtk_resgenerator.cpp ****  * removed!
 409:mtk_resgenerator.cpp ****  * removed!
 410:mtk_resgenerator.cpp ****  *
 411:mtk_resgenerator.cpp ****  *
 412:mtk_resgenerator.cpp ****  * removed!
 413:mtk_resgenerator.cpp ****  * removed!
 414:mtk_resgenerator.cpp ****  *
 415:mtk_resgenerator.cpp ****  *
 416:mtk_resgenerator.cpp ****  * removed!
 417:mtk_resgenerator.cpp ****  * removed!
 418:mtk_resgenerator.cpp ****  *
 419:mtk_resgenerator.cpp ****  *
 420:mtk_resgenerator.cpp ****  * removed!
 421:mtk_resgenerator.cpp ****  * removed!
 422:mtk_resgenerator.cpp ****  * removed!
 423:mtk_resgenerator.cpp ****  *
 424:mtk_resgenerator.cpp ****  * removed!
 425:mtk_resgenerator.cpp ****  * removed!
 426:mtk_resgenerator.cpp ****  *
 427:mtk_resgenerator.cpp ****  *
GAS LISTING d:/github/AIOT_WORKSHOP/AIoT_MT2503AVE_SDK/11CW1418SP4_03_CORETEK03AE_11C_V1_GPRS_MMI/plutommi/Customer/ResGenerator/gcctmp/ccmAfaaa.s 			page 11


 428:mtk_resgenerator.cpp ****  * removed!
 429:mtk_resgenerator.cpp ****  * removed!
 430:mtk_resgenerator.cpp ****  *
 431:mtk_resgenerator.cpp ****  *
 432:mtk_resgenerator.cpp ****  *------------------------------------------------------------------------------
 433:mtk_resgenerator.cpp ****  * Upper this line, this part is controlled by PVCS VM. DO NOT MODIFY!!
 434:mtk_resgenerator.cpp ****  *==============================================================================
 435:mtk_resgenerator.cpp ****  *******************************************************************************/
 436:mtk_resgenerator.cpp **** 
 437:mtk_resgenerator.cpp **** 
 438:mtk_resgenerator.cpp **** #include <stdio.h>
 439:mtk_resgenerator.cpp **** #include <stdlib.h>
 440:mtk_resgenerator.cpp **** 
 441:mtk_resgenerator.cpp **** #include "MMIDataType.h"
 442:mtk_resgenerator.cpp **** 
 443:mtk_resgenerator.cpp **** extern "C" {
 444:mtk_resgenerator.cpp **** #include "CustDataRes.h"
 445:mtk_resgenerator.cpp **** #include "CustMenuRes.h"
 446:mtk_resgenerator.cpp **** #include "CustResDef.h"
 447:mtk_resgenerator.cpp **** #include "mmi_features.h"
 448:mtk_resgenerator.cpp **** #include "WriteResUtil.h"
 449:mtk_resgenerator.cpp **** #include "LegacyResPopService.h"
 450:mtk_resgenerator.cpp **** #include "str_merge_public.h"
 451:mtk_resgenerator.cpp **** #include "ExternalCMDManagerCAPI.h"
 452:mtk_resgenerator.cpp **** #include "ResgenLogCAPI.h"
 453:mtk_resgenerator.cpp **** }
 454:mtk_resgenerator.cpp **** ////////////////////////////////////////////
 455:mtk_resgenerator.cpp **** // Offilne Generator Headers
 456:mtk_resgenerator.cpp **** ////////////////////////////////////////////
 457:mtk_resgenerator.cpp **** #ifdef __RESGEN_INTERNAL_OFFLINE__
 458:mtk_resgenerator.cpp **** #include "stdafx.h"
 459:mtk_resgenerator.cpp **** #include <vector>
 460:mtk_resgenerator.cpp **** #include <string>
 461:mtk_resgenerator.cpp **** 
 462:mtk_resgenerator.cpp **** #include "OfflineResParam.h"
 463:mtk_resgenerator.cpp **** #include "OfflineResDAO.h"
 464:mtk_resgenerator.cpp **** #include "OfflineResParamModel.h"
 465:mtk_resgenerator.cpp **** #include "OfflineResHelper.h"
 466:mtk_resgenerator.cpp **** #include "OfflineResPopAdaptor.h"
 467:mtk_resgenerator.cpp **** #include "CatResGenerator.h"
 468:mtk_resgenerator.cpp **** #endif // __RESGEN_INTERNAL_OFFLINE__
 469:mtk_resgenerator.cpp **** ////////////////////////////////////////////
 470:mtk_resgenerator.cpp **** 
 471:mtk_resgenerator.cpp **** #include "ResCompressConfig.h"
 472:mtk_resgenerator.cpp **** #include "ResgenCatConfig.h"
 473:mtk_resgenerator.cpp **** #include "ResgenCrashHandlingServ.h"
 474:mtk_resgenerator.cpp **** #include "ResgenConfigurator.h"
 475:mtk_resgenerator.cpp **** #include "ImageGroupCreator.h"
 476:mtk_resgenerator.cpp **** 
 477:mtk_resgenerator.cpp **** #ifdef __REGEN_INTERNAL_BATCHED__
 478:mtk_resgenerator.cpp **** #include "BinaryModeResGen.h"
 479:mtk_resgenerator.cpp **** #endif
 480:mtk_resgenerator.cpp **** 
 481:mtk_resgenerator.cpp **** #define WIN32_LEAN_AND_MEAN
 482:mtk_resgenerator.cpp **** #include "windows.h"
 483:mtk_resgenerator.cpp **** 
 484:mtk_resgenerator.cpp **** #include <time.h>
GAS LISTING d:/github/AIOT_WORKSHOP/AIoT_MT2503AVE_SDK/11CW1418SP4_03_CORETEK03AE_11C_V1_GPRS_MMI/plutommi/Customer/ResGenerator/gcctmp/ccmAfaaa.s 			page 12


 485:mtk_resgenerator.cpp **** 
 486:mtk_resgenerator.cpp **** /* Enable roud-robin image split method */
 487:mtk_resgenerator.cpp **** #define RESGEN_IMG_SPLIT_OUTPUT_ROUND_ROBIN
 488:mtk_resgenerator.cpp **** 
 489:mtk_resgenerator.cpp **** /* buffer size for shell command */
 490:mtk_resgenerator.cpp **** #define SHELL_CMD_BUFLEN    (MAX_FILENAME_LEN + 100)
 491:mtk_resgenerator.cpp **** /* buffer size for unzip command */
 492:mtk_resgenerator.cpp **** #define UNZIP_CMD_BUFLEN    256
 493:mtk_resgenerator.cpp **** 
 494:mtk_resgenerator.cpp **** #define RESGEN_TAG        "MTK_RESGENERATOR"
 495:mtk_resgenerator.cpp **** 
 496:mtk_resgenerator.cpp **** #define RESGEN_LOG_D(format, args...) RES_LOG_D((RESGEN_TAG), (format) , ##args)
 497:mtk_resgenerator.cpp **** #define RESGEN_LOG_V(format, args...) RES_LOG_V((RESGEN_TAG), (format) , ##args)
 498:mtk_resgenerator.cpp **** #define RESGEN_LOG_W(format, args...) RES_LOG_W((RESGEN_TAG), (format) , ##args)
 499:mtk_resgenerator.cpp **** #define RESGEN_LOG_E(format, args...) RES_LOG_E((RESGEN_TAG), (format) , ##args)
 500:mtk_resgenerator.cpp **** 
 501:mtk_resgenerator.cpp **** #define RESGEN_WLOG_D(format, args...) RES_WLOG_D((RESGEN_TAG), (format) , ##args)
 502:mtk_resgenerator.cpp **** #define RESGEN_WLOG_V(format, args...) RES_WLOG_V((RESGEN_TAG), (format) , ##args)
 503:mtk_resgenerator.cpp **** #define RESGEN_WLOG_W(format, args...) RES_WLOG_W((RESGEN_TAG), (format) , ##args)
 504:mtk_resgenerator.cpp **** #define RESGEN_WLOG_E(format, args...) RES_WLOG_E((RESGEN_TAG), (format) , ##args)
 505:mtk_resgenerator.cpp **** 
 506:mtk_resgenerator.cpp **** 
 507:mtk_resgenerator.cpp **** 
 508:mtk_resgenerator.cpp **** 
 509:mtk_resgenerator.cpp **** /* buffer size of cust pack error log */
 510:mtk_resgenerator.cpp **** #define CUSTPACK_LOG_BUFLEN 256
 511:mtk_resgenerator.cpp **** #define CUSTPACL_LOG_FILE_NAME "resgen_custpack.log"
 512:mtk_resgenerator.cpp **** 
 513:mtk_resgenerator.cpp **** #ifdef __CAT_SUPPORT__
 514:mtk_resgenerator.cpp ****     #define STR_COMPRESS_CMD_OPTION_STR_PADDING MMIRESOURCE_CAT_STR_COMPRESS_RESERVED_MARGIN_SIZE_B
 515:mtk_resgenerator.cpp **** #else
 516:mtk_resgenerator.cpp ****     #define STR_COMPRESS_CMD_OPTION_STR_PADDING 0
 517:mtk_resgenerator.cpp **** #endif //__CAT_SUPPORT__
 518:mtk_resgenerator.cpp **** 
 519:mtk_resgenerator.cpp **** 
 520:mtk_resgenerator.cpp **** /* type definition */
 521:mtk_resgenerator.cpp **** typedef struct
 522:mtk_resgenerator.cpp **** {
 523:mtk_resgenerator.cpp ****     U16 Num;
 524:mtk_resgenerator.cpp **** } CUSTOM_ID_MAP;
 525:mtk_resgenerator.cpp **** 
 526:mtk_resgenerator.cpp **** typedef struct
 527:mtk_resgenerator.cpp **** {
 528:mtk_resgenerator.cpp ****     U16 minId;
 529:mtk_resgenerator.cpp ****     U16 maxId;
 530:mtk_resgenerator.cpp ****     U16 index;
 531:mtk_resgenerator.cpp **** } CUSTOM_ID_SEARCH_MAP;
 532:mtk_resgenerator.cpp **** 
 533:mtk_resgenerator.cpp **** typedef struct
 534:mtk_resgenerator.cpp **** {
 535:mtk_resgenerator.cpp ****     S8 filename[MAX_FILENAME_LEN];
 536:mtk_resgenerator.cpp **** } CUSTOM_NAME_LIST;
 537:mtk_resgenerator.cpp **** 
 538:mtk_resgenerator.cpp **** 
 539:mtk_resgenerator.cpp **** /* Extern variable */
 540:mtk_resgenerator.cpp **** extern "C" CUSTOM_IMAGE_MAP            ImageIdMap[];
 541:mtk_resgenerator.cpp **** extern "C" CUSTOM_IMAGE_SEARCH_MAP     ImageIdSearchMap[];
GAS LISTING d:/github/AIOT_WORKSHOP/AIoT_MT2503AVE_SDK/11CW1418SP4_03_CORETEK03AE_11C_V1_GPRS_MMI/plutommi/Customer/ResGenerator/gcctmp/ccmAfaaa.s 			page 13


 542:mtk_resgenerator.cpp **** extern "C" IMAGENAME_LIST              ImageNameList[];
 543:mtk_resgenerator.cpp **** 
 544:mtk_resgenerator.cpp **** extern "C" CUSTOM_IMAGE_MAP            ImageIdMapEXT[];
 545:mtk_resgenerator.cpp **** extern "C" CUSTOM_IMAGE_SEARCH_MAP     ImageIdSearchMapEXT[];
 546:mtk_resgenerator.cpp **** extern "C" IMAGENAME_LIST              ImageNameListEXT[];
 547:mtk_resgenerator.cpp **** 
 548:mtk_resgenerator.cpp **** extern "C" CUSTOM_FONT_MAP            FontIdMapEXT[];
 549:mtk_resgenerator.cpp **** extern "C" CUSTOM_FONT_SEARCH_MAP     FontIdSearchMapEXT[];
 550:mtk_resgenerator.cpp **** extern "C" FONTNAME_LIST              FontNameListEXT[];
 551:mtk_resgenerator.cpp **** 
 552:mtk_resgenerator.cpp **** 
 553:mtk_resgenerator.cpp **** 
 554:mtk_resgenerator.cpp **** extern "C" CUSTOM_AUDIO_MAP         AudioIdMap[];
 555:mtk_resgenerator.cpp **** extern "C" CUSTOM_AUDIO_SEARCH_MAP  AudioIdSearchMap[];
 556:mtk_resgenerator.cpp **** extern "C" AUDIONAME_LIST           AudioNameList[];
 557:mtk_resgenerator.cpp **** 
 558:mtk_resgenerator.cpp **** extern "C" CUSTOM_AUDIO_MAP         AudioIdMapEXT[];
 559:mtk_resgenerator.cpp **** extern "C" CUSTOM_AUDIO_SEARCH_MAP  AudioIdSearchMapEXT[];
 560:mtk_resgenerator.cpp **** extern "C" AUDIONAME_LIST           AudioNameListEXT[];
 561:mtk_resgenerator.cpp **** 
 562:mtk_resgenerator.cpp **** extern "C" CUSTOM_MENU              nCustMenus[];
 563:mtk_resgenerator.cpp **** extern "C" unsigned short           CurrMaxMenuItemIndex;   //Max menu Ids
 564:mtk_resgenerator.cpp **** 
 565:mtk_resgenerator.cpp **** extern "C" unsigned short           CurrMaxImageId;         //Max String Ids
 566:mtk_resgenerator.cpp **** extern "C" unsigned short           CurrMaxSearchImageId;   //Max String Ids
 567:mtk_resgenerator.cpp **** extern "C" unsigned short           CurrMaxImageNum;        //Max Number Ids
 568:mtk_resgenerator.cpp **** 
 569:mtk_resgenerator.cpp **** extern "C" unsigned short           CurrMaxImageIdEXT;
 570:mtk_resgenerator.cpp **** extern "C" unsigned short           CurrMaxSearchImageIdEXT;
 571:mtk_resgenerator.cpp **** extern "C" unsigned short           CurrMaxImageNumEXT;
 572:mtk_resgenerator.cpp **** 
 573:mtk_resgenerator.cpp **** extern "C" unsigned short           CurrMaxFontIdEXT;
 574:mtk_resgenerator.cpp **** extern "C" unsigned short           CurrMaxSearchFontIdEXT;
 575:mtk_resgenerator.cpp **** extern "C" unsigned short           CurrMaxFontNumEXT;
 576:mtk_resgenerator.cpp **** 
 577:mtk_resgenerator.cpp **** 
 578:mtk_resgenerator.cpp **** extern "C" unsigned short           CurrMaxAudioId;         //Max String Ids
 579:mtk_resgenerator.cpp **** extern "C" unsigned short           CurrMaxSearchAudioId;   //Max String Ids
 580:mtk_resgenerator.cpp **** extern "C" unsigned short           CurrMaxAudioNum;        //Max Number Ids
 581:mtk_resgenerator.cpp **** 
 582:mtk_resgenerator.cpp **** extern "C" unsigned short           CurrMaxAudioIdEXT;
 583:mtk_resgenerator.cpp **** extern "C" unsigned short           CurrMaxSearchAudioIdEXT;
 584:mtk_resgenerator.cpp **** extern "C" unsigned short           CurrMaxAudioNumEXT;
 585:mtk_resgenerator.cpp **** 
 586:mtk_resgenerator.cpp **** 
 587:mtk_resgenerator.cpp **** extern "C" FILE*                    dest_file;
 588:mtk_resgenerator.cpp **** extern "C" int                      toolFlag;
 589:mtk_resgenerator.cpp **** extern "C" int                      resultFailFlag;
 590:mtk_resgenerator.cpp **** extern "C" MMI_BOOL                 g_is_log;
 591:mtk_resgenerator.cpp **** MMI_BOOL                            g_is_clean = MMI_FALSE;
 592:mtk_resgenerator.cpp **** 
 593:mtk_resgenerator.cpp **** 
 594:mtk_resgenerator.cpp **** extern "C" unsigned short           CurrMaxENFBAssociatedIDNum;
 595:mtk_resgenerator.cpp **** extern "C" CUSTOM_ENFB_STR          ENFBAssociatedIDList[];
 596:mtk_resgenerator.cpp **** 
 597:mtk_resgenerator.cpp **** extern "C" ENFB_Font_Res_Info       ENFBFontResInfo[];
 598:mtk_resgenerator.cpp **** 
GAS LISTING d:/github/AIOT_WORKSHOP/AIoT_MT2503AVE_SDK/11CW1418SP4_03_CORETEK03AE_11C_V1_GPRS_MMI/plutommi/Customer/ResGenerator/gcctmp/ccmAfaaa.s 			page 14


 599:mtk_resgenerator.cpp **** 
 600:mtk_resgenerator.cpp **** /* Menuitem reduce memory, move registe hilite handlers to resgen */
 601:mtk_resgenerator.cpp **** extern "C" S32 HiliteHdlrCount;
 602:mtk_resgenerator.cpp **** extern "C" S32 HintHdlrCount;
 603:mtk_resgenerator.cpp **** extern "C" RESGEN_MENU_HILITE_HANDLER   nMenuHiliteHandlers[];
 604:mtk_resgenerator.cpp **** extern "C" RESGEN_MENU_HINT_HANDLER     nMenuHintHandlers[];
 605:mtk_resgenerator.cpp **** 
 606:mtk_resgenerator.cpp **** /* Extern functions */
 607:mtk_resgenerator.cpp **** extern "C" void InitStrPopulate();
 608:mtk_resgenerator.cpp **** extern "C" MMI_BOOL Fload(S8 *string, PU16 pType);
 609:mtk_resgenerator.cpp **** 
 610:mtk_resgenerator.cpp **** /*****************************************************************************
 611:mtk_resgenerator.cpp **** * FUNCTION
 612:mtk_resgenerator.cpp **** *  GenerateENFBAssociatedIDFile
 613:mtk_resgenerator.cpp **** * DESCRIPTION
 614:mtk_resgenerator.cpp **** *  generate ENFB associated ID map file
 615:mtk_resgenerator.cpp **** * PARAMETERS
 616:mtk_resgenerator.cpp **** *  void
 617:mtk_resgenerator.cpp **** * RETURNS
 618:mtk_resgenerator.cpp **** *  MMI_BOOL
 619:mtk_resgenerator.cpp **** *****************************************************************************/
 620:mtk_resgenerator.cpp **** static MMI_BOOL GenerateENFBAssociatedIDFile(void)
 621:mtk_resgenerator.cpp **** {
 2957              	LM1:
 2958 0442 55       		pushl	%ebp
 2959 0443 89E5     		movl	%esp, %ebp
 2960 0445 83EC28   		subl	$40, %esp
 622:mtk_resgenerator.cpp ****     /*----------------------------------------------------------------*/
 623:mtk_resgenerator.cpp ****     /* Local Variables                                                */
 624:mtk_resgenerator.cpp ****     /*----------------------------------------------------------------*/
 625:mtk_resgenerator.cpp ****     FILE *fp;
 626:mtk_resgenerator.cpp ****     CUSTOM_ENFB_STR *enfb;
 627:mtk_resgenerator.cpp ****     int i, j;
 628:mtk_resgenerator.cpp **** 
 629:mtk_resgenerator.cpp ****     /*----------------------------------------------------------------*/
 630:mtk_resgenerator.cpp ****     /* Code Body                                                      */
 631:mtk_resgenerator.cpp ****     /*----------------------------------------------------------------*/
 632:mtk_resgenerator.cpp ****     RESGEN_LOG_V("GenerateENFBAssociatedIDFile(): File output: CustENFBImgMap.c");
 2962              	LM2:
 2963              	LBB2:
 2964 0448 C7442408 		movl	$LC0, 8(%esp)
 2964      00000000 
 2965 0450 C7442404 		movl	$LC1, 4(%esp)
 2965      3E000000 
 2966 0458 C7042401 		movl	$1, (%esp)
 2966      000000
 2967 045f E8000000 		call	_reslog_adaptor_log
 2967      00
 633:mtk_resgenerator.cpp ****     /* open file */
 634:mtk_resgenerator.cpp ****     fp = fopen(ENFB_DATA_FILENAME, "w");
 2969              	LM3:
 2970 0464 C7442404 		movl	$LC2, 4(%esp)
 2970      4F000000 
 2971 046c C7042460 		movl	$LC3, (%esp)
 2971      000000
 2972 0473 E8000000 		call	_fopen
 2972      00
GAS LISTING d:/github/AIOT_WORKSHOP/AIoT_MT2503AVE_SDK/11CW1418SP4_03_CORETEK03AE_11C_V1_GPRS_MMI/plutommi/Customer/ResGenerator/gcctmp/ccmAfaaa.s 			page 15


 2973 0478 8945FC   		movl	%eax, -4(%ebp)
 635:mtk_resgenerator.cpp ****     if(fp == NULL)
 2975              	LM4:
 2976 047b 837DFC00 		cmpl	$0, -4(%ebp)
 2977 047f 750C     		jne	L2
 636:mtk_resgenerator.cpp ****     {
 637:mtk_resgenerator.cpp ****         return MMI_FALSE;
 2979              	LM5:
 2980 0481 C745EC00 		movl	$0, -20(%ebp)
 2980      000000
 2981 0488 E9DD0200 		jmp	L1
 2981      00
 2982              	L2:
 638:mtk_resgenerator.cpp ****     }
 639:mtk_resgenerator.cpp **** 
 640:mtk_resgenerator.cpp ****     /* print copyright */
 641:mtk_resgenerator.cpp ****     fprintf(fp, "/**\n *	Copyright Notice\n *	?2002 - 2003, Pixtel Communications, Inc., 1489 43rd 
 2984              	LM6:
 2985 048d C7442404 		movl	$LC4, 4(%esp)
 2985      A0000000 
 2986 0495 8B45FC   		movl	-4(%ebp), %eax
 2987 0498 890424   		movl	%eax, (%esp)
 2988 049b E8000000 		call	_fprintf
 2988      00
 642:mtk_resgenerator.cpp ****     fprintf(fp, "\n/************************************************************** \n FILENAME\t: C
 2990              	LM7:
 2991 04a0 C7442404 		movl	$LC5, 4(%esp)
 2991      A0010000 
 2992 04a8 8B45FC   		movl	-4(%ebp), %eax
 2993 04ab 890424   		movl	%eax, (%esp)
 2994 04ae E8000000 		call	_fprintf
 2994      00
 643:mtk_resgenerator.cpp **** 
 644:mtk_resgenerator.cpp ****     /* print include file */
 645:mtk_resgenerator.cpp ****     fprintf(fp, "#include \"CustDataRes.h\"\n\n");
 2996              	LM8:
 2997 04b3 C7442404 		movl	$LC6, 4(%esp)
 2997      AB020000 
 2998 04bb 8B45FC   		movl	-4(%ebp), %eax
 2999 04be 890424   		movl	%eax, (%esp)
 3000 04c1 E8000000 		call	_fprintf
 3000      00
 646:mtk_resgenerator.cpp **** 
 647:mtk_resgenerator.cpp **** #if 0
 648:mtk_resgenerator.cpp **** /* under construction !*/
 649:mtk_resgenerator.cpp **** /* under construction !*/
 650:mtk_resgenerator.cpp **** /* under construction !*/
 651:mtk_resgenerator.cpp **** /* under construction !*/
 652:mtk_resgenerator.cpp **** /* under construction !*/
 653:mtk_resgenerator.cpp **** /* under construction !*/
 654:mtk_resgenerator.cpp **** /* under construction !*/
 655:mtk_resgenerator.cpp **** /* under construction !*/
 656:mtk_resgenerator.cpp **** /* under construction !*/
 657:mtk_resgenerator.cpp **** /* under construction !*/
 658:mtk_resgenerator.cpp **** #endif /* 0 */
 659:mtk_resgenerator.cpp **** 
 660:mtk_resgenerator.cpp ****     /* print list count */
GAS LISTING d:/github/AIOT_WORKSHOP/AIoT_MT2503AVE_SDK/11CW1418SP4_03_CORETEK03AE_11C_V1_GPRS_MMI/plutommi/Customer/ResGenerator/gcctmp/ccmAfaaa.s 			page 16


 661:mtk_resgenerator.cpp ****     fprintf(fp, "const U32 CurrMaxENFBAssociatedIDNum = %d;\n\n", CurrMaxENFBAssociatedIDNum + 1);
 3002              	LM9:
 3003 04c6 0FB70500 		movzwl	_CurrMaxENFBAssociatedIDNum, %eax
 3003      000000
 3004 04cd 40       		incl	%eax
 3005 04ce 89442408 		movl	%eax, 8(%esp)
 3006 04d2 C7442404 		movl	$LC7, 4(%esp)
 3006      E0020000 
 3007 04da 8B45FC   		movl	-4(%ebp), %eax
 3008 04dd 890424   		movl	%eax, (%esp)
 3009 04e0 E8000000 		call	_fprintf
 3009      00
 662:mtk_resgenerator.cpp **** 
 663:mtk_resgenerator.cpp ****     /* dump ID list */
 664:mtk_resgenerator.cpp ****     for (i = 1; i <= (int)CurrMaxENFBAssociatedIDNum; i++)
 3011              	LM10:
 3012 04e5 C745F401 		movl	$1, -12(%ebp)
 3012      000000
 3013              	L3:
 3014 04ec 0FB70500 		movzwl	_CurrMaxENFBAssociatedIDNum, %eax
 3014      000000
 3015 04f3 3945F4   		cmpl	%eax, -12(%ebp)
 3016 04f6 7E05     		jle	L6
 3017 04f8 E9AC0000 		jmp	L4
 3017      00
 3018              	L6:
 665:mtk_resgenerator.cpp ****     {
 666:mtk_resgenerator.cpp ****         enfb = (CUSTOM_ENFB_STR *)&ENFBAssociatedIDList[i];
 3020              	LM11:
 3021 04fd 8B55F4   		movl	-12(%ebp), %edx
 3022 0500 89D0     		movl	%edx, %eax
 3023 0502 01C0     		addl	%eax, %eax
 3024 0504 01D0     		addl	%edx, %eax
 3025 0506 8D148500 		leal	0(,%eax,4), %edx
 3025      000000
 3026 050d B8000000 		movl	$_ENFBAssociatedIDList, %eax
 3026      00
 3027 0512 01D0     		addl	%edx, %eax
 3028 0514 8945F8   		movl	%eax, -8(%ebp)
 667:mtk_resgenerator.cpp ****         fprintf(fp, "const U16 Associated_IDs_%d[] = {", i);
 3030              	LM12:
 3031 0517 8B45F4   		movl	-12(%ebp), %eax
 3032 051a 89442408 		movl	%eax, 8(%esp)
 3033 051e C7442404 		movl	$LC8, 4(%esp)
 3033      20030000 
 3034 0526 8B45FC   		movl	-4(%ebp), %eax
 3035 0529 890424   		movl	%eax, (%esp)
 3036 052c E8000000 		call	_fprintf
 3036      00
 668:mtk_resgenerator.cpp ****         for (j = 0; j < (int)enfb->count - 1; j++)
 3038              	LM13:
 3039 0531 C745F000 		movl	$0, -16(%ebp)
 3039      000000
 3040              	L7:
 3041 0538 8B45F8   		movl	-8(%ebp), %eax
 3042 053b 0FB700   		movzwl	(%eax), %eax
 3043 053e 48       		decl	%eax
GAS LISTING d:/github/AIOT_WORKSHOP/AIoT_MT2503AVE_SDK/11CW1418SP4_03_CORETEK03AE_11C_V1_GPRS_MMI/plutommi/Customer/ResGenerator/gcctmp/ccmAfaaa.s 			page 17


 3044 053f 3945F0   		cmpl	%eax, -16(%ebp)
 3045 0542 7C02     		jl	L10
 3046 0544 EB2E     		jmp	L8
 3047              	L10:
 669:mtk_resgenerator.cpp ****         {
 670:mtk_resgenerator.cpp ****             fprintf(fp, "%d, ", enfb->IDs[j]);
 3049              	LM14:
 3050 0546 8B4DF8   		movl	-8(%ebp), %ecx
 3051 0549 8B45F0   		movl	-16(%ebp), %eax
 3052 054c 8D1400   		leal	(%eax,%eax), %edx
 3053 054f 8B4104   		movl	4(%ecx), %eax
 3054 0552 0FB70410 		movzwl	(%eax,%edx), %eax
 3055 0556 89442408 		movl	%eax, 8(%esp)
 3056 055a C7442404 		movl	$LC9, 4(%esp)
 3056      42030000 
 3057 0562 8B45FC   		movl	-4(%ebp), %eax
 3058 0565 890424   		movl	%eax, (%esp)
 3059 0568 E8000000 		call	_fprintf
 3059      00
 3061              	LM15:
 3062 056d 8D45F0   		leal	-16(%ebp), %eax
 3063 0570 FF00     		incl	(%eax)
 3064 0572 EBC4     		jmp	L7
 3065              	L8:
 671:mtk_resgenerator.cpp ****         }
 672:mtk_resgenerator.cpp ****         fprintf(fp, "%d};\n", enfb->IDs[enfb->count - 1]);
 3067              	LM16:
 3068 0574 8B55F8   		movl	-8(%ebp), %edx
 3069 0577 8B45F8   		movl	-8(%ebp), %eax
 3070 057a 0FB700   		movzwl	(%eax), %eax
 3071 057d 01C0     		addl	%eax, %eax
 3072 057f 034204   		addl	4(%edx), %eax
 3073 0582 83E802   		subl	$2, %eax
 3074 0585 0FB700   		movzwl	(%eax), %eax
 3075 0588 89442408 		movl	%eax, 8(%esp)
 3076 058c C7442404 		movl	$LC10, 4(%esp)
 3076      47030000 
 3077 0594 8B45FC   		movl	-4(%ebp), %eax
 3078 0597 890424   		movl	%eax, (%esp)
 3079 059a E8000000 		call	_fprintf
 3079      00
 3081              	LM17:
 3082 059f 8D45F4   		leal	-12(%ebp), %eax
 3083 05a2 FF00     		incl	(%eax)
 3084 05a4 E943FFFF 		jmp	L3
 3084      FF
 3085              	L4:
 673:mtk_resgenerator.cpp ****     }
 674:mtk_resgenerator.cpp ****     fprintf(fp, "\n");
 3087              	LM18:
 3088 05a9 C7442404 		movl	$LC11, 4(%esp)
 3088      4D030000 
 3089 05b1 8B45FC   		movl	-4(%ebp), %eax
 3090 05b4 890424   		movl	%eax, (%esp)
 3091 05b7 E8000000 		call	_fprintf
 3091      00
 675:mtk_resgenerator.cpp **** 
GAS LISTING d:/github/AIOT_WORKSHOP/AIoT_MT2503AVE_SDK/11CW1418SP4_03_CORETEK03AE_11C_V1_GPRS_MMI/plutommi/Customer/ResGenerator/gcctmp/ccmAfaaa.s 			page 18


 676:mtk_resgenerator.cpp **** #if 0
 677:mtk_resgenerator.cpp **** /* under construction !*/
 678:mtk_resgenerator.cpp **** /* under construction !*/
 679:mtk_resgenerator.cpp **** /* under construction !*/
 680:mtk_resgenerator.cpp **** /* under construction !*/
 681:mtk_resgenerator.cpp **** /* under construction !*/
 682:mtk_resgenerator.cpp **** /* under construction !*/
 683:mtk_resgenerator.cpp **** /* under construction !*/
 684:mtk_resgenerator.cpp **** /* under construction !*/
 685:mtk_resgenerator.cpp **** /* under construction !*/
 686:mtk_resgenerator.cpp **** /* under construction !*/
 687:mtk_resgenerator.cpp **** /* under construction !*/
 688:mtk_resgenerator.cpp **** /* under construction !*/
 689:mtk_resgenerator.cpp **** #endif /* 0 */
 690:mtk_resgenerator.cpp **** 
 691:mtk_resgenerator.cpp ****     /* dump CUSTOM_ENFB list */
 692:mtk_resgenerator.cpp ****     fprintf(fp, "const CUSTOM_ENFB AssociatedID_map[] = \n{\n");
 3093              	LM19:
 3094 05bc C7442404 		movl	$LC12, 4(%esp)
 3094      60030000 
 3095 05c4 8B45FC   		movl	-4(%ebp), %eax
 3096 05c7 890424   		movl	%eax, (%esp)
 3097 05ca E8000000 		call	_fprintf
 3097      00
 693:mtk_resgenerator.cpp ****     if (CurrMaxENFBAssociatedIDNum > 0)
 3099              	LM20:
 3100 05cf 66833D00 		cmpw	$0, _CurrMaxENFBAssociatedIDNum
 3100      00000000 
 3101 05d7 7415     		je	L11
 694:mtk_resgenerator.cpp ****     {
 695:mtk_resgenerator.cpp **** #if 0
 696:mtk_resgenerator.cpp **** /* under construction !*/
 697:mtk_resgenerator.cpp **** #endif /* 0 */
 698:mtk_resgenerator.cpp ****         fprintf(fp, "\t{0, 0},\n");
 3103              	LM21:
 3104 05d9 C7442404 		movl	$LC13, 4(%esp)
 3104      8B030000 
 3105 05e1 8B45FC   		movl	-4(%ebp), %eax
 3106 05e4 890424   		movl	%eax, (%esp)
 3107 05e7 E8000000 		call	_fprintf
 3107      00
 3108 05ec EB13     		jmp	L12
 3109              	L11:
 699:mtk_resgenerator.cpp ****     }
 700:mtk_resgenerator.cpp ****     else
 701:mtk_resgenerator.cpp ****     {
 702:mtk_resgenerator.cpp **** #if 0
 703:mtk_resgenerator.cpp **** /* under construction !*/
 704:mtk_resgenerator.cpp **** #endif /* 0 */
 705:mtk_resgenerator.cpp ****         fprintf(fp, "\t{0, 0}\n");
 3111              	LM22:
 3112 05ee C7442404 		movl	$LC14, 4(%esp)
 3112      95030000 
 3113 05f6 8B45FC   		movl	-4(%ebp), %eax
 3114 05f9 890424   		movl	%eax, (%esp)
 3115 05fc E8000000 		call	_fprintf
 3115      00
GAS LISTING d:/github/AIOT_WORKSHOP/AIoT_MT2503AVE_SDK/11CW1418SP4_03_CORETEK03AE_11C_V1_GPRS_MMI/plutommi/Customer/ResGenerator/gcctmp/ccmAfaaa.s 			page 19


 3116              	L12:
 706:mtk_resgenerator.cpp ****     }
 707:mtk_resgenerator.cpp ****     if (CurrMaxENFBAssociatedIDNum > 0)
 3118              	LM23:
 3119 0601 66833D00 		cmpw	$0, _CurrMaxENFBAssociatedIDNum
 3119      00000000 
 3120 0609 0F849300 		je	L13
 3120      0000
 708:mtk_resgenerator.cpp ****     {
 709:mtk_resgenerator.cpp **** #if 0
 710:mtk_resgenerator.cpp **** /* under construction !*/
 711:mtk_resgenerator.cpp **** /* under construction !*/
 712:mtk_resgenerator.cpp **** /* under construction !*/
 713:mtk_resgenerator.cpp **** /* under construction !*/
 714:mtk_resgenerator.cpp **** /* under construction !*/
 715:mtk_resgenerator.cpp **** /* under construction !*/
 716:mtk_resgenerator.cpp **** /* under construction !*/
 717:mtk_resgenerator.cpp **** /* under construction !*/
 718:mtk_resgenerator.cpp **** #endif /* 0 */
 719:mtk_resgenerator.cpp ****         for (i = 1; i < (int)CurrMaxENFBAssociatedIDNum; i++)
 3122              	LM24:
 3123 060f C745F401 		movl	$1, -12(%ebp)
 3123      000000
 3124              	L14:
 3125 0616 0FB70500 		movzwl	_CurrMaxENFBAssociatedIDNum, %eax
 3125      000000
 3126 061d 3945F4   		cmpl	%eax, -12(%ebp)
 3127 0620 7C02     		jl	L17
 3128 0622 EB45     		jmp	L15
 3129              	L17:
 720:mtk_resgenerator.cpp ****         {
 721:mtk_resgenerator.cpp ****             enfb = (CUSTOM_ENFB_STR *)&ENFBAssociatedIDList[i];
 3131              	LM25:
 3132 0624 8B55F4   		movl	-12(%ebp), %edx
 3133 0627 89D0     		movl	%edx, %eax
 3134 0629 01C0     		addl	%eax, %eax
 3135 062b 01D0     		addl	%edx, %eax
 3136 062d 8D148500 		leal	0(,%eax,4), %edx
 3136      000000
 3137 0634 B8000000 		movl	$_ENFBAssociatedIDList, %eax
 3137      00
 3138 0639 01D0     		addl	%edx, %eax
 3139 063b 8945F8   		movl	%eax, -8(%ebp)
 722:mtk_resgenerator.cpp ****             fprintf(fp, "\t{%d, (U16 *)&Associated_IDs_%d},\n", enfb->count, i);
 3141              	LM26:
 3142 063e 8B45F4   		movl	-12(%ebp), %eax
 3143 0641 8944240C 		movl	%eax, 12(%esp)
 3144 0645 8B45F8   		movl	-8(%ebp), %eax
 3145 0648 0FB700   		movzwl	(%eax), %eax
 3146 064b 89442408 		movl	%eax, 8(%esp)
 3147 064f C7442404 		movl	$LC15, 4(%esp)
 3147      A0030000 
 3148 0657 8B45FC   		movl	-4(%ebp), %eax
 3149 065a 890424   		movl	%eax, (%esp)
 3150 065d E8000000 		call	_fprintf
 3150      00
 3152              	LM27:
GAS LISTING d:/github/AIOT_WORKSHOP/AIoT_MT2503AVE_SDK/11CW1418SP4_03_CORETEK03AE_11C_V1_GPRS_MMI/plutommi/Customer/ResGenerator/gcctmp/ccmAfaaa.s 			page 20


 3153 0662 8D45F4   		leal	-12(%ebp), %eax
 3154 0665 FF00     		incl	(%eax)
 3155 0667 EBAD     		jmp	L14
 3156              	L15:
 723:mtk_resgenerator.cpp ****         }
 724:mtk_resgenerator.cpp ****         fprintf(fp, "\t{%d, (U16 *)&Associated_IDs_%d}\n",
 3158              	LM28:
 3159 0669 0FB70500 		movzwl	_CurrMaxENFBAssociatedIDNum, %eax
 3159      000000
 3160 0670 8944240C 		movl	%eax, 12(%esp)
 3161 0674 0FB71500 		movzwl	_CurrMaxENFBAssociatedIDNum, %edx
 3161      000000
 3162 067b 89D0     		movl	%edx, %eax
 3163 067d 01C0     		addl	%eax, %eax
 3164 067f 01D0     		addl	%edx, %eax
 3165 0681 C1E002   		sall	$2, %eax
 3166 0684 0FB78000 		movzwl	_ENFBAssociatedIDList(%eax), %eax
 3166      000000
 3167 068b 89442408 		movl	%eax, 8(%esp)
 3168 068f C7442404 		movl	$LC16, 4(%esp)
 3168      E0030000 
 3169 0697 8B45FC   		movl	-4(%ebp), %eax
 3170 069a 890424   		movl	%eax, (%esp)
 3171 069d E8000000 		call	_fprintf
 3171      00
 3172              	L13:
 725:mtk_resgenerator.cpp ****             ENFBAssociatedIDList[CurrMaxENFBAssociatedIDNum].count,
 726:mtk_resgenerator.cpp ****             CurrMaxENFBAssociatedIDNum);
 727:mtk_resgenerator.cpp ****     }
 728:mtk_resgenerator.cpp ****     fprintf(fp, "};\n");
 3174              	LM29:
 3175 06a2 C7442404 		movl	$LC17, 4(%esp)
 3175      02040000 
 3176 06aa 8B45FC   		movl	-4(%ebp), %eax
 3177 06ad 890424   		movl	%eax, (%esp)
 3178 06b0 E8000000 		call	_fprintf
 3178      00
 729:mtk_resgenerator.cpp **** 
 730:mtk_resgenerator.cpp ****     /* free memory */
 731:mtk_resgenerator.cpp ****     for (i = 1; i <= (int)CurrMaxENFBAssociatedIDNum; i++)
 3180              	LM30:
 3181 06b5 C745F401 		movl	$1, -12(%ebp)
 3181      000000
 3182              	L18:
 3183 06bc 0FB70500 		movzwl	_CurrMaxENFBAssociatedIDNum, %eax
 3183      000000
 3184 06c3 3945F4   		cmpl	%eax, -12(%ebp)
 3185 06c6 7E02     		jle	L21
 3186 06c8 EB76     		jmp	L19
 3187              	L21:
 732:mtk_resgenerator.cpp ****     {
 733:mtk_resgenerator.cpp ****         enfb = (CUSTOM_ENFB_STR *)&ENFBAssociatedIDList[i];
 3189              	LM31:
 3190 06ca 8B55F4   		movl	-12(%ebp), %edx
 3191 06cd 89D0     		movl	%edx, %eax
 3192 06cf 01C0     		addl	%eax, %eax
 3193 06d1 01D0     		addl	%edx, %eax
GAS LISTING d:/github/AIOT_WORKSHOP/AIoT_MT2503AVE_SDK/11CW1418SP4_03_CORETEK03AE_11C_V1_GPRS_MMI/plutommi/Customer/ResGenerator/gcctmp/ccmAfaaa.s 			page 21


 3194 06d3 8D148500 		leal	0(,%eax,4), %edx
 3194      000000
 3195 06da B8000000 		movl	$_ENFBAssociatedIDList, %eax
 3195      00
 3196 06df 01D0     		addl	%edx, %eax
 3197 06e1 8945F8   		movl	%eax, -8(%ebp)
 734:mtk_resgenerator.cpp ****         free(enfb->IDs);
 3199              	LM32:
 3200 06e4 8B45F8   		movl	-8(%ebp), %eax
 3201 06e7 8B4004   		movl	4(%eax), %eax
 3202 06ea 890424   		movl	%eax, (%esp)
 3203 06ed E8000000 		call	_free
 3203      00
 735:mtk_resgenerator.cpp ****         for (j = 0; j < (int)enfb->count; j++)
 3205              	LM33:
 3206 06f2 C745F000 		movl	$0, -16(%ebp)
 3206      000000
 3207              	L22:
 3208 06f9 8B45F8   		movl	-8(%ebp), %eax
 3209 06fc 0FB700   		movzwl	(%eax), %eax
 3210 06ff 3945F0   		cmpl	%eax, -16(%ebp)
 3211 0702 7C02     		jl	L25
 3212 0704 EB22     		jmp	L23
 3213              	L25:
 736:mtk_resgenerator.cpp ****         {
 737:mtk_resgenerator.cpp ****             free(enfb->Ptr[j]);
 3215              	LM34:
 3216 0706 8B4DF8   		movl	-8(%ebp), %ecx
 3217 0709 8B45F0   		movl	-16(%ebp), %eax
 3218 070c 8D148500 		leal	0(,%eax,4), %edx
 3218      000000
 3219 0713 8B4108   		movl	8(%ecx), %eax
 3220 0716 8B0410   		movl	(%eax,%edx), %eax
 3221 0719 890424   		movl	%eax, (%esp)
 3222 071c E8000000 		call	_free
 3222      00
 3224              	LM35:
 3225 0721 8D45F0   		leal	-16(%ebp), %eax
 3226 0724 FF00     		incl	(%eax)
 3227 0726 EBD1     		jmp	L22
 3228              	L23:
 738:mtk_resgenerator.cpp ****         }
 739:mtk_resgenerator.cpp ****         free(enfb->Ptr);
 3230              	LM36:
 3231 0728 8B45F8   		movl	-8(%ebp), %eax
 3232 072b 8B4008   		movl	8(%eax), %eax
 3233 072e 890424   		movl	%eax, (%esp)
 3234 0731 E8000000 		call	_free
 3234      00
 3236              	LM37:
 3237 0736 8D45F4   		leal	-12(%ebp), %eax
 3238 0739 FF00     		incl	(%eax)
 3239 073b E97CFFFF 		jmp	L18
 3239      FF
 3240              	L19:
 740:mtk_resgenerator.cpp ****     }
 741:mtk_resgenerator.cpp **** 
GAS LISTING d:/github/AIOT_WORKSHOP/AIoT_MT2503AVE_SDK/11CW1418SP4_03_CORETEK03AE_11C_V1_GPRS_MMI/plutommi/Customer/ResGenerator/gcctmp/ccmAfaaa.s 			page 22


 742:mtk_resgenerator.cpp ****     fprintf(stderr, "Output CustENFBImgMap.c... done\n");
 3242              	LM38:
 3243 0740 C7442404 		movl	$LC18, 4(%esp)
 3243      20040000 
 3244 0748 A1000000 		movl	__imp___iob, %eax
 3244      00
 3245 074d 83C040   		addl	$64, %eax
 3246 0750 890424   		movl	%eax, (%esp)
 3247 0753 E8000000 		call	_fprintf
 3247      00
 743:mtk_resgenerator.cpp **** 
 744:mtk_resgenerator.cpp ****     fclose(fp);
 3249              	LM39:
 3250 0758 8B45FC   		movl	-4(%ebp), %eax
 3251 075b 890424   		movl	%eax, (%esp)
 3252 075e E8000000 		call	_fclose
 3252      00
 745:mtk_resgenerator.cpp ****     return MMI_TRUE;
 3254              	LM40:
 3255 0763 C745EC01 		movl	$1, -20(%ebp)
 3255      000000
 746:mtk_resgenerator.cpp **** }
 3257              	LM41:
 3258              	L1:
 3259              	LBE2:
 3260 076a 8B45EC   		movl	-20(%ebp), %eax
 3261 076d C9       		leave
 3262 076e C3       		ret
 3269              	Lscope0:
 3271              	LC19:
 3272 076f 5B556E7A 		.ascii "[UnzipImage] start\0"
 3272      6970496D 
 3272      6167655D 
 3272      20737461 
 3272      727400
 3273 0782 90909090 		.align 32
 3273      90909090 
 3273      90909090 
 3273      90909090 
 3273      90909090 
 3274              	LC20:
 3275 07a0 2E2E5C5C 		.ascii "..\\\\..\\\\Customer\\\\Images\\\\PLUTO128X32\0"
 3275      2E2E5C5C 
 3275      43757374 
 3275      6F6D6572 
 3275      5C5C496D 
 3276              	LC21:
 3277 07c6 25735C69 		.ascii "%s\\image.zip\0"
 3277      6D616765 
 3277      2E7A6970 
 3277      00
 3278 07d3 8DB60000 		.align 32
 3278      00008DBC 
 3278      27000000 
 3278      00
 3279              	LC22:
 3280 07e0 5B446570 		.ascii "[Dependency] plutommi\\Customer\\ResGenerator\\%s\12\0"
GAS LISTING d:/github/AIOT_WORKSHOP/AIoT_MT2503AVE_SDK/11CW1418SP4_03_CORETEK03AE_11C_V1_GPRS_MMI/plutommi/Customer/ResGenerator/gcctmp/ccmAfaaa.s 			page 23


 3280      656E6465 
 3280      6E63795D 
 3280      20706C75 
 3280      746F6D6D 
 3281 0810 90909090 		.align 32
 3281      90909090 
 3281      90909090 
 3281      90909090 
 3282              	LC23:
 3283 0820 4469646E 		.ascii "Didn't find MAINLCD's image.zip please check. ret=[%d] path=[%s]\0"
 3283      27742066 
 3283      696E6420 
 3283      4D41494E 
 3283      4C434427 
 3284              	LC24:
 3285 0861 25735C5C 		.ascii "%s\\\\image_zip_time_log\0"
 3285      696D6167 
 3285      655F7A69 
 3285      705F7469 
 3285      6D655F6C 
 3286              	LC25:
 3287 0878 726200   		.ascii "rb\0"
 3288              	LC26:
 3289 087b 43616E27 		.ascii "Can't read [%s][%d][%d]\0"
 3289      74207265 
 3289      6164205B 
 3289      25735D5B 
 3289      25645D5B 
 3290 0893 8DB60000 		.align 32
 3290      00008DBC 
 3290      27000000 
 3290      00
 3291              	LC27:
 3292 08a0 4D41494E 		.ascii "MAINLCD's image.zip is not changed, skip Unzip process...\0"
 3292      4C434427 
 3292      7320696D 
 3292      6167652E 
 3292      7A697020 
 3293 08da 8DB60000 		.align 32
 3293      0000
 3294              	LC28:
 3295 08e0 4D41494E 		.ascii "MAINLCD's image.zip is not changed, skip Unzip process...\12\0"
 3295      4C434427 
 3295      7320696D 
 3295      6167652E 
 3295      7A697020 
 3296              	LC29:
 3297 091b 776200   		.ascii "wb\0"
 3298              	LC30:
 3299 091e 5B25735D 		.ascii "[%s] could not open!\0"
 3299      20636F75 
 3299      6C64206E 
 3299      6F74206F 
 3299      70656E21 
 3300              	LC31:
 3301 0933 43616E27 		.ascii "Can't write [%s][%d][%d]\0"
 3301      74207772 
GAS LISTING d:/github/AIOT_WORKSHOP/AIoT_MT2503AVE_SDK/11CW1418SP4_03_CORETEK03AE_11C_V1_GPRS_MMI/plutommi/Customer/ResGenerator/gcctmp/ccmAfaaa.s 			page 24


 3301      69746520 
 3301      5B25735D 
 3301      5B25645D 
 3302 094c 90909090 		.align 32
 3302      90909090 
 3302      90909090 
 3302      90909090 
 3302      90909090 
 3303              	LC32:
 3304 0960 53746172 		.ascii "Start Unzip images ...output 3rd_tool.log\12\0"
 3304      7420556E 
 3304      7A697020 
 3304      696D6167 
 3304      6573202E 
 3305 098b 90909090 		.align 32
 3305      90909090 
 3305      90909090 
 3305      90909090 
 3305      90909090 
 3306              	LC33:
 3307 09a0 7264202F 		.ascii "rd /S/Q %s\\mainlcd\\ 2>> .\\debug\\3rd_tool.log\0"
 3307      532F5120 
 3307      25735C6D 
 3307      61696E6C 
 3307      63645C20 
 3308 09cd 90909090 		.align 32
 3308      90909090 
 3308      90909090 
 3308      90909090 
 3308      909090
 3309              	LC34:
 3310 09e0 7264202F 		.ascii "rd /S/Q .\\AutoAnalysis 2>> .\\debug\\3rd_tool.log\0"
 3310      532F5120 
 3310      2E5C4175 
 3310      746F416E 
 3310      616C7973 
 3311 0a10 90909090 		.align 32
 3311      90909090 
 3311      90909090 
 3311      90909090 
 3312              	LC35:
 3313 0a20 377A612E 		.ascii "7za.exe x -y %s\\image.zip -o%s\\ 2>> .\\debug\\3rd_tool.log\0"
 3313      65786520 
 3313      78202D79 
 3313      2025735C 
 3313      696D6167 
 3314              	LC36:
 3315 0a59 5B556E7A 		.ascii "[UnzipImage] end\0"
 3315      6970496D 
 3315      6167655D 
 3315      20656E64 
 3315      00
 3316              		.align 2
 3319              	__Z10UnzipImagev:
 747:mtk_resgenerator.cpp **** 
 748:mtk_resgenerator.cpp **** 
 749:mtk_resgenerator.cpp **** /*****************************************************************************
GAS LISTING d:/github/AIOT_WORKSHOP/AIoT_MT2503AVE_SDK/11CW1418SP4_03_CORETEK03AE_11C_V1_GPRS_MMI/plutommi/Customer/ResGenerator/gcctmp/ccmAfaaa.s 			page 25


 750:mtk_resgenerator.cpp **** * FUNCTION
 751:mtk_resgenerator.cpp **** *  UnzipImage
 752:mtk_resgenerator.cpp **** * DESCRIPTION
 753:mtk_resgenerator.cpp **** *  unzip image to the destination folder
 754:mtk_resgenerator.cpp **** * PARAMETERS
 755:mtk_resgenerator.cpp **** *  void
 756:mtk_resgenerator.cpp **** * RETURNS
 757:mtk_resgenerator.cpp **** *  void
 758:mtk_resgenerator.cpp **** *****************************************************************************/
 759:mtk_resgenerator.cpp **** static void UnzipImage(void)
 760:mtk_resgenerator.cpp **** {
 3321              	LM42:
 3322 0a6a 55       		pushl	%ebp
 3323 0a6b 89E5     		movl	%esp, %ebp
 3324 0a6d 81ECC803 		subl	$968, %esp
 3324      0000
 761:mtk_resgenerator.cpp ****     /*----------------------------------------------------------------*/
 762:mtk_resgenerator.cpp ****     /* Local Variables                                                */
 763:mtk_resgenerator.cpp ****     /*----------------------------------------------------------------*/
 764:mtk_resgenerator.cpp ****     char tempCommand[UNZIP_CMD_BUFLEN];
 765:mtk_resgenerator.cpp **** 
 766:mtk_resgenerator.cpp ****     WIN32_FIND_DATA file_data;
 767:mtk_resgenerator.cpp ****     WIN32_FIND_DATA folder_data;
 768:mtk_resgenerator.cpp ****     HANDLE search = NULL;
 3326              	LM43:
 3327              	LBB3:
 3328 0a73 C78574FC 		movl	$0, -908(%ebp)
 3328      FFFF0000 
 3328      0000
 769:mtk_resgenerator.cpp ****     BOOL is_need_unzip = TRUE;
 3330              	LM44:
 3331 0a7d C78570FC 		movl	$1, -912(%ebp)
 3331      FFFF0100 
 3331      0000
 770:mtk_resgenerator.cpp **** 
 771:mtk_resgenerator.cpp ****     FILE *zip_time_file = NULL;
 3333              	LM45:
 3334 0a87 C7856CFC 		movl	$0, -916(%ebp)
 3334      FFFF0000 
 3334      0000
 772:mtk_resgenerator.cpp ****     S32 wsize;
 773:mtk_resgenerator.cpp ****     FILETIME zip_time_prev;
 774:mtk_resgenerator.cpp **** 
 775:mtk_resgenerator.cpp ****     /*----------------------------------------------------------------*/
 776:mtk_resgenerator.cpp ****     /* Code Body                                                      */
 777:mtk_resgenerator.cpp ****     /*----------------------------------------------------------------*/
 778:mtk_resgenerator.cpp **** #ifndef __IOT_LOCK__
 779:mtk_resgenerator.cpp ****     RESGEN_LOG_V("[UnzipImage] start");
 3336              	LM46:
 3337 0a91 C7442408 		movl	$LC19, 8(%esp)
 3337      6F070000 
 3338 0a99 C7442404 		movl	$LC1, 4(%esp)
 3338      3E000000 
 3339 0aa1 C7042401 		movl	$1, (%esp)
 3339      000000
 3340 0aa8 E8000000 		call	_reslog_adaptor_log
 3340      00
GAS LISTING d:/github/AIOT_WORKSHOP/AIoT_MT2503AVE_SDK/11CW1418SP4_03_CORETEK03AE_11C_V1_GPRS_MMI/plutommi/Customer/ResGenerator/gcctmp/ccmAfaaa.s 			page 26


 780:mtk_resgenerator.cpp **** 
 781:mtk_resgenerator.cpp ****     sprintf(tempCommand, "%s\\image.zip", CUST_IMG_PATH_ROOT);
 3342              	LM47:
 3343 0aad C7442408 		movl	$LC20, 8(%esp)
 3343      A0070000 
 3344 0ab5 C7442404 		movl	$LC21, 4(%esp)
 3344      C6070000 
 3345 0abd 8D85F8FE 		leal	-264(%ebp), %eax
 3345      FFFF
 3346 0ac3 890424   		movl	%eax, (%esp)
 3347 0ac6 E8000000 		call	_sprintf
 3347      00
 782:mtk_resgenerator.cpp ****     RESGEN_LOG_V("[Dependency] plutommi\\Customer\\ResGenerator\\%s\n", tempCommand);
 3349              	LM48:
 3350 0acb 8D85F8FE 		leal	-264(%ebp), %eax
 3350      FFFF
 3351 0ad1 8944240C 		movl	%eax, 12(%esp)
 3352 0ad5 C7442408 		movl	$LC22, 8(%esp)
 3352      E0070000 
 3353 0add C7442404 		movl	$LC1, 4(%esp)
 3353      3E000000 
 3354 0ae5 C7042401 		movl	$1, (%esp)
 3354      000000
 3355 0aec E8000000 		call	_reslog_adaptor_log
 3355      00
 783:mtk_resgenerator.cpp ****     search = FindFirstFile(tempCommand, &file_data);
 3357              	LM49:
 3358 0af1 8D85B8FD 		leal	-584(%ebp), %eax
 3358      FFFF
 3359 0af7 89442404 		movl	%eax, 4(%esp)
 3360 0afb 8D85F8FE 		leal	-264(%ebp), %eax
 3360      FFFF
 3361 0b01 890424   		movl	%eax, (%esp)
 3362 0b04 E8000000 		call	_FindFirstFileA@8
 3362      00
 3363 0b09 83EC08   		subl	$8, %esp
 3364 0b0c 898574FC 		movl	%eax, -908(%ebp)
 3364      FFFF
 784:mtk_resgenerator.cpp ****     if (search == INVALID_HANDLE_VALUE)
 3366              	LM50:
 3367 0b12 83BD74FC 		cmpl	$-1, -908(%ebp)
 3367      FFFFFF
 3368 0b19 753D     		jne	L27
 785:mtk_resgenerator.cpp ****     {
 786:mtk_resgenerator.cpp ****         RESGEN_LOG_E("Didn't find MAINLCD's image.zip please check. ret=[%d] path=[%s]", GetLastErr
 3370              	LM51:
 3371 0b1b E8000000 		call	_GetLastError@0
 3371      00
 3372 0b20 89C2     		movl	%eax, %edx
 3373 0b22 8D85F8FE 		leal	-264(%ebp), %eax
 3373      FFFF
 3374 0b28 89442410 		movl	%eax, 16(%esp)
 3375 0b2c 8954240C 		movl	%edx, 12(%esp)
 3376 0b30 C7442408 		movl	$LC23, 8(%esp)
 3376      20080000 
 3377 0b38 C7442404 		movl	$LC1, 4(%esp)
 3377      3E000000 
GAS LISTING d:/github/AIOT_WORKSHOP/AIoT_MT2503AVE_SDK/11CW1418SP4_03_CORETEK03AE_11C_V1_GPRS_MMI/plutommi/Customer/ResGenerator/gcctmp/ccmAfaaa.s 			page 27


 3378 0b40 C7042403 		movl	$3, (%esp)
 3378      000000
 3379 0b47 E8000000 		call	_reslog_adaptor_log
 3379      00
 787:mtk_resgenerator.cpp ****         exit(2);
 3381              	LM52:
 3382 0b4c C7042402 		movl	$2, (%esp)
 3382      000000
 3383 0b53 E8000000 		call	_exit
 3383      00
 3384              	L27:
 788:mtk_resgenerator.cpp ****     }
 789:mtk_resgenerator.cpp ****     FindClose(search);
 3386              	LM53:
 3387 0b58 8B8574FC 		movl	-908(%ebp), %eax
 3387      FFFF
 3388 0b5e 890424   		movl	%eax, (%esp)
 3389 0b61 E8000000 		call	_FindClose@4
 3389      00
 3390 0b66 83EC04   		subl	$4, %esp
 790:mtk_resgenerator.cpp **** 
 791:mtk_resgenerator.cpp ****     sprintf(tempCommand, "%s\\\\image_zip_time_log", CUST_IMG_PATH_ROOT);
 3392              	LM54:
 3393 0b69 C7442408 		movl	$LC20, 8(%esp)
 3393      A0070000 
 3394 0b71 C7442404 		movl	$LC24, 4(%esp)
 3394      61080000 
 3395 0b79 8D85F8FE 		leal	-264(%ebp), %eax
 3395      FFFF
 3396 0b7f 890424   		movl	%eax, (%esp)
 3397 0b82 E8000000 		call	_sprintf
 3397      00
 792:mtk_resgenerator.cpp ****     zip_time_file = fopen(tempCommand, "rb");
 3399              	LM55:
 3400 0b87 C7442404 		movl	$LC25, 4(%esp)
 3400      78080000 
 3401 0b8f 8D85F8FE 		leal	-264(%ebp), %eax
 3401      FFFF
 3402 0b95 890424   		movl	%eax, (%esp)
 3403 0b98 E8000000 		call	_fopen
 3403      00
 3404 0b9d 89856CFC 		movl	%eax, -916(%ebp)
 3404      FFFF
 793:mtk_resgenerator.cpp ****     if (zip_time_file != NULL)
 3406              	LM56:
 3407 0ba3 83BD6CFC 		cmpl	$0, -916(%ebp)
 3407      FFFF00
 3408 0baa 0F84E900 		je	L28
 3408      0000
 794:mtk_resgenerator.cpp ****     {
 795:mtk_resgenerator.cpp ****         wsize = fread(&(zip_time_prev), sizeof(zip_time_prev), 1, zip_time_file);
 3410              	LM57:
 3411 0bb0 8B856CFC 		movl	-916(%ebp), %eax
 3411      FFFF
 3412 0bb6 8944240C 		movl	%eax, 12(%esp)
 3413 0bba C7442408 		movl	$1, 8(%esp)
 3413      01000000 
GAS LISTING d:/github/AIOT_WORKSHOP/AIoT_MT2503AVE_SDK/11CW1418SP4_03_CORETEK03AE_11C_V1_GPRS_MMI/plutommi/Customer/ResGenerator/gcctmp/ccmAfaaa.s 			page 28


 3414 0bc2 C7442404 		movl	$8, 4(%esp)
 3414      08000000 
 3415 0bca 8D8560FC 		leal	-928(%ebp), %eax
 3415      FFFF
 3416 0bd0 890424   		movl	%eax, (%esp)
 3417 0bd3 E8000000 		call	_fread
 3417      00
 3418 0bd8 898568FC 		movl	%eax, -920(%ebp)
 3418      FFFF
 796:mtk_resgenerator.cpp ****         fclose(zip_time_file);
 3420              	LM58:
 3421 0bde 8B856CFC 		movl	-916(%ebp), %eax
 3421      FFFF
 3422 0be4 890424   		movl	%eax, (%esp)
 3423 0be7 E8000000 		call	_fclose
 3423      00
 797:mtk_resgenerator.cpp ****         if (wsize != 1)
 3425              	LM59:
 3426 0bec 83BD68FC 		cmpl	$1, -920(%ebp)
 3426      FFFF01
 3427 0bf3 7444     		je	L29
 798:mtk_resgenerator.cpp ****         {
 799:mtk_resgenerator.cpp ****             RESGEN_LOG_E("Can't read [%s][%d][%d]", tempCommand, wsize, sizeof(file_data.ftLastWrit
 3429              	LM60:
 3430 0bf5 C7442414 		movl	$8, 20(%esp)
 3430      08000000 
 3431 0bfd 8B8568FC 		movl	-920(%ebp), %eax
 3431      FFFF
 3432 0c03 89442410 		movl	%eax, 16(%esp)
 3433 0c07 8D85F8FE 		leal	-264(%ebp), %eax
 3433      FFFF
 3434 0c0d 8944240C 		movl	%eax, 12(%esp)
 3435 0c11 C7442408 		movl	$LC26, 8(%esp)
 3435      7B080000 
 3436 0c19 C7442404 		movl	$LC1, 4(%esp)
 3436      3E000000 
 3437 0c21 C7042403 		movl	$3, (%esp)
 3437      000000
 3438 0c28 E8000000 		call	_reslog_adaptor_log
 3438      00
 800:mtk_resgenerator.cpp ****             exit(2);
 3440              	LM61:
 3441 0c2d C7042402 		movl	$2, (%esp)
 3441      000000
 3442 0c34 E8000000 		call	_exit
 3442      00
 3443              	L29:
 801:mtk_resgenerator.cpp ****         }
 802:mtk_resgenerator.cpp **** 
 803:mtk_resgenerator.cpp ****         if (CompareFileTime(&(file_data.ftLastWriteTime), &(zip_time_prev)) == 0)
 3445              	LM62:
 3446 0c39 8D8560FC 		leal	-928(%ebp), %eax
 3446      FFFF
 3447 0c3f 89442404 		movl	%eax, 4(%esp)
 3448 0c43 8D85B8FD 		leal	-584(%ebp), %eax
 3448      FFFF
 3449 0c49 83C014   		addl	$20, %eax
GAS LISTING d:/github/AIOT_WORKSHOP/AIoT_MT2503AVE_SDK/11CW1418SP4_03_CORETEK03AE_11C_V1_GPRS_MMI/plutommi/Customer/ResGenerator/gcctmp/ccmAfaaa.s 			page 29


 3450 0c4c 890424   		movl	%eax, (%esp)
 3451 0c4f E8000000 		call	_CompareFileTime@8
 3451      00
 3452 0c54 83EC08   		subl	$8, %esp
 3453 0c57 85C0     		testl	%eax, %eax
 3454 0c59 753E     		jne	L28
 804:mtk_resgenerator.cpp ****         {
 805:mtk_resgenerator.cpp ****             is_need_unzip = FALSE;
 3456              	LM63:
 3457 0c5b C78570FC 		movl	$0, -912(%ebp)
 3457      FFFF0000 
 3457      0000
 806:mtk_resgenerator.cpp ****             RESGEN_LOG_V("MAINLCD's image.zip is not changed, skip Unzip process...");
 3459              	LM64:
 3460 0c65 C7442408 		movl	$LC27, 8(%esp)
 3460      A0080000 
 3461 0c6d C7442404 		movl	$LC1, 4(%esp)
 3461      3E000000 
 3462 0c75 C7042401 		movl	$1, (%esp)
 3462      000000
 3463 0c7c E8000000 		call	_reslog_adaptor_log
 3463      00
 807:mtk_resgenerator.cpp ****             fprintf(stderr, "MAINLCD's image.zip is not changed, skip Unzip process...\n");
 3465              	LM65:
 3466 0c81 C7442404 		movl	$LC28, 4(%esp)
 3466      E0080000 
 3467 0c89 A1000000 		movl	__imp___iob, %eax
 3467      00
 3468 0c8e 83C040   		addl	$64, %eax
 3469 0c91 890424   		movl	%eax, (%esp)
 3470 0c94 E8000000 		call	_fprintf
 3470      00
 3471              	L28:
 808:mtk_resgenerator.cpp ****         }
 809:mtk_resgenerator.cpp ****     }
 810:mtk_resgenerator.cpp **** 
 811:mtk_resgenerator.cpp ****     zip_time_file = fopen(tempCommand, "wb");
 3473              	LM66:
 3474 0c99 C7442404 		movl	$LC29, 4(%esp)
 3474      1B090000 
 3475 0ca1 8D85F8FE 		leal	-264(%ebp), %eax
 3475      FFFF
 3476 0ca7 890424   		movl	%eax, (%esp)
 3477 0caa E8000000 		call	_fopen
 3477      00
 3478 0caf 89856CFC 		movl	%eax, -916(%ebp)
 3478      FFFF
 812:mtk_resgenerator.cpp ****     if (zip_time_file == NULL)
 3480              	LM67:
 3481 0cb5 83BD6CFC 		cmpl	$0, -916(%ebp)
 3481      FFFF00
 3482 0cbc 7532     		jne	L31
 813:mtk_resgenerator.cpp ****     {
 814:mtk_resgenerator.cpp ****         RESGEN_LOG_E("[%s] could not open!", tempCommand);
 3484              	LM68:
 3485 0cbe 8D85F8FE 		leal	-264(%ebp), %eax
 3485      FFFF
GAS LISTING d:/github/AIOT_WORKSHOP/AIoT_MT2503AVE_SDK/11CW1418SP4_03_CORETEK03AE_11C_V1_GPRS_MMI/plutommi/Customer/ResGenerator/gcctmp/ccmAfaaa.s 			page 30


 3486 0cc4 8944240C 		movl	%eax, 12(%esp)
 3487 0cc8 C7442408 		movl	$LC30, 8(%esp)
 3487      1E090000 
 3488 0cd0 C7442404 		movl	$LC1, 4(%esp)
 3488      3E000000 
 3489 0cd8 C7042403 		movl	$3, (%esp)
 3489      000000
 3490 0cdf E8000000 		call	_reslog_adaptor_log
 3490      00
 815:mtk_resgenerator.cpp ****         exit(2);
 3492              	LM69:
 3493 0ce4 C7042402 		movl	$2, (%esp)
 3493      000000
 3494 0ceb E8000000 		call	_exit
 3494      00
 3495              	L31:
 816:mtk_resgenerator.cpp ****     }
 817:mtk_resgenerator.cpp **** 
 818:mtk_resgenerator.cpp ****     wsize = fwrite(&(file_data.ftLastWriteTime), sizeof(file_data.ftLastWriteTime), 1, zip_time_fil
 3497              	LM70:
 3498 0cf0 8B856CFC 		movl	-916(%ebp), %eax
 3498      FFFF
 3499 0cf6 8944240C 		movl	%eax, 12(%esp)
 3500 0cfa C7442408 		movl	$1, 8(%esp)
 3500      01000000 
 3501 0d02 C7442404 		movl	$8, 4(%esp)
 3501      08000000 
 3502 0d0a 8D85B8FD 		leal	-584(%ebp), %eax
 3502      FFFF
 3503 0d10 83C014   		addl	$20, %eax
 3504 0d13 890424   		movl	%eax, (%esp)
 3505 0d16 E8000000 		call	_fwrite
 3505      00
 3506 0d1b 898568FC 		movl	%eax, -920(%ebp)
 3506      FFFF
 819:mtk_resgenerator.cpp ****     fclose(zip_time_file);
 3508              	LM71:
 3509 0d21 8B856CFC 		movl	-916(%ebp), %eax
 3509      FFFF
 3510 0d27 890424   		movl	%eax, (%esp)
 3511 0d2a E8000000 		call	_fclose
 3511      00
 820:mtk_resgenerator.cpp ****     if (wsize != 1)
 3513              	LM72:
 3514 0d2f 83BD68FC 		cmpl	$1, -920(%ebp)
 3514      FFFF01
 3515 0d36 7444     		je	L32
 821:mtk_resgenerator.cpp ****     {
 822:mtk_resgenerator.cpp ****         RESGEN_LOG_E("Can't write [%s][%d][%d]", tempCommand, wsize, sizeof(file_data.ftLastWriteTi
 3517              	LM73:
 3518 0d38 C7442414 		movl	$8, 20(%esp)
 3518      08000000 
 3519 0d40 8B8568FC 		movl	-920(%ebp), %eax
 3519      FFFF
 3520 0d46 89442410 		movl	%eax, 16(%esp)
 3521 0d4a 8D85F8FE 		leal	-264(%ebp), %eax
 3521      FFFF
GAS LISTING d:/github/AIOT_WORKSHOP/AIoT_MT2503AVE_SDK/11CW1418SP4_03_CORETEK03AE_11C_V1_GPRS_MMI/plutommi/Customer/ResGenerator/gcctmp/ccmAfaaa.s 			page 31


 3522 0d50 8944240C 		movl	%eax, 12(%esp)
 3523 0d54 C7442408 		movl	$LC31, 8(%esp)
 3523      33090000 
 3524 0d5c C7442404 		movl	$LC1, 4(%esp)
 3524      3E000000 
 3525 0d64 C7042403 		movl	$3, (%esp)
 3525      000000
 3526 0d6b E8000000 		call	_reslog_adaptor_log
 3526      00
 823:mtk_resgenerator.cpp ****         exit(2);
 3528              	LM74:
 3529 0d70 C7042402 		movl	$2, (%esp)
 3529      000000
 3530 0d77 E8000000 		call	_exit
 3530      00
 3531              	L32:
 824:mtk_resgenerator.cpp ****     }
 825:mtk_resgenerator.cpp **** 
 826:mtk_resgenerator.cpp **** 
 827:mtk_resgenerator.cpp ****     if (is_need_unzip || g_is_clean)
 3533              	LM75:
 3534 0d7c 83BD70FC 		cmpl	$0, -912(%ebp)
 3534      FFFF00
 3535 0d83 750E     		jne	L34
 3536 0d85 833D0000 		cmpl	$0, _g_is_clean
 3536      000000
 3537 0d8c 7505     		jne	L34
 3538 0d8e E99C0000 		jmp	L33
 3538      00
 3539              	L34:
 828:mtk_resgenerator.cpp ****     {
 829:mtk_resgenerator.cpp ****         fprintf(stderr, "Start Unzip images ...output 3rd_tool.log\n");
 3541              	LM76:
 3542 0d93 C7442404 		movl	$LC32, 4(%esp)
 3542      60090000 
 3543 0d9b A1000000 		movl	__imp___iob, %eax
 3543      00
 3544 0da0 83C040   		addl	$64, %eax
 3545 0da3 890424   		movl	%eax, (%esp)
 3546 0da6 E8000000 		call	_fprintf
 3546      00
 830:mtk_resgenerator.cpp **** 
 831:mtk_resgenerator.cpp ****         sprintf(tempCommand,"rd /S/Q %s\\mainlcd\\ 2>> .\\debug\\3rd_tool.log", CUST_IMG_PATH_ROOT)
 3548              	LM77:
 3549 0dab C7442408 		movl	$LC20, 8(%esp)
 3549      A0070000 
 3550 0db3 C7442404 		movl	$LC33, 4(%esp)
 3550      A0090000 
 3551 0dbb 8D85F8FE 		leal	-264(%ebp), %eax
 3551      FFFF
 3552 0dc1 890424   		movl	%eax, (%esp)
 3553 0dc4 E8000000 		call	_sprintf
 3553      00
 832:mtk_resgenerator.cpp ****         execute_ext_command(tempCommand);
 3555              	LM78:
 3556 0dc9 8D85F8FE 		leal	-264(%ebp), %eax
 3556      FFFF
GAS LISTING d:/github/AIOT_WORKSHOP/AIoT_MT2503AVE_SDK/11CW1418SP4_03_CORETEK03AE_11C_V1_GPRS_MMI/plutommi/Customer/ResGenerator/gcctmp/ccmAfaaa.s 			page 32


 3557 0dcf 890424   		movl	%eax, (%esp)
 3558 0dd2 E8000000 		call	_execute_ext_command
 3558      00
 833:mtk_resgenerator.cpp **** 
 834:mtk_resgenerator.cpp ****         sprintf(tempCommand,"rd /S/Q .\\AutoAnalysis 2>> .\\debug\\3rd_tool.log");
 3560              	LM79:
 3561 0dd7 C7442404 		movl	$LC34, 4(%esp)
 3561      E0090000 
 3562 0ddf 8D85F8FE 		leal	-264(%ebp), %eax
 3562      FFFF
 3563 0de5 890424   		movl	%eax, (%esp)
 3564 0de8 E8000000 		call	_sprintf
 3564      00
 835:mtk_resgenerator.cpp ****         execute_ext_command(tempCommand);
 3566              	LM80:
 3567 0ded 8D85F8FE 		leal	-264(%ebp), %eax
 3567      FFFF
 3568 0df3 890424   		movl	%eax, (%esp)
 3569 0df6 E8000000 		call	_execute_ext_command
 3569      00
 836:mtk_resgenerator.cpp **** 
 837:mtk_resgenerator.cpp ****         sprintf(tempCommand, "7za.exe x -y %s\\image.zip -o%s\\ 2>> .\\debug\\3rd_tool.log", CUST_I
 3571              	LM81:
 3572 0dfb C744240C 		movl	$LC20, 12(%esp)
 3572      A0070000 
 3573 0e03 C7442408 		movl	$LC20, 8(%esp)
 3573      A0070000 
 3574 0e0b C7442404 		movl	$LC35, 4(%esp)
 3574      200A0000 
 3575 0e13 8D85F8FE 		leal	-264(%ebp), %eax
 3575      FFFF
 3576 0e19 890424   		movl	%eax, (%esp)
 3577 0e1c E8000000 		call	_sprintf
 3577      00
 838:mtk_resgenerator.cpp ****         execute_ext_command(tempCommand);
 3579              	LM82:
 3580 0e21 8D85F8FE 		leal	-264(%ebp), %eax
 3580      FFFF
 3581 0e27 890424   		movl	%eax, (%esp)
 3582 0e2a E8000000 		call	_execute_ext_command
 3582      00
 3583              	L33:
 839:mtk_resgenerator.cpp ****     }
 840:mtk_resgenerator.cpp **** 
 841:mtk_resgenerator.cpp **** #ifndef __OPTR_NONE__
 842:mtk_resgenerator.cpp ****     sprintf(tempCommand, "7za.exe x -y %s\\operator_image.zip -o%s\\ 2>> .\\debug\\3rd_tool.log", C
 843:mtk_resgenerator.cpp ****     RESGEN_LOG_V("[Dependency] plutommi\\Customer\\ResGenerator\\%s\\operator_image.zip\n", CUST_OP
 844:mtk_resgenerator.cpp ****     execute_ext_command(tempCommand);
 845:mtk_resgenerator.cpp **** #endif /* __OPTR_NONE__ */
 846:mtk_resgenerator.cpp **** 
 847:mtk_resgenerator.cpp **** 
 848:mtk_resgenerator.cpp **** 
 849:mtk_resgenerator.cpp **** #if defined(CUST_SUBLCD_PATH)
 850:mtk_resgenerator.cpp **** 
 851:mtk_resgenerator.cpp ****     sprintf(tempCommand, "%s\\image.zip", CUST_SUBLCD_PATH);
 852:mtk_resgenerator.cpp ****     RESGEN_LOG_V("[Dependency] plutommi\\Customer\\ResGenerator\\%s\n", tempCommand);
 853:mtk_resgenerator.cpp ****     search = FindFirstFile(tempCommand, &file_data);
GAS LISTING d:/github/AIOT_WORKSHOP/AIoT_MT2503AVE_SDK/11CW1418SP4_03_CORETEK03AE_11C_V1_GPRS_MMI/plutommi/Customer/ResGenerator/gcctmp/ccmAfaaa.s 			page 33


 854:mtk_resgenerator.cpp ****     if (search == INVALID_HANDLE_VALUE)
 855:mtk_resgenerator.cpp ****     {
 856:mtk_resgenerator.cpp ****         RESGEN_LOG_E("Didn't find SUBLCD's image.zip please check. ret=[%d]", GetLastError());
 857:mtk_resgenerator.cpp ****         exit(2);
 858:mtk_resgenerator.cpp ****     }
 859:mtk_resgenerator.cpp ****     FindClose(search);
 860:mtk_resgenerator.cpp **** 
 861:mtk_resgenerator.cpp ****     sprintf(tempCommand, "%s\\\\image_sub_zip_time_log", CUST_IMG_PATH_ROOT);
 862:mtk_resgenerator.cpp ****     zip_time_file = fopen(tempCommand, "rb");
 863:mtk_resgenerator.cpp ****     if (zip_time_file != NULL)
 864:mtk_resgenerator.cpp ****     {
 865:mtk_resgenerator.cpp ****         wsize = fread(&(zip_time_prev), sizeof(zip_time_prev), 1, zip_time_file);
 866:mtk_resgenerator.cpp ****         fclose(zip_time_file);
 867:mtk_resgenerator.cpp ****         if (wsize != 1)
 868:mtk_resgenerator.cpp ****         {
 869:mtk_resgenerator.cpp ****             RESGEN_LOG_E("Can't read [%s][%d][%d]", tempCommand, wsize, sizeof(file_data.ftLastWrit
 870:mtk_resgenerator.cpp ****             exit(2);
 871:mtk_resgenerator.cpp ****         }
 872:mtk_resgenerator.cpp **** 
 873:mtk_resgenerator.cpp ****         if (CompareFileTime(&(file_data.ftLastWriteTime), &(zip_time_prev)) == 0)
 874:mtk_resgenerator.cpp ****         {
 875:mtk_resgenerator.cpp ****             is_need_unzip = FALSE;
 876:mtk_resgenerator.cpp ****             fprintf(stderr, "SUBLCD's image.zip is not changed, skip Unzip process...\n");
 877:mtk_resgenerator.cpp ****         }
 878:mtk_resgenerator.cpp ****     }
 879:mtk_resgenerator.cpp **** 
 880:mtk_resgenerator.cpp ****     zip_time_file = fopen(tempCommand, "wb");
 881:mtk_resgenerator.cpp ****     if (zip_time_file == NULL)
 882:mtk_resgenerator.cpp ****     {
 883:mtk_resgenerator.cpp ****         RESGEN_LOG_E("[%s] could not open!", tempCommand);
 884:mtk_resgenerator.cpp ****         exit(2);
 885:mtk_resgenerator.cpp ****     }
 886:mtk_resgenerator.cpp **** 
 887:mtk_resgenerator.cpp ****     wsize = fwrite(&(file_data.ftLastWriteTime), sizeof(file_data.ftLastWriteTime), 1, zip_time_fil
 888:mtk_resgenerator.cpp ****     fclose(zip_time_file);
 889:mtk_resgenerator.cpp ****     if (wsize != 1)
 890:mtk_resgenerator.cpp ****     {
 891:mtk_resgenerator.cpp ****         RESGEN_LOG_E("Can't write [%s][%d][%d]", tempCommand, wsize, sizeof(file_data.ftLastWriteTi
 892:mtk_resgenerator.cpp ****         exit(2);
 893:mtk_resgenerator.cpp ****     }
 894:mtk_resgenerator.cpp **** 
 895:mtk_resgenerator.cpp **** 
 896:mtk_resgenerator.cpp ****     if (is_need_unzip || g_is_clean)
 897:mtk_resgenerator.cpp ****     {
 898:mtk_resgenerator.cpp ****         fprintf(stderr, "Start Unzip SUBLCD images ...output 3rd_tool.log\n");
 899:mtk_resgenerator.cpp **** 
 900:mtk_resgenerator.cpp ****         sprintf(tempCommand,"rd /S/Q %s\\sublcd\\ 2>> .\\debug\\3rd_tool.log", CUST_IMG_PATH_ROOT);
 901:mtk_resgenerator.cpp ****         execute_ext_command(tempCommand);
 902:mtk_resgenerator.cpp **** 
 903:mtk_resgenerator.cpp ****         sprintf(tempCommand, "7za.exe x -y %s\\image.zip -o%s\\ 2>> .\\debug\\3rd_tool.log", CUST_S
 904:mtk_resgenerator.cpp ****         execute_ext_command(tempCommand);
 905:mtk_resgenerator.cpp ****     }
 906:mtk_resgenerator.cpp **** 
 907:mtk_resgenerator.cpp **** #ifndef __OPTR_NONE__
 908:mtk_resgenerator.cpp ****     sprintf(tempCommand, "7za.exe x -y %s\\operator_image.zip -o%s\\ 2>> .\\debug\\3rd_tool.log", C
 909:mtk_resgenerator.cpp ****     RESGEN_LOG_V("[Dependency] plutommi\\Customer\\ResGenerator\\%s\\operator_image.zip\n", CUST_OP
 910:mtk_resgenerator.cpp ****     execute_ext_command(tempCommand);
GAS LISTING d:/github/AIOT_WORKSHOP/AIoT_MT2503AVE_SDK/11CW1418SP4_03_CORETEK03AE_11C_V1_GPRS_MMI/plutommi/Customer/ResGenerator/gcctmp/ccmAfaaa.s 			page 34


 911:mtk_resgenerator.cpp **** #endif /* __OPTR_NONE__ */
 912:mtk_resgenerator.cpp **** 
 913:mtk_resgenerator.cpp **** #endif /* defined (CUST_SUBLCD_PATH) */
 914:mtk_resgenerator.cpp **** 
 915:mtk_resgenerator.cpp ****     RESGEN_LOG_V("[UnzipImage] end");
 3585              	LM83:
 3586 0e2f C7442408 		movl	$LC36, 8(%esp)
 3586      590A0000 
 3587 0e37 C7442404 		movl	$LC1, 4(%esp)
 3587      3E000000 
 3588 0e3f C7042401 		movl	$1, (%esp)
 3588      000000
 3589 0e46 E8000000 		call	_reslog_adaptor_log
 3589      00
 916:mtk_resgenerator.cpp **** #endif /* __OPTR_NONE__ */
 917:mtk_resgenerator.cpp **** }
 3591              	LM84:
 3592 0e4b C9       		leave
 3593 0e4c C3       		ret
 3594              	LBE3:
 3605              	Lscope1:
 3607              	LC37:
 3608 0e4d 5B556E7A 		.ascii "[UnzipAudio] start\0"
 3608      69704175 
 3608      64696F5D 
 3608      20737461 
 3608      727400
 3609              		.align 32
 3610              	LC38:
 3611 0e60 2E2E5C5C 		.ascii "..\\\\..\\\\Customer\\\\AUDIO\\\\PLUTO\0"
 3611      2E2E5C5C 
 3611      43757374 
 3611      6F6D6572 
 3611      5C5C4155 
 3612              	LC39:
 3613 0e7f 25735C61 		.ascii "%s\\audio.zip\0"
 3613      7564696F 
 3613      2E7A6970 
 3613      00
 3614 0e8c 90909090 		.align 32
 3614      90909090 
 3614      90909090 
 3614      90909090 
 3614      90909090 
 3615              	LC40:
 3616 0ea0 4469646E 		.ascii "Didn't find audio.zip please check. ret=[%d] path=[%s]\0"
 3616      27742066 
 3616      696E6420 
 3616      61756469 
 3616      6F2E7A69 
 3617              	LC41:
 3618 0ed7 25735C5C 		.ascii "%s\\\\audio_time_log\0"
 3618      61756469 
 3618      6F5F7469 
 3618      6D655F6C 
 3618      6F6700
 3619 0eea 90909090 		.align 32
GAS LISTING d:/github/AIOT_WORKSHOP/AIoT_MT2503AVE_SDK/11CW1418SP4_03_CORETEK03AE_11C_V1_GPRS_MMI/plutommi/Customer/ResGenerator/gcctmp/ccmAfaaa.s 			page 35


 3619      90909090 
 3619      90909090 
 3619      90909090 
 3619      90909090 
 3620              	LC42:
 3621 0f00 41554449 		.ascii "AUDIO's audio.zip is not changed, skip Unzip process...\0"
 3621      4F277320 
 3621      61756469 
 3621      6F2E7A69 
 3621      70206973 
 3622 0f38 908DB426 		.align 32
 3622      00000000 
 3623              	LC43:
 3624 0f40 41554449 		.ascii "AUDIO's audio.zip is not changed, skip Unzip process...\12\0"
 3624      4F277320 
 3624      61756469 
 3624      6F2E7A69 
 3624      70206973 
 3625 0f79 8DB42600 		.align 32
 3625      000000
 3626              	LC44:
 3627 0f80 53746172 		.ascii "Start Unzip audios ...output 3rd_tool.log\12\0"
 3627      7420556E 
 3627      7A697020 
 3627      61756469 
 3627      6F73202E 
 3628 0fab 90909090 		.align 32
 3628      90909090 
 3628      90909090 
 3628      90909090 
 3628      90909090 
 3629              	LC45:
 3630 0fc0 377A612E 		.ascii "7za.exe x -y %s\\audio.zip -o%s\\ 2>> .\\debug\\3rd_tool.log\0"
 3630      65786520 
 3630      78202D79 
 3630      2025735C 
 3630      61756469 
 3631              	LC46:
 3632 0ff9 5B556E7A 		.ascii "[UnzipAudio] end\0"
 3632      69704175 
 3632      64696F5D 
 3632      20656E64 
 3632      00
 3633              		.align 2
 3636              	__Z10UnzipAudiov:
 918:mtk_resgenerator.cpp **** 
 919:mtk_resgenerator.cpp **** 
 920:mtk_resgenerator.cpp **** /*****************************************************************************
 921:mtk_resgenerator.cpp **** * FUNCTION
 922:mtk_resgenerator.cpp **** *  UnzipAudio
 923:mtk_resgenerator.cpp **** * DESCRIPTION
 924:mtk_resgenerator.cpp **** *  unzip audio to the destination folder
 925:mtk_resgenerator.cpp **** * PARAMETERS
 926:mtk_resgenerator.cpp **** *  void
 927:mtk_resgenerator.cpp **** * RETURNS
 928:mtk_resgenerator.cpp **** *  void
 929:mtk_resgenerator.cpp **** *****************************************************************************/
GAS LISTING d:/github/AIOT_WORKSHOP/AIoT_MT2503AVE_SDK/11CW1418SP4_03_CORETEK03AE_11C_V1_GPRS_MMI/plutommi/Customer/ResGenerator/gcctmp/ccmAfaaa.s 			page 36


 930:mtk_resgenerator.cpp **** static void UnzipAudio(void)
 931:mtk_resgenerator.cpp **** {
 3638              	LM85:
 3639 100a 55       		pushl	%ebp
 3640 100b 89E5     		movl	%esp, %ebp
 3641 100d 81ECC803 		subl	$968, %esp
 3641      0000
 932:mtk_resgenerator.cpp ****     /*----------------------------------------------------------------*/
 933:mtk_resgenerator.cpp ****     /* Local Variables                                                */
 934:mtk_resgenerator.cpp ****     /*----------------------------------------------------------------*/
 935:mtk_resgenerator.cpp ****     char tempCommand[UNZIP_CMD_BUFLEN];
 936:mtk_resgenerator.cpp **** 
 937:mtk_resgenerator.cpp ****     WIN32_FIND_DATA file_data;
 938:mtk_resgenerator.cpp ****     WIN32_FIND_DATA folder_data;
 939:mtk_resgenerator.cpp ****     HANDLE search = NULL;
 3643              	LM86:
 3644              	LBB4:
 3645 1013 C78574FC 		movl	$0, -908(%ebp)
 3645      FFFF0000 
 3645      0000
 940:mtk_resgenerator.cpp ****     BOOL is_need_unzip = TRUE;
 3647              	LM87:
 3648 101d C78570FC 		movl	$1, -912(%ebp)
 3648      FFFF0100 
 3648      0000
 941:mtk_resgenerator.cpp **** 
 942:mtk_resgenerator.cpp ****     FILE *zip_time_file = NULL;
 3650              	LM88:
 3651 1027 C7856CFC 		movl	$0, -916(%ebp)
 3651      FFFF0000 
 3651      0000
 943:mtk_resgenerator.cpp ****     S32 wsize;
 944:mtk_resgenerator.cpp ****     FILETIME zip_time_prev;
 945:mtk_resgenerator.cpp ****     /*----------------------------------------------------------------*/
 946:mtk_resgenerator.cpp ****     /* Code Body                                                      */
 947:mtk_resgenerator.cpp ****     /*----------------------------------------------------------------*/
 948:mtk_resgenerator.cpp ****     RESGEN_LOG_V("[UnzipAudio] start");
 3653              	LM89:
 3654 1031 C7442408 		movl	$LC37, 8(%esp)
 3654      4D0E0000 
 3655 1039 C7442404 		movl	$LC1, 4(%esp)
 3655      3E000000 
 3656 1041 C7042401 		movl	$1, (%esp)
 3656      000000
 3657 1048 E8000000 		call	_reslog_adaptor_log
 3657      00
 949:mtk_resgenerator.cpp ****     sprintf(tempCommand, "%s\\audio.zip", CUST_ADO_PATH);
 3659              	LM90:
 3660 104d C7442408 		movl	$LC38, 8(%esp)
 3660      600E0000 
 3661 1055 C7442404 		movl	$LC39, 4(%esp)
 3661      7F0E0000 
 3662 105d 8D85F8FE 		leal	-264(%ebp), %eax
 3662      FFFF
 3663 1063 890424   		movl	%eax, (%esp)
 3664 1066 E8000000 		call	_sprintf
 3664      00
GAS LISTING d:/github/AIOT_WORKSHOP/AIoT_MT2503AVE_SDK/11CW1418SP4_03_CORETEK03AE_11C_V1_GPRS_MMI/plutommi/Customer/ResGenerator/gcctmp/ccmAfaaa.s 			page 37


 950:mtk_resgenerator.cpp ****     RESGEN_LOG_V("[Dependency] plutommi\\Customer\\ResGenerator\\%s\n", tempCommand);
 3666              	LM91:
 3667 106b 8D85F8FE 		leal	-264(%ebp), %eax
 3667      FFFF
 3668 1071 8944240C 		movl	%eax, 12(%esp)
 3669 1075 C7442408 		movl	$LC22, 8(%esp)
 3669      E0070000 
 3670 107d C7442404 		movl	$LC1, 4(%esp)
 3670      3E000000 
 3671 1085 C7042401 		movl	$1, (%esp)
 3671      000000
 3672 108c E8000000 		call	_reslog_adaptor_log
 3672      00
 951:mtk_resgenerator.cpp ****     search = FindFirstFile(tempCommand, &file_data);
 3674              	LM92:
 3675 1091 8D85B8FD 		leal	-584(%ebp), %eax
 3675      FFFF
 3676 1097 89442404 		movl	%eax, 4(%esp)
 3677 109b 8D85F8FE 		leal	-264(%ebp), %eax
 3677      FFFF
 3678 10a1 890424   		movl	%eax, (%esp)
 3679 10a4 E8000000 		call	_FindFirstFileA@8
 3679      00
 3680 10a9 83EC08   		subl	$8, %esp
 3681 10ac 898574FC 		movl	%eax, -908(%ebp)
 3681      FFFF
 952:mtk_resgenerator.cpp ****     if (search == INVALID_HANDLE_VALUE)
 3683              	LM93:
 3684 10b2 83BD74FC 		cmpl	$-1, -908(%ebp)
 3684      FFFFFF
 3685 10b9 753D     		jne	L36
 953:mtk_resgenerator.cpp ****     {
 954:mtk_resgenerator.cpp ****         RESGEN_LOG_E("Didn't find audio.zip please check. ret=[%d] path=[%s]", GetLastError(), temp
 3687              	LM94:
 3688 10bb E8000000 		call	_GetLastError@0
 3688      00
 3689 10c0 89C2     		movl	%eax, %edx
 3690 10c2 8D85F8FE 		leal	-264(%ebp), %eax
 3690      FFFF
 3691 10c8 89442410 		movl	%eax, 16(%esp)
 3692 10cc 8954240C 		movl	%edx, 12(%esp)
 3693 10d0 C7442408 		movl	$LC40, 8(%esp)
 3693      A00E0000 
 3694 10d8 C7442404 		movl	$LC1, 4(%esp)
 3694      3E000000 
 3695 10e0 C7042403 		movl	$3, (%esp)
 3695      000000
 3696 10e7 E8000000 		call	_reslog_adaptor_log
 3696      00
 955:mtk_resgenerator.cpp ****         exit(2);
 3698              	LM95:
 3699 10ec C7042402 		movl	$2, (%esp)
 3699      000000
 3700 10f3 E8000000 		call	_exit
 3700      00
 3701              	L36:
 956:mtk_resgenerator.cpp ****     }
GAS LISTING d:/github/AIOT_WORKSHOP/AIoT_MT2503AVE_SDK/11CW1418SP4_03_CORETEK03AE_11C_V1_GPRS_MMI/plutommi/Customer/ResGenerator/gcctmp/ccmAfaaa.s 			page 38


 957:mtk_resgenerator.cpp ****     FindClose(search);
 3703              	LM96:
 3704 10f8 8B8574FC 		movl	-908(%ebp), %eax
 3704      FFFF
 3705 10fe 890424   		movl	%eax, (%esp)
 3706 1101 E8000000 		call	_FindClose@4
 3706      00
 3707 1106 83EC04   		subl	$4, %esp
 958:mtk_resgenerator.cpp **** 
 959:mtk_resgenerator.cpp ****     sprintf(tempCommand, "%s\\\\audio_time_log", CUST_ADO_PATH);
 3709              	LM97:
 3710 1109 C7442408 		movl	$LC38, 8(%esp)
 3710      600E0000 
 3711 1111 C7442404 		movl	$LC41, 4(%esp)
 3711      D70E0000 
 3712 1119 8D85F8FE 		leal	-264(%ebp), %eax
 3712      FFFF
 3713 111f 890424   		movl	%eax, (%esp)
 3714 1122 E8000000 		call	_sprintf
 3714      00
 960:mtk_resgenerator.cpp ****     zip_time_file = fopen(tempCommand, "rb");
 3716              	LM98:
 3717 1127 C7442404 		movl	$LC25, 4(%esp)
 3717      78080000 
 3718 112f 8D85F8FE 		leal	-264(%ebp), %eax
 3718      FFFF
 3719 1135 890424   		movl	%eax, (%esp)
 3720 1138 E8000000 		call	_fopen
 3720      00
 3721 113d 89856CFC 		movl	%eax, -916(%ebp)
 3721      FFFF
 961:mtk_resgenerator.cpp ****     if (zip_time_file != NULL)
 3723              	LM99:
 3724 1143 83BD6CFC 		cmpl	$0, -916(%ebp)
 3724      FFFF00
 3725 114a 0F84E900 		je	L37
 3725      0000
 962:mtk_resgenerator.cpp ****     {
 963:mtk_resgenerator.cpp ****         wsize = fread(&(zip_time_prev), sizeof(zip_time_prev), 1, zip_time_file);
 3727              	LM100:
 3728 1150 8B856CFC 		movl	-916(%ebp), %eax
 3728      FFFF
 3729 1156 8944240C 		movl	%eax, 12(%esp)
 3730 115a C7442408 		movl	$1, 8(%esp)
 3730      01000000 
 3731 1162 C7442404 		movl	$8, 4(%esp)
 3731      08000000 
 3732 116a 8D8560FC 		leal	-928(%ebp), %eax
 3732      FFFF
 3733 1170 890424   		movl	%eax, (%esp)
 3734 1173 E8000000 		call	_fread
 3734      00
 3735 1178 898568FC 		movl	%eax, -920(%ebp)
 3735      FFFF
 964:mtk_resgenerator.cpp ****         fclose(zip_time_file);
 3737              	LM101:
 3738 117e 8B856CFC 		movl	-916(%ebp), %eax
GAS LISTING d:/github/AIOT_WORKSHOP/AIoT_MT2503AVE_SDK/11CW1418SP4_03_CORETEK03AE_11C_V1_GPRS_MMI/plutommi/Customer/ResGenerator/gcctmp/ccmAfaaa.s 			page 39


 3738      FFFF
 3739 1184 890424   		movl	%eax, (%esp)
 3740 1187 E8000000 		call	_fclose
 3740      00
 965:mtk_resgenerator.cpp ****         if (wsize != 1)
 3742              	LM102:
 3743 118c 83BD68FC 		cmpl	$1, -920(%ebp)
 3743      FFFF01
 3744 1193 7444     		je	L38
 966:mtk_resgenerator.cpp ****         {
 967:mtk_resgenerator.cpp ****             RESGEN_LOG_E("Can't read [%s][%d][%d]", tempCommand, wsize, sizeof(file_data.ftLastWrit
 3746              	LM103:
 3747 1195 C7442414 		movl	$8, 20(%esp)
 3747      08000000 
 3748 119d 8B8568FC 		movl	-920(%ebp), %eax
 3748      FFFF
 3749 11a3 89442410 		movl	%eax, 16(%esp)
 3750 11a7 8D85F8FE 		leal	-264(%ebp), %eax
 3750      FFFF
 3751 11ad 8944240C 		movl	%eax, 12(%esp)
 3752 11b1 C7442408 		movl	$LC26, 8(%esp)
 3752      7B080000 
 3753 11b9 C7442404 		movl	$LC1, 4(%esp)
 3753      3E000000 
 3754 11c1 C7042403 		movl	$3, (%esp)
 3754      000000
 3755 11c8 E8000000 		call	_reslog_adaptor_log
 3755      00
 968:mtk_resgenerator.cpp ****             exit(2);
 3757              	LM104:
 3758 11cd C7042402 		movl	$2, (%esp)
 3758      000000
 3759 11d4 E8000000 		call	_exit
 3759      00
 3760              	L38:
 969:mtk_resgenerator.cpp ****         }
 970:mtk_resgenerator.cpp **** 
 971:mtk_resgenerator.cpp ****         if (CompareFileTime(&(file_data.ftLastWriteTime), &(zip_time_prev)) == 0)
 3762              	LM105:
 3763 11d9 8D8560FC 		leal	-928(%ebp), %eax
 3763      FFFF
 3764 11df 89442404 		movl	%eax, 4(%esp)
 3765 11e3 8D85B8FD 		leal	-584(%ebp), %eax
 3765      FFFF
 3766 11e9 83C014   		addl	$20, %eax
 3767 11ec 890424   		movl	%eax, (%esp)
 3768 11ef E8000000 		call	_CompareFileTime@8
 3768      00
 3769 11f4 83EC08   		subl	$8, %esp
 3770 11f7 85C0     		testl	%eax, %eax
 3771 11f9 753E     		jne	L37
 972:mtk_resgenerator.cpp ****         {
 973:mtk_resgenerator.cpp ****             is_need_unzip = FALSE;
 3773              	LM106:
 3774 11fb C78570FC 		movl	$0, -912(%ebp)
 3774      FFFF0000 
 3774      0000
GAS LISTING d:/github/AIOT_WORKSHOP/AIoT_MT2503AVE_SDK/11CW1418SP4_03_CORETEK03AE_11C_V1_GPRS_MMI/plutommi/Customer/ResGenerator/gcctmp/ccmAfaaa.s 			page 40


 974:mtk_resgenerator.cpp ****             RESGEN_LOG_V("AUDIO's audio.zip is not changed, skip Unzip process...");
 3776              	LM107:
 3777 1205 C7442408 		movl	$LC42, 8(%esp)
 3777      000F0000 
 3778 120d C7442404 		movl	$LC1, 4(%esp)
 3778      3E000000 
 3779 1215 C7042401 		movl	$1, (%esp)
 3779      000000
 3780 121c E8000000 		call	_reslog_adaptor_log
 3780      00
 975:mtk_resgenerator.cpp ****             fprintf(stderr, "AUDIO's audio.zip is not changed, skip Unzip process...\n");
 3782              	LM108:
 3783 1221 C7442404 		movl	$LC43, 4(%esp)
 3783      400F0000 
 3784 1229 A1000000 		movl	__imp___iob, %eax
 3784      00
 3785 122e 83C040   		addl	$64, %eax
 3786 1231 890424   		movl	%eax, (%esp)
 3787 1234 E8000000 		call	_fprintf
 3787      00
 3788              	L37:
 976:mtk_resgenerator.cpp ****         }
 977:mtk_resgenerator.cpp ****     }
 978:mtk_resgenerator.cpp **** 
 979:mtk_resgenerator.cpp ****     zip_time_file = fopen(tempCommand, "wb");
 3790              	LM109:
 3791 1239 C7442404 		movl	$LC29, 4(%esp)
 3791      1B090000 
 3792 1241 8D85F8FE 		leal	-264(%ebp), %eax
 3792      FFFF
 3793 1247 890424   		movl	%eax, (%esp)
 3794 124a E8000000 		call	_fopen
 3794      00
 3795 124f 89856CFC 		movl	%eax, -916(%ebp)
 3795      FFFF
 980:mtk_resgenerator.cpp ****     if (zip_time_file == NULL)
 3797              	LM110:
 3798 1255 83BD6CFC 		cmpl	$0, -916(%ebp)
 3798      FFFF00
 3799 125c 7532     		jne	L40
 981:mtk_resgenerator.cpp ****     {
 982:mtk_resgenerator.cpp ****         RESGEN_LOG_E("[%s] could not open!", tempCommand);
 3801              	LM111:
 3802 125e 8D85F8FE 		leal	-264(%ebp), %eax
 3802      FFFF
 3803 1264 8944240C 		movl	%eax, 12(%esp)
 3804 1268 C7442408 		movl	$LC30, 8(%esp)
 3804      1E090000 
 3805 1270 C7442404 		movl	$LC1, 4(%esp)
 3805      3E000000 
 3806 1278 C7042403 		movl	$3, (%esp)
 3806      000000
 3807 127f E8000000 		call	_reslog_adaptor_log
 3807      00
 983:mtk_resgenerator.cpp ****         exit(2);
 3809              	LM112:
 3810 1284 C7042402 		movl	$2, (%esp)
GAS LISTING d:/github/AIOT_WORKSHOP/AIoT_MT2503AVE_SDK/11CW1418SP4_03_CORETEK03AE_11C_V1_GPRS_MMI/plutommi/Customer/ResGenerator/gcctmp/ccmAfaaa.s 			page 41


 3810      000000
 3811 128b E8000000 		call	_exit
 3811      00
 3812              	L40:
 984:mtk_resgenerator.cpp ****     }
 985:mtk_resgenerator.cpp **** 
 986:mtk_resgenerator.cpp ****     wsize = fwrite(&(file_data.ftLastWriteTime), sizeof(file_data.ftLastWriteTime), 1, zip_time_fil
 3814              	LM113:
 3815 1290 8B856CFC 		movl	-916(%ebp), %eax
 3815      FFFF
 3816 1296 8944240C 		movl	%eax, 12(%esp)
 3817 129a C7442408 		movl	$1, 8(%esp)
 3817      01000000 
 3818 12a2 C7442404 		movl	$8, 4(%esp)
 3818      08000000 
 3819 12aa 8D85B8FD 		leal	-584(%ebp), %eax
 3819      FFFF
 3820 12b0 83C014   		addl	$20, %eax
 3821 12b3 890424   		movl	%eax, (%esp)
 3822 12b6 E8000000 		call	_fwrite
 3822      00
 3823 12bb 898568FC 		movl	%eax, -920(%ebp)
 3823      FFFF
 987:mtk_resgenerator.cpp ****     fclose(zip_time_file);
 3825              	LM114:
 3826 12c1 8B856CFC 		movl	-916(%ebp), %eax
 3826      FFFF
 3827 12c7 890424   		movl	%eax, (%esp)
 3828 12ca E8000000 		call	_fclose
 3828      00
 988:mtk_resgenerator.cpp ****     if (wsize != 1)
 3830              	LM115:
 3831 12cf 83BD68FC 		cmpl	$1, -920(%ebp)
 3831      FFFF01
 3832 12d6 7444     		je	L41
 989:mtk_resgenerator.cpp ****     {
 990:mtk_resgenerator.cpp ****         RESGEN_LOG_E("Can't write [%s][%d][%d]", tempCommand, wsize, sizeof(file_data.ftLastWriteTi
 3834              	LM116:
 3835 12d8 C7442414 		movl	$8, 20(%esp)
 3835      08000000 
 3836 12e0 8B8568FC 		movl	-920(%ebp), %eax
 3836      FFFF
 3837 12e6 89442410 		movl	%eax, 16(%esp)
 3838 12ea 8D85F8FE 		leal	-264(%ebp), %eax
 3838      FFFF
 3839 12f0 8944240C 		movl	%eax, 12(%esp)
 3840 12f4 C7442408 		movl	$LC31, 8(%esp)
 3840      33090000 
 3841 12fc C7442404 		movl	$LC1, 4(%esp)
 3841      3E000000 
 3842 1304 C7042403 		movl	$3, (%esp)
 3842      000000
 3843 130b E8000000 		call	_reslog_adaptor_log
 3843      00
 991:mtk_resgenerator.cpp ****         exit(2);
 3845              	LM117:
 3846 1310 C7042402 		movl	$2, (%esp)
GAS LISTING d:/github/AIOT_WORKSHOP/AIoT_MT2503AVE_SDK/11CW1418SP4_03_CORETEK03AE_11C_V1_GPRS_MMI/plutommi/Customer/ResGenerator/gcctmp/ccmAfaaa.s 			page 42


 3846      000000
 3847 1317 E8000000 		call	_exit
 3847      00
 3848              	L41:
 992:mtk_resgenerator.cpp ****     }
 993:mtk_resgenerator.cpp **** 
 994:mtk_resgenerator.cpp **** 
 995:mtk_resgenerator.cpp ****     if (is_need_unzip || g_is_clean)
 3850              	LM118:
 3851 131c 83BD70FC 		cmpl	$0, -912(%ebp)
 3851      FFFF00
 3852 1323 750B     		jne	L43
 3853 1325 833D0000 		cmpl	$0, _g_is_clean
 3853      000000
 3854 132c 7502     		jne	L43
 3855 132e EB4C     		jmp	L42
 3856              	L43:
 996:mtk_resgenerator.cpp ****     {
 997:mtk_resgenerator.cpp ****         fprintf(stderr, "Start Unzip audios ...output 3rd_tool.log\n");
 3858              	LM119:
 3859 1330 C7442404 		movl	$LC44, 4(%esp)
 3859      800F0000 
 3860 1338 A1000000 		movl	__imp___iob, %eax
 3860      00
 3861 133d 83C040   		addl	$64, %eax
 3862 1340 890424   		movl	%eax, (%esp)
 3863 1343 E8000000 		call	_fprintf
 3863      00
 998:mtk_resgenerator.cpp **** 
 999:mtk_resgenerator.cpp ****         sprintf(tempCommand, "7za.exe x -y %s\\audio.zip -o%s\\ 2>> .\\debug\\3rd_tool.log", CUST_A
 3865              	LM120:
 3866 1348 C744240C 		movl	$LC38, 12(%esp)
 3866      600E0000 
 3867 1350 C7442408 		movl	$LC38, 8(%esp)
 3867      600E0000 
 3868 1358 C7442404 		movl	$LC45, 4(%esp)
 3868      C00F0000 
 3869 1360 8D85F8FE 		leal	-264(%ebp), %eax
 3869      FFFF
 3870 1366 890424   		movl	%eax, (%esp)
 3871 1369 E8000000 		call	_sprintf
 3871      00
1000:mtk_resgenerator.cpp ****         execute_ext_command(tempCommand);
 3873              	LM121:
 3874 136e 8D85F8FE 		leal	-264(%ebp), %eax
 3874      FFFF
 3875 1374 890424   		movl	%eax, (%esp)
 3876 1377 E8000000 		call	_execute_ext_command
 3876      00
 3877              	L42:
1001:mtk_resgenerator.cpp ****     }
1002:mtk_resgenerator.cpp **** #ifndef __OPTR_NONE__
1003:mtk_resgenerator.cpp ****     sprintf(tempCommand, "7za.exe x -y %s\\operator_audio.zip -o%s\\ 2>> .\\debug\\3rd_tool.log", C
1004:mtk_resgenerator.cpp ****     RESGEN_LOG_V("[Dependency] plutommi\\Customer\\ResGenerator\\%s\\operator_audio.zip\n", CUST_OP
1005:mtk_resgenerator.cpp ****     execute_ext_command(tempCommand);
1006:mtk_resgenerator.cpp **** #endif /* __OPTR_NONE__ */
1007:mtk_resgenerator.cpp **** 
GAS LISTING d:/github/AIOT_WORKSHOP/AIoT_MT2503AVE_SDK/11CW1418SP4_03_CORETEK03AE_11C_V1_GPRS_MMI/plutommi/Customer/ResGenerator/gcctmp/ccmAfaaa.s 			page 43


1008:mtk_resgenerator.cpp ****     RESGEN_LOG_V("[UnzipAudio] end");
 3879              	LM122:
 3880 137c C7442408 		movl	$LC46, 8(%esp)
 3880      F90F0000 
 3881 1384 C7442404 		movl	$LC1, 4(%esp)
 3881      3E000000 
 3882 138c C7042401 		movl	$1, (%esp)
 3882      000000
 3883 1393 E8000000 		call	_reslog_adaptor_log
 3883      00
1009:mtk_resgenerator.cpp **** }
 3885              	LM123:
 3886 1398 C9       		leave
 3887 1399 C3       		ret
 3888              	LBE4:
 3899              	Lscope2:
 3901              		.align 2
 3904              	.globl _MtkResgenTrace
 3906              	_MtkResgenTrace:
1010:mtk_resgenerator.cpp **** 
1011:mtk_resgenerator.cpp **** 
1012:mtk_resgenerator.cpp **** /*****************************************************************************
1013:mtk_resgenerator.cpp **** * FUNCTION
1014:mtk_resgenerator.cpp **** *  Trace
1015:mtk_resgenerator.cpp **** * DESCRIPTION
1016:mtk_resgenerator.cpp **** *
1017:mtk_resgenerator.cpp **** * PARAMETERS
1018:mtk_resgenerator.cpp **** *  fmt     [IN]
1019:mtk_resgenerator.cpp **** * RETURNS
1020:mtk_resgenerator.cpp **** *  void
1021:mtk_resgenerator.cpp **** *****************************************************************************/
1022:mtk_resgenerator.cpp **** extern "C" void MtkResgenTrace(char *fmt,...)
1023:mtk_resgenerator.cpp **** {
 3908              	LM124:
 3909 139a 55       		pushl	%ebp
 3910 139b 89E5     		movl	%esp, %ebp
1024:mtk_resgenerator.cpp ****     return;
1025:mtk_resgenerator.cpp **** #if 0    
1026:mtk_resgenerator.cpp **** /* under construction !*/
1027:mtk_resgenerator.cpp **** /* under construction !*/
1028:mtk_resgenerator.cpp **** /* under construction !*/
1029:mtk_resgenerator.cpp **** /* under construction !*/
1030:mtk_resgenerator.cpp **** /* under construction !*/
1031:mtk_resgenerator.cpp **** /* under construction !*/
1032:mtk_resgenerator.cpp **** /* under construction !*/
1033:mtk_resgenerator.cpp **** /* under construction !*/
1034:mtk_resgenerator.cpp **** /* under construction !*/
1035:mtk_resgenerator.cpp **** /* under construction !*/
1036:mtk_resgenerator.cpp **** /* under construction !*/
1037:mtk_resgenerator.cpp **** /* under construction !*/
1038:mtk_resgenerator.cpp **** /* under construction !*/
1039:mtk_resgenerator.cpp **** /* under construction !*/
1040:mtk_resgenerator.cpp **** #endif    
1041:mtk_resgenerator.cpp **** }
 3912              	LM125:
 3913 139d 5D       		popl	%ebp
 3914 139e C3       		ret
GAS LISTING d:/github/AIOT_WORKSHOP/AIoT_MT2503AVE_SDK/11CW1418SP4_03_CORETEK03AE_11C_V1_GPRS_MMI/plutommi/Customer/ResGenerator/gcctmp/ccmAfaaa.s 			page 44


 3915              	Lscope3:
 3917 139f 90       		.align 2
 3925              	__Z21PopulateSearchMap_ExtP13CUSTOM_ID_MAPP20CUSTOM_ID_SEARCH_MAPPtS3_t:
1042:mtk_resgenerator.cpp **** 
1043:mtk_resgenerator.cpp **** 
1044:mtk_resgenerator.cpp **** /*****************************************************************************
1045:mtk_resgenerator.cpp **** * FUNCTION
1046:mtk_resgenerator.cpp **** *  PopulateSearchMap_Ext
1047:mtk_resgenerator.cpp **** * DESCRIPTION
1048:mtk_resgenerator.cpp **** *  populate search map
1049:mtk_resgenerator.cpp **** * PARAMETERS
1050:mtk_resgenerator.cpp **** *  pIdMap              [IN]    ID map
1051:mtk_resgenerator.cpp **** *  pIdSearchMap        [OUT]   ID search map
1052:mtk_resgenerator.cpp **** *  pCurrMaxId          [OUT]   current max ID
1053:mtk_resgenerator.cpp **** *  pCurrMaxSearchId    [OUT]   current max search ID
1054:mtk_resgenerator.cpp **** *  MaxIdSize           [IN]    max ID
1055:mtk_resgenerator.cpp **** * RETURNS
1056:mtk_resgenerator.cpp **** *  void
1057:mtk_resgenerator.cpp **** *****************************************************************************/
1058:mtk_resgenerator.cpp **** static void PopulateSearchMap_Ext(
1059:mtk_resgenerator.cpp ****                                   CUSTOM_ID_MAP *pIdMap,
1060:mtk_resgenerator.cpp ****                                   CUSTOM_ID_SEARCH_MAP *pIdSearchMap,
1061:mtk_resgenerator.cpp ****                                   unsigned short *pCurrMaxId,
1062:mtk_resgenerator.cpp ****                                   unsigned short *pCurrMaxSearchId,
1063:mtk_resgenerator.cpp ****                                   U16 MaxIdSize)
1064:mtk_resgenerator.cpp **** {
 3927              	LM126:
 3928 13a0 55       		pushl	%ebp
 3929 13a1 89E5     		movl	%esp, %ebp
 3930 13a3 56       		pushl	%esi
 3931 13a4 53       		pushl	%ebx
 3932 13a5 83EC0C   		subl	$12, %esp
 3933 13a8 8B4518   		movl	24(%ebp), %eax
 3934 13ab 668945F6 		movw	%ax, -10(%ebp)
1065:mtk_resgenerator.cpp **** 
1066:mtk_resgenerator.cpp ****     /*----------------------------------------------------------------*/
1067:mtk_resgenerator.cpp ****     /* Local Variables                                                */
1068:mtk_resgenerator.cpp ****     /*----------------------------------------------------------------*/
1069:mtk_resgenerator.cpp ****     U16 i = 0, j = 0;
 3936              	LM127:
 3937              	LBB5:
 3938 13af 66C745F4 		movw	$0, -12(%ebp)
 3938      0000
 3939 13b5 66C745F2 		movw	$0, -14(%ebp)
 3939      0000
1070:mtk_resgenerator.cpp ****     U16 index = 0, start = 0;
 3941              	LM128:
 3942 13bb 66C745F0 		movw	$0, -16(%ebp)
 3942      0000
 3943 13c1 66C745EE 		movw	$0, -18(%ebp)
 3943      0000
1071:mtk_resgenerator.cpp **** 
1072:mtk_resgenerator.cpp ****     /*----------------------------------------------------------------*/
1073:mtk_resgenerator.cpp ****     /* Code Body                                                      */
1074:mtk_resgenerator.cpp ****     /*----------------------------------------------------------------*/
1075:mtk_resgenerator.cpp ****     /* Filed the min ID and max Id for search map structure */
1076:mtk_resgenerator.cpp ****     for (i = 0; i < MaxIdSize; i++)
GAS LISTING d:/github/AIOT_WORKSHOP/AIoT_MT2503AVE_SDK/11CW1418SP4_03_CORETEK03AE_11C_V1_GPRS_MMI/plutommi/Customer/ResGenerator/gcctmp/ccmAfaaa.s 			page 45


 3945              	LM129:
 3946 13c7 66C745F4 		movw	$0, -12(%ebp)
 3946      0000
 3947              	L46:
 3948 13cd 8B45F4   		movl	-12(%ebp), %eax
 3949 13d0 663B45F6 		cmpw	-10(%ebp), %ax
 3950 13d4 7205     		jb	L49
 3951 13d6 E9B10000 		jmp	L47
 3951      00
 3952              	L49:
1077:mtk_resgenerator.cpp ****     {
1078:mtk_resgenerator.cpp ****         if (pIdMap[i].Num != ((U16) - 1))
 3954              	LM130:
 3955 13db 0FB745F4 		movzwl	-12(%ebp), %eax
 3956 13df 8D1400   		leal	(%eax,%eax), %edx
 3957 13e2 8B4508   		movl	8(%ebp), %eax
 3958 13e5 66833C10 		cmpw	$-1, (%eax,%edx)
 3958      FF
 3959 13ea 747D     		je	L50
1079:mtk_resgenerator.cpp ****         {
1080:mtk_resgenerator.cpp ****             if (!start)
 3961              	LM131:
 3962 13ec 66837DEE 		cmpw	$0, -18(%ebp)
 3962      00
 3963 13f1 7554     		jne	L51
1081:mtk_resgenerator.cpp ****             {
1082:mtk_resgenerator.cpp ****                 pIdSearchMap[j].minId = pIdSearchMap[j].maxId = i;
 3965              	LM132:
 3966 13f3 0FB755F2 		movzwl	-14(%ebp), %edx
 3967 13f7 89D0     		movl	%edx, %eax
 3968 13f9 01C0     		addl	%eax, %eax
 3969 13fb 01D0     		addl	%edx, %eax
 3970 13fd 8D1C00   		leal	(%eax,%eax), %ebx
 3971 1400 8B750C   		movl	12(%ebp), %esi
 3972 1403 0FB755F2 		movzwl	-14(%ebp), %edx
 3973 1407 89D0     		movl	%edx, %eax
 3974 1409 01C0     		addl	%eax, %eax
 3975 140b 01D0     		addl	%edx, %eax
 3976 140d 8D0C00   		leal	(%eax,%eax), %ecx
 3977 1410 8B550C   		movl	12(%ebp), %edx
 3978 1413 8B45F4   		movl	-12(%ebp), %eax
 3979 1416 6689440A 		movw	%ax, 2(%edx,%ecx)
 3979      02
 3980 141b 6689041E 		movw	%ax, (%esi,%ebx)
1083:mtk_resgenerator.cpp ****                 pIdSearchMap[j].index = index;
 3982              	LM133:
 3983 141f 0FB755F2 		movzwl	-14(%ebp), %edx
 3984 1423 89D0     		movl	%edx, %eax
 3985 1425 01C0     		addl	%eax, %eax
 3986 1427 01D0     		addl	%edx, %eax
 3987 1429 8D0C00   		leal	(%eax,%eax), %ecx
 3988 142c 8B550C   		movl	12(%ebp), %edx
 3989 142f 8B45F0   		movl	-16(%ebp), %eax
 3990 1432 6689440A 		movw	%ax, 4(%edx,%ecx)
 3990      04
1084:mtk_resgenerator.cpp ****                 index++;
 3992              	LM134:
GAS LISTING d:/github/AIOT_WORKSHOP/AIoT_MT2503AVE_SDK/11CW1418SP4_03_CORETEK03AE_11C_V1_GPRS_MMI/plutommi/Customer/ResGenerator/gcctmp/ccmAfaaa.s 			page 46


 3993 1437 8B45F0   		movl	-16(%ebp), %eax
 3994 143a 40       		incl	%eax
 3995 143b 668945F0 		movw	%ax, -16(%ebp)
1085:mtk_resgenerator.cpp ****                 start = 1;
 3997              	LM135:
 3998 143f 66C745EE 		movw	$1, -18(%ebp)
 3998      0100
 3999 1445 EB38     		jmp	L48
 4000              	L51:
1086:mtk_resgenerator.cpp ****             }
1087:mtk_resgenerator.cpp ****             else
1088:mtk_resgenerator.cpp ****             {
1089:mtk_resgenerator.cpp ****                 pIdSearchMap[j].maxId = i;
 4002              	LM136:
 4003 1447 0FB755F2 		movzwl	-14(%ebp), %edx
 4004 144b 89D0     		movl	%edx, %eax
 4005 144d 01C0     		addl	%eax, %eax
 4006 144f 01D0     		addl	%edx, %eax
 4007 1451 8D0C00   		leal	(%eax,%eax), %ecx
 4008 1454 8B550C   		movl	12(%ebp), %edx
 4009 1457 8B45F4   		movl	-12(%ebp), %eax
 4010 145a 6689440A 		movw	%ax, 2(%edx,%ecx)
 4010      02
1090:mtk_resgenerator.cpp ****                 index++;
 4012              	LM137:
 4013 145f 8B45F0   		movl	-16(%ebp), %eax
 4014 1462 40       		incl	%eax
 4015 1463 668945F0 		movw	%ax, -16(%ebp)
 4016 1467 EB16     		jmp	L48
 4017              	L50:
1091:mtk_resgenerator.cpp ****             }
1092:mtk_resgenerator.cpp ****         }
1093:mtk_resgenerator.cpp ****         else
1094:mtk_resgenerator.cpp ****         {
1095:mtk_resgenerator.cpp ****             if (start)
 4019              	LM138:
 4020 1469 66837DEE 		cmpw	$0, -18(%ebp)
 4020      00
 4021 146e 740F     		je	L48
1096:mtk_resgenerator.cpp ****             {
1097:mtk_resgenerator.cpp ****                 j++;
 4023              	LM139:
 4024 1470 0FB745F2 		movzwl	-14(%ebp), %eax
 4025 1474 40       		incl	%eax
 4026 1475 668945F2 		movw	%ax, -14(%ebp)
1098:mtk_resgenerator.cpp ****                 start = 0;
 4028              	LM140:
 4029 1479 66C745EE 		movw	$0, -18(%ebp)
 4029      0000
 4031              	LM141:
 4032              	L48:
 4033 147f 8B45F4   		movl	-12(%ebp), %eax
 4034 1482 40       		incl	%eax
 4035 1483 668945F4 		movw	%ax, -12(%ebp)
 4036 1487 E941FFFF 		jmp	L46
 4036      FF
 4037              	L47:
GAS LISTING d:/github/AIOT_WORKSHOP/AIoT_MT2503AVE_SDK/11CW1418SP4_03_CORETEK03AE_11C_V1_GPRS_MMI/plutommi/Customer/ResGenerator/gcctmp/ccmAfaaa.s 			page 47


1099:mtk_resgenerator.cpp ****             }
1100:mtk_resgenerator.cpp ****         }
1101:mtk_resgenerator.cpp ****     }
1102:mtk_resgenerator.cpp **** 
1103:mtk_resgenerator.cpp ****     /* Find current max id */
1104:mtk_resgenerator.cpp ****     *pCurrMaxSearchId = j;
 4039              	LM142:
 4040 148c 8B5514   		movl	20(%ebp), %edx
 4041 148f 0FB745F2 		movzwl	-14(%ebp), %eax
 4042 1493 668902   		movw	%ax, (%edx)
1105:mtk_resgenerator.cpp ****     j = 0;
 4044              	LM143:
 4045 1496 66C745F2 		movw	$0, -14(%ebp)
 4045      0000
1106:mtk_resgenerator.cpp ****     /* Move the pIdMap[n] so that the ID MAP items are continous  */
1107:mtk_resgenerator.cpp ****     for (i = 0; i < MaxIdSize; i++)
 4047              	LM144:
 4048 149c 66C745F4 		movw	$0, -12(%ebp)
 4048      0000
 4049              	L55:
 4050 14a2 8B45F4   		movl	-12(%ebp), %eax
 4051 14a5 663B45F6 		cmpw	-10(%ebp), %ax
 4052 14a9 7202     		jb	L58
 4053 14ab EB59     		jmp	L56
 4054              	L58:
1108:mtk_resgenerator.cpp ****     {
1109:mtk_resgenerator.cpp ****         if (pIdMap[i].Num != (U16)-1)
 4056              	LM145:
 4057 14ad 0FB745F4 		movzwl	-12(%ebp), %eax
 4058 14b1 8D1400   		leal	(%eax,%eax), %edx
 4059 14b4 8B4508   		movl	8(%ebp), %eax
 4060 14b7 66833C10 		cmpw	$-1, (%eax,%edx)
 4060      FF
 4061 14bc 743E     		je	L57
1110:mtk_resgenerator.cpp ****         {
1111:mtk_resgenerator.cpp ****             if (i != j)
 4063              	LM146:
 4064 14be 8B45F4   		movl	-12(%ebp), %eax
 4065 14c1 663B45F2 		cmpw	-14(%ebp), %ax
 4066 14c5 742C     		je	L60
1112:mtk_resgenerator.cpp ****             {
1113:mtk_resgenerator.cpp **** 
1114:mtk_resgenerator.cpp ****                 pIdMap[j].Num = pIdMap[i].Num;
 4068              	LM147:
 4069 14c7 0FB745F2 		movzwl	-14(%ebp), %eax
 4070 14cb 8D1C00   		leal	(%eax,%eax), %ebx
 4071 14ce 8B4D08   		movl	8(%ebp), %ecx
 4072 14d1 0FB745F4 		movzwl	-12(%ebp), %eax
 4073 14d5 8D1400   		leal	(%eax,%eax), %edx
 4074 14d8 8B4508   		movl	8(%ebp), %eax
 4075 14db 0FB70410 		movzwl	(%eax,%edx), %eax
 4076 14df 66890419 		movw	%ax, (%ecx,%ebx)
1115:mtk_resgenerator.cpp ****                 pIdMap[i].Num = -1;
 4078              	LM148:
 4079 14e3 0FB745F4 		movzwl	-12(%ebp), %eax
 4080 14e7 8D1400   		leal	(%eax,%eax), %edx
 4081 14ea 8B4508   		movl	8(%ebp), %eax
GAS LISTING d:/github/AIOT_WORKSHOP/AIoT_MT2503AVE_SDK/11CW1418SP4_03_CORETEK03AE_11C_V1_GPRS_MMI/plutommi/Customer/ResGenerator/gcctmp/ccmAfaaa.s 			page 48


 4082 14ed 66C70410 		movw	$-1, (%eax,%edx)
 4082      FFFF
 4083              	L60:
1116:mtk_resgenerator.cpp ****             }
1117:mtk_resgenerator.cpp ****             j++;
 4085              	LM149:
 4086 14f3 0FB745F2 		movzwl	-14(%ebp), %eax
 4087 14f7 40       		incl	%eax
 4088 14f8 668945F2 		movw	%ax, -14(%ebp)
 4090              	LM150:
 4091              	L57:
 4092 14fc 8B45F4   		movl	-12(%ebp), %eax
 4093 14ff 40       		incl	%eax
 4094 1500 668945F4 		movw	%ax, -12(%ebp)
 4095 1504 EB9C     		jmp	L55
 4096              	L56:
1118:mtk_resgenerator.cpp ****         }
1119:mtk_resgenerator.cpp ****     }
1120:mtk_resgenerator.cpp **** 
1121:mtk_resgenerator.cpp ****     *pCurrMaxId = j;
 4098              	LM151:
 4099 1506 8B5510   		movl	16(%ebp), %edx
 4100 1509 0FB745F2 		movzwl	-14(%ebp), %eax
 4101 150d 668902   		movw	%ax, (%edx)
1122:mtk_resgenerator.cpp **** }
 4103              	LM152:
 4104 1510 83C40C   		addl	$12, %esp
 4105 1513 5B       		popl	%ebx
 4106 1514 5E       		popl	%esi
 4107 1515 5D       		popl	%ebp
 4108 1516 C3       		ret
 4109              	LBE5:
 4117              	Lscope4:
 4119 1517 89F68DBC 		.align 32
 4119      27000000 
 4119      00
 4120              	LC47:
 4121 1520 506F7075 		.ascii "PopulateImageSearch(): Filled ID map and search map tables\0"
 4121      6C617465 
 4121      496D6167 
 4121      65536561 
 4121      72636828 
 4122 155b 90       		.align 2
 4125              	__Z19PopulateImageSearchv:
1123:mtk_resgenerator.cpp **** 
1124:mtk_resgenerator.cpp **** 
1125:mtk_resgenerator.cpp **** /*****************************************************************************
1126:mtk_resgenerator.cpp **** * FUNCTION
1127:mtk_resgenerator.cpp **** *  PopulateImageSearch
1128:mtk_resgenerator.cpp **** * DESCRIPTION
1129:mtk_resgenerator.cpp **** *  populate image search map
1130:mtk_resgenerator.cpp **** * PARAMETERS
1131:mtk_resgenerator.cpp **** *  void
1132:mtk_resgenerator.cpp **** * RETURNS
1133:mtk_resgenerator.cpp **** *  void
1134:mtk_resgenerator.cpp **** *****************************************************************************/
1135:mtk_resgenerator.cpp **** static void PopulateImageSearch(void)
GAS LISTING d:/github/AIOT_WORKSHOP/AIoT_MT2503AVE_SDK/11CW1418SP4_03_CORETEK03AE_11C_V1_GPRS_MMI/plutommi/Customer/ResGenerator/gcctmp/ccmAfaaa.s 			page 49


1136:mtk_resgenerator.cpp **** {
 4127              	LM153:
 4128 155c 55       		pushl	%ebp
 4129 155d 89E5     		movl	%esp, %ebp
 4130 155f 83EC18   		subl	$24, %esp
1137:mtk_resgenerator.cpp ****     /*----------------------------------------------------------------*/
1138:mtk_resgenerator.cpp ****     /* Local Variables                                                */
1139:mtk_resgenerator.cpp ****     /*----------------------------------------------------------------*/
1140:mtk_resgenerator.cpp **** 
1141:mtk_resgenerator.cpp ****     /*----------------------------------------------------------------*/
1142:mtk_resgenerator.cpp ****     /* Code Body                                                      */
1143:mtk_resgenerator.cpp ****     /*----------------------------------------------------------------*/
1144:mtk_resgenerator.cpp ****     RESGEN_LOG_V("PopulateImageSearch(): Filled ID map and search map tables");
 4132              	LM154:
 4133              	LBB6:
 4134 1562 C7442408 		movl	$LC47, 8(%esp)
 4134      20150000 
 4135 156a C7442404 		movl	$LC1, 4(%esp)
 4135      3E000000 
 4136 1572 C7042401 		movl	$1, (%esp)
 4136      000000
 4137 1579 E8000000 		call	_reslog_adaptor_log
 4137      00
1145:mtk_resgenerator.cpp ****     PopulateSearchMap_Ext(
 4139              	LM155:
 4140 157e C7442410 		movl	$65535, 16(%esp)
 4140      FFFF0000 
 4141 1586 C744240C 		movl	$_CurrMaxSearchImageId, 12(%esp)
 4141      00000000 
 4142 158e C7442408 		movl	$_CurrMaxImageId, 8(%esp)
 4142      00000000 
 4143 1596 C7442404 		movl	$_ImageIdSearchMap, 4(%esp)
 4143      00000000 
 4144 159e C7042400 		movl	$_ImageIdMap, (%esp)
 4144      000000
 4145 15a5 E8F6FDFF 		call	__Z21PopulateSearchMap_ExtP13CUSTOM_ID_MAPP20CUSTOM_ID_SEARCH_MAPPtS3_t
 4145      FF
1146:mtk_resgenerator.cpp ****         (CUSTOM_ID_MAP *)ImageIdMap,
1147:mtk_resgenerator.cpp ****         (CUSTOM_ID_SEARCH_MAP *)ImageIdSearchMap,
1148:mtk_resgenerator.cpp ****         (unsigned short *)&CurrMaxImageId,
1149:mtk_resgenerator.cpp ****         (unsigned short *)&CurrMaxSearchImageId,
1150:mtk_resgenerator.cpp ****         MAX_IMAGE_IDS_SIZE);
1151:mtk_resgenerator.cpp ****     PopulateSearchMap_Ext(
 4147              	LM156:
 4148 15aa C7442410 		movl	$65535, 16(%esp)
 4148      FFFF0000 
 4149 15b2 C744240C 		movl	$_CurrMaxSearchImageIdEXT, 12(%esp)
 4149      00000000 
 4150 15ba C7442408 		movl	$_CurrMaxImageIdEXT, 8(%esp)
 4150      00000000 
 4151 15c2 C7442404 		movl	$_ImageIdSearchMapEXT, 4(%esp)
 4151      00000000 
 4152 15ca C7042400 		movl	$_ImageIdMapEXT, (%esp)
 4152      000000
 4153 15d1 E8CAFDFF 		call	__Z21PopulateSearchMap_ExtP13CUSTOM_ID_MAPP20CUSTOM_ID_SEARCH_MAPPtS3_t
 4153      FF
1152:mtk_resgenerator.cpp ****         (CUSTOM_ID_MAP *)ImageIdMapEXT,
GAS LISTING d:/github/AIOT_WORKSHOP/AIoT_MT2503AVE_SDK/11CW1418SP4_03_CORETEK03AE_11C_V1_GPRS_MMI/plutommi/Customer/ResGenerator/gcctmp/ccmAfaaa.s 			page 50


1153:mtk_resgenerator.cpp ****         (CUSTOM_ID_SEARCH_MAP *)ImageIdSearchMapEXT,
1154:mtk_resgenerator.cpp ****         (unsigned short *)&CurrMaxImageIdEXT,
1155:mtk_resgenerator.cpp ****         (unsigned short *)&CurrMaxSearchImageIdEXT,
1156:mtk_resgenerator.cpp ****         MAX_IMAGE_IDS_SIZE);
1157:mtk_resgenerator.cpp **** }
 4155              	LM157:
 4156 15d6 C9       		leave
 4157 15d7 C3       		ret
 4158              	LBE6:
 4159              	Lscope5:
 4161 15d8 908DB426 		.align 32
 4161      00000000 
 4162              	LC48:
 4163 15e0 506F7075 		.ascii "PopulateAudioSearch(): Filled ID map and search map tables\0"
 4163      6C617465 
 4163      41756469 
 4163      6F536561 
 4163      72636828 
 4164 161b 90       		.align 2
 4167              	__Z19PopulateAudioSearchv:
1158:mtk_resgenerator.cpp **** 
1159:mtk_resgenerator.cpp **** 
1160:mtk_resgenerator.cpp **** /*****************************************************************************
1161:mtk_resgenerator.cpp **** * FUNCTION
1162:mtk_resgenerator.cpp **** *  PopulateAudioSearch
1163:mtk_resgenerator.cpp **** * DESCRIPTION
1164:mtk_resgenerator.cpp **** *  populate audio search map
1165:mtk_resgenerator.cpp **** * PARAMETERS
1166:mtk_resgenerator.cpp **** *  void
1167:mtk_resgenerator.cpp **** * RETURNS
1168:mtk_resgenerator.cpp **** *  void
1169:mtk_resgenerator.cpp **** *****************************************************************************/
1170:mtk_resgenerator.cpp **** static void PopulateAudioSearch(void)
1171:mtk_resgenerator.cpp **** {
 4169              	LM158:
 4170 161c 55       		pushl	%ebp
 4171 161d 89E5     		movl	%esp, %ebp
 4172 161f 83EC18   		subl	$24, %esp
1172:mtk_resgenerator.cpp ****     /*----------------------------------------------------------------*/
1173:mtk_resgenerator.cpp ****     /* Local Variables                                                */
1174:mtk_resgenerator.cpp ****     /*----------------------------------------------------------------*/
1175:mtk_resgenerator.cpp **** 
1176:mtk_resgenerator.cpp ****     /*----------------------------------------------------------------*/
1177:mtk_resgenerator.cpp ****     /* Code Body                                                      */
1178:mtk_resgenerator.cpp ****     /*----------------------------------------------------------------*/
1179:mtk_resgenerator.cpp ****     RESGEN_LOG_V("PopulateAudioSearch(): Filled ID map and search map tables");
 4174              	LM159:
 4175              	LBB7:
 4176 1622 C7442408 		movl	$LC48, 8(%esp)
 4176      E0150000 
 4177 162a C7442404 		movl	$LC1, 4(%esp)
 4177      3E000000 
 4178 1632 C7042401 		movl	$1, (%esp)
 4178      000000
 4179 1639 E8000000 		call	_reslog_adaptor_log
 4179      00
1180:mtk_resgenerator.cpp **** 
GAS LISTING d:/github/AIOT_WORKSHOP/AIoT_MT2503AVE_SDK/11CW1418SP4_03_CORETEK03AE_11C_V1_GPRS_MMI/plutommi/Customer/ResGenerator/gcctmp/ccmAfaaa.s 			page 51


1181:mtk_resgenerator.cpp ****     PopulateSearchMap_Ext(
 4181              	LM160:
 4182 163e C7442410 		movl	$65535, 16(%esp)
 4182      FFFF0000 
 4183 1646 C744240C 		movl	$_CurrMaxSearchAudioId, 12(%esp)
 4183      00000000 
 4184 164e C7442408 		movl	$_CurrMaxAudioId, 8(%esp)
 4184      00000000 
 4185 1656 C7442404 		movl	$_AudioIdSearchMap, 4(%esp)
 4185      00000000 
 4186 165e C7042400 		movl	$_AudioIdMap, (%esp)
 4186      000000
 4187 1665 E836FDFF 		call	__Z21PopulateSearchMap_ExtP13CUSTOM_ID_MAPP20CUSTOM_ID_SEARCH_MAPPtS3_t
 4187      FF
1182:mtk_resgenerator.cpp ****         (CUSTOM_ID_MAP *)AudioIdMap,
1183:mtk_resgenerator.cpp ****         (CUSTOM_ID_SEARCH_MAP *)AudioIdSearchMap,
1184:mtk_resgenerator.cpp ****         (unsigned short *)&CurrMaxAudioId,
1185:mtk_resgenerator.cpp ****         (unsigned short *)&CurrMaxSearchAudioId,
1186:mtk_resgenerator.cpp ****         MAX_AUDIO_IDS_SIZE);
1187:mtk_resgenerator.cpp ****     PopulateSearchMap_Ext(
 4189              	LM161:
 4190 166a C7442410 		movl	$65535, 16(%esp)
 4190      FFFF0000 
 4191 1672 C744240C 		movl	$_CurrMaxSearchAudioIdEXT, 12(%esp)
 4191      00000000 
 4192 167a C7442408 		movl	$_CurrMaxAudioIdEXT, 8(%esp)
 4192      00000000 
 4193 1682 C7442404 		movl	$_AudioIdSearchMapEXT, 4(%esp)
 4193      00000000 
 4194 168a C7042400 		movl	$_AudioIdMapEXT, (%esp)
 4194      000000
 4195 1691 E80AFDFF 		call	__Z21PopulateSearchMap_ExtP13CUSTOM_ID_MAPP20CUSTOM_ID_SEARCH_MAPPtS3_t
 4195      FF
1188:mtk_resgenerator.cpp ****         (CUSTOM_ID_MAP *)AudioIdMapEXT,
1189:mtk_resgenerator.cpp ****         (CUSTOM_ID_SEARCH_MAP *)AudioIdSearchMapEXT,
1190:mtk_resgenerator.cpp ****         (unsigned short *)&CurrMaxAudioIdEXT,
1191:mtk_resgenerator.cpp ****         (unsigned short *)&CurrMaxSearchAudioIdEXT,
1192:mtk_resgenerator.cpp ****         MAX_AUDIO_IDS_SIZE);
1193:mtk_resgenerator.cpp **** }
 4197              	LM162:
 4198 1696 C9       		leave
 4199 1697 C3       		ret
 4200              	LBE7:
 4201              	Lscope6:
 4203 1698 908DB426 		.align 32
 4203      00000000 
 4204              	LC49:
 4205 16a0 506F7075 		.ascii "PopulateFontSearch(): Filled ID map and search map tabls\0"
 4205      6C617465 
 4205      466F6E74 
 4205      53656172 
 4205      63682829 
 4206 16d9 90       		.align 2
 4209              	__Z18PopulateFontSearchv:
1194:mtk_resgenerator.cpp **** 
1195:mtk_resgenerator.cpp **** 
1196:mtk_resgenerator.cpp **** /*****************************************************************************
GAS LISTING d:/github/AIOT_WORKSHOP/AIoT_MT2503AVE_SDK/11CW1418SP4_03_CORETEK03AE_11C_V1_GPRS_MMI/plutommi/Customer/ResGenerator/gcctmp/ccmAfaaa.s 			page 52


1197:mtk_resgenerator.cpp **** * FUNCTION
1198:mtk_resgenerator.cpp **** *  PopulateFontSearch
1199:mtk_resgenerator.cpp **** * DESCRIPTION
1200:mtk_resgenerator.cpp **** *  populate Font search map
1201:mtk_resgenerator.cpp **** * PARAMETERS
1202:mtk_resgenerator.cpp **** *  void
1203:mtk_resgenerator.cpp **** * RETURNS
1204:mtk_resgenerator.cpp **** *  void
1205:mtk_resgenerator.cpp **** *****************************************************************************/
1206:mtk_resgenerator.cpp **** static void PopulateFontSearch(void)
1207:mtk_resgenerator.cpp **** {
 4211              	LM163:
 4212 16da 55       		pushl	%ebp
 4213 16db 89E5     		movl	%esp, %ebp
 4214 16dd 83EC18   		subl	$24, %esp
1208:mtk_resgenerator.cpp ****     /*----------------------------------------------------------------*/
1209:mtk_resgenerator.cpp ****     /* Local Variables                                                */
1210:mtk_resgenerator.cpp ****     /*----------------------------------------------------------------*/
1211:mtk_resgenerator.cpp **** 
1212:mtk_resgenerator.cpp ****     /*----------------------------------------------------------------*/
1213:mtk_resgenerator.cpp ****     /* Code Body                                                      */
1214:mtk_resgenerator.cpp ****     /*----------------------------------------------------------------*/
1215:mtk_resgenerator.cpp ****     RESGEN_LOG_V("PopulateFontSearch(): Filled ID map and search map tabls");
 4216              	LM164:
 4217              	LBB8:
 4218 16e0 C7442408 		movl	$LC49, 8(%esp)
 4218      A0160000 
 4219 16e8 C7442404 		movl	$LC1, 4(%esp)
 4219      3E000000 
 4220 16f0 C7042401 		movl	$1, (%esp)
 4220      000000
 4221 16f7 E8000000 		call	_reslog_adaptor_log
 4221      00
1216:mtk_resgenerator.cpp **** 
1217:mtk_resgenerator.cpp ****     PopulateSearchMap_Ext(
 4223              	LM165:
 4224 16fc C7442410 		movl	$65535, 16(%esp)
 4224      FFFF0000 
 4225 1704 C744240C 		movl	$_CurrMaxSearchFontIdEXT, 12(%esp)
 4225      00000000 
 4226 170c C7442408 		movl	$_CurrMaxFontIdEXT, 8(%esp)
 4226      00000000 
 4227 1714 C7442404 		movl	$_FontIdSearchMapEXT, 4(%esp)
 4227      00000000 
 4228 171c C7042400 		movl	$_FontIdMapEXT, (%esp)
 4228      000000
 4229 1723 E878FCFF 		call	__Z21PopulateSearchMap_ExtP13CUSTOM_ID_MAPP20CUSTOM_ID_SEARCH_MAPPtS3_t
 4229      FF
1218:mtk_resgenerator.cpp ****         (CUSTOM_ID_MAP *)FontIdMapEXT,
1219:mtk_resgenerator.cpp ****         (CUSTOM_ID_SEARCH_MAP *)FontIdSearchMapEXT,
1220:mtk_resgenerator.cpp ****         (unsigned short *)&CurrMaxFontIdEXT,
1221:mtk_resgenerator.cpp ****         (unsigned short *)&CurrMaxSearchFontIdEXT,
1222:mtk_resgenerator.cpp ****         MAX_FONT_IDS_SIZE);
1223:mtk_resgenerator.cpp **** }
 4231              	LM166:
 4232 1728 C9       		leave
 4233 1729 C3       		ret
GAS LISTING d:/github/AIOT_WORKSHOP/AIoT_MT2503AVE_SDK/11CW1418SP4_03_CORETEK03AE_11C_V1_GPRS_MMI/plutommi/Customer/ResGenerator/gcctmp/ccmAfaaa.s 			page 53


 4234              	LBE8:
 4235              	Lscope7:
 4237 172a 90909090 		.align 32
 4237      90909090 
 4237      90909090 
 4237      90909090 
 4237      90909090 
 4238              	LC50:
 4239 1740 0A2F2A2A 		.ascii "\12/************************************************************** \12 FILENAME\11:  \12 P
 4239      2A2A2A2A 
 4239      2A2A2A2A 
 4239      2A2A2A2A 
 4239      2A2A2A2A 
 4240              	LC51:
 4241 182a 23696E63 		.ascii "#include \"CustDataRes.h\"\12\0"
 4241      6C756465 
 4241      20224375 
 4241      73744461 
 4241      74615265 
 4242              	LC52:
 4243 1844 23696E63 		.ascii "#include \"CustResDef.h\"\12\12\0"
 4243      6C756465 
 4243      20224375 
 4243      73745265 
 4243      73446566 
 4244 185e 89F6     		.align 32
 4245              	LC53:
 4246 1860 65787465 		.ascii "extern CUSTOM_FONT_MAP mtk_CustFontMapEXT[];\12\0"
 4246      726E2043 
 4246      5553544F 
 4246      4D5F464F 
 4246      4E545F4D 
 4247 188e 90909090 		.align 32
 4247      90909090 
 4247      90909090 
 4247      90909090 
 4247      9090
 4248              	LC54:
 4249 18a0 65787465 		.ascii "extern CUSTOM_FONT_SEARCH_MAP mtk_CustFontSearchMapEXT[];\12\0"
 4249      726E2043 
 4249      5553544F 
 4249      4D5F464F 
 4249      4E545F53 
 4250 18db 908D7426 		.align 32
 4250      00
 4251              	LC55:
 4252 18e0 636F6E73 		.ascii "const S8 CustImgPath[]=CUST_IMG_PATH;\12\0"
 4252      74205338 
 4252      20437573 
 4252      74496D67 
 4252      50617468 
 4253 1907 90909090 		.align 32
 4253      90909090 
 4253      90909090 
 4253      90909090 
 4253      90909090 
 4254              	LC56:
GAS LISTING d:/github/AIOT_WORKSHOP/AIoT_MT2503AVE_SDK/11CW1418SP4_03_CORETEK03AE_11C_V1_GPRS_MMI/plutommi/Customer/ResGenerator/gcctmp/ccmAfaaa.s 			page 54


 4255 1920 2F2F636F 		.ascii "//const S8 CustImgPath[]=CUST_IMG_PATH;\12\0"
 4255      6E737420 
 4255      53382043 
 4255      75737449 
 4255      6D675061 
 4256 1949 90909090 		.align 32
 4256      90909090 
 4256      90909090 
 4256      90909090 
 4256      90909090 
 4257              	LC57:
 4258 1960 636F6E73 		.ascii "const S8 CustAdoPath[]=CUST_ADO_PATH;\12\0"
 4258      74205338 
 4258      20437573 
 4258      7441646F 
 4258      50617468 
 4259 1987 90909090 		.align 32
 4259      90909090 
 4259      90909090 
 4259      90909090 
 4259      90909090 
 4260              	LC58:
 4261 19a0 2F2F636F 		.ascii "//const S8 CustAdoPath[]=CUST_ADO_PATH;\12\0"
 4261      6E737420 
 4261      53382043 
 4261      75737441 
 4261      646F5061 
 4262 19c9 90909090 		.align 32
 4262      90909090 
 4262      90909090 
 4262      90909090 
 4262      90909090 
 4263              	LC59:
 4264 19e0 636F6E73 		.ascii "const S8 CustBinaryPath[]=CUST_BINARY_PATH;\12\0"
 4264      74205338 
 4264      20437573 
 4264      7442696E 
 4264      61727950 
 4265              	LC60:
 4266 1a0d 636F6E73 		.ascii "const unsigned short  %s=%d;\12\0"
 4266      7420756E 
 4266      7369676E 
 4266      65642073 
 4266      686F7274 
 4267 1a2b 90909090 		.align 32
 4267      90909090 
 4267      90909090 
 4267      90909090 
 4267      90909090 
 4268              	LC61:
 4269 1a40 0A23696E 		.ascii "\12#include \"ResCompressConfig.h\"\12\12\0"
 4269      636C7564 
 4269      65202252 
 4269      6573436F 
 4269      6D707265 
 4270              	LC62:
 4271 1a62 23696E63 		.ascii "#include \"CustGameDataHW.h\"\12\0"
GAS LISTING d:/github/AIOT_WORKSHOP/AIoT_MT2503AVE_SDK/11CW1418SP4_03_CORETEK03AE_11C_V1_GPRS_MMI/plutommi/Customer/ResGenerator/gcctmp/ccmAfaaa.s 			page 55


 4271      6C756465 
 4271      20224375 
 4271      73744761 
 4271      6D654461 
 4272 1a7f 90       		.align 32
 4273              	LC63:
 4274 1a80 23696620 		.ascii "#if !defined(__MMI_RESOURCE_IMAGE_GROUP_COMPRESS__) || defined(__MMI_RESOURCE_UT_UNCOMPRES
 4274      21646566 
 4274      696E6564 
 4274      285F5F4D 
 4274      4D495F52 
 4275              	LC64:
 4276 1af1 23696E63 		.ascii "#include \"%s\"\12\0"
 4276      6C756465 
 4276      20222573 
 4276      220A00
 4277              	LC65:
 4278 1b00 636F6E73 		.ascii "const %s\11%s[]={\12\0"
 4278      74202573 
 4278      0925735B 
 4278      5D3D7B0A 
 4278      00
 4279              	LC66:
 4280 1b11 2855382A 		.ascii "(U8*)&%s,\12\0"
 4280      29262573 
 4280      2C0A00
 4281              	LC67:
 4282 1b1c 7D3B0A0A 		.ascii "};\12\12\12\12\0"
 4282      0A0A00
 4283              	LC68:
 4284 1b23 636F6E73 		.ascii "const %s\11%s[1] = {NULL};\12\0"
 4284      74202573 
 4284      0925735B 
 4284      315D203D 
 4284      207B4E55 
 4285 1b3d 8D7600   		.align 32
 4286              	LC69:
 4287 1b40 636F6E73 		.ascii "const CUSTPACK_IMAGE_HEADER mtk_image_header={%d, (%s *)%s};\0"
 4287      74204355 
 4287      53545041 
 4287      434B5F49 
 4287      4D414745 
 4288 1b7d 8D7600   		.align 32
 4289              	LC70:
 4290 1b80 636F6E73 		.ascii "const CUSTPACK_AUDIO_HEADER mtk_audio_header={%d, (%s *)%s};\0"
 4290      74204355 
 4290      53545041 
 4290      434B5F41 
 4290      5544494F 
 4291 1bbd 8D7600   		.align 32
 4292              	LC71:
 4293 1bc0 636F6E73 		.ascii "const CUSTPACK_BINARY_HEADER mtk_binary_header={%d, (%s *)%s};\0"
 4293      74204355 
 4293      53545041 
 4293      434B5F42 
 4293      494E4152 
 4294 1bff 90       		.align 32
GAS LISTING d:/github/AIOT_WORKSHOP/AIoT_MT2503AVE_SDK/11CW1418SP4_03_CORETEK03AE_11C_V1_GPRS_MMI/plutommi/Customer/ResGenerator/gcctmp/ccmAfaaa.s 			page 56


 4295              	LC72:
 4296 1c00 636F6E73 		.ascii "const CUSTPACK_FONT_HEADER mtk_font_header={%d, %d, (%s *)%s, mtk_CustFontMapEXT, mtk_Cust
 4296      74204355 
 4296      53545041 
 4296      434B5F46 
 4296      4F4E545F 
 4297 1c6d 90909090 		.align 32
 4297      90909090 
 4297      90909090 
 4297      90909090 
 4297      909090
 4298              	LC73:
 4299 1c80 23656E64 		.ascii "#endif//!__MMI_RESOURCE_IMAGE_GROUP_COMPRESS__ || __MMI_RESOURCE_UT_UNCOMPRESSED_IMAGE_SUP
 4299      69662F2F 
 4299      215F5F4D 
 4299      4D495F52 
 4299      45534F55 
 4300              		.align 2
 4316              	__Z19GenerateResFile_Exti18RESOURCE_TYPE_LISTP16CUSTOM_NAME_LISTtPcS2_S2_S2_S2_S2_S2_S2_j:
1224:mtk_resgenerator.cpp **** 
1225:mtk_resgenerator.cpp **** /*****************************************************************************
1226:mtk_resgenerator.cpp **** * FUNCTION
1227:mtk_resgenerator.cpp **** *  GenerateResFile_Ext
1228:mtk_resgenerator.cpp **** * DESCRIPTION
1229:mtk_resgenerator.cpp **** *  generate resource file
1230:mtk_resgenerator.cpp **** * PARAMETERS
1231:mtk_resgenerator.cpp **** *  flag                [IN]    CustPack or not
1232:mtk_resgenerator.cpp **** *  type                [IN]    image or audio
1233:mtk_resgenerator.cpp **** *  pName               [IN]    resource name list
1234:mtk_resgenerator.cpp **** *  nSize               [IN]    size
1235:mtk_resgenerator.cpp **** *  str_CustDataHW      [IN]    output header name
1236:mtk_resgenerator.cpp **** *  str_mtk_CurrMaxNum  [IN]    output variable name
1237:mtk_resgenerator.cpp **** *  str_CurrMaxNum      [IN]    output variable name
1238:mtk_resgenerator.cpp **** *  str_mtk_nCustNames  [IN]    output variable name
1239:mtk_resgenerator.cpp **** *  str_nCustNames      [IN]    output variable name
1240:mtk_resgenerator.cpp **** *  str_NameList        [IN]    output variable name
1241:mtk_resgenerator.cpp **** *  str_CustType        [IN]    output type name
1242:mtk_resgenerator.cpp **** *  curr_data_filename  [IN]    output file name
1243:mtk_resgenerator.cpp **** * RETURNS
1244:mtk_resgenerator.cpp **** *  void
1245:mtk_resgenerator.cpp **** *****************************************************************************/
1246:mtk_resgenerator.cpp **** static void GenerateResFile_Ext(
1247:mtk_resgenerator.cpp ****                                 BOOL flag,
1248:mtk_resgenerator.cpp ****                                 RESOURCE_TYPE_LIST type,
1249:mtk_resgenerator.cpp ****                                 CUSTOM_NAME_LIST *pName,
1250:mtk_resgenerator.cpp ****                                 U16 nSize,
1251:mtk_resgenerator.cpp ****                                 char *str_CustDataHW,
1252:mtk_resgenerator.cpp ****                                 char *str_mtk_CurrMaxNum,
1253:mtk_resgenerator.cpp ****                                 char *str_CurrMaxNum,
1254:mtk_resgenerator.cpp ****                                 char *str_mtk_nCustNames,
1255:mtk_resgenerator.cpp ****                                 char *str_nCustNames,
1256:mtk_resgenerator.cpp ****                                 char *str_NameList,
1257:mtk_resgenerator.cpp ****                                 char *str_CustType,
1258:mtk_resgenerator.cpp ****                                 char *curr_data_filename,
1259:mtk_resgenerator.cpp ****                                 U32 extFlag)
1260:mtk_resgenerator.cpp **** {
 4318              	LM167:
GAS LISTING d:/github/AIOT_WORKSHOP/AIoT_MT2503AVE_SDK/11CW1418SP4_03_CORETEK03AE_11C_V1_GPRS_MMI/plutommi/Customer/ResGenerator/gcctmp/ccmAfaaa.s 			page 57


 4319 1ce2 55       		pushl	%ebp
 4320 1ce3 89E5     		movl	%esp, %ebp
 4321 1ce5 81EC3802 		subl	$568, %esp
 4321      0000
 4322 1ceb 8B4514   		movl	20(%ebp), %eax
 4323 1cee 668945F6 		movw	%ax, -10(%ebp)
1261:mtk_resgenerator.cpp ****     /*----------------------------------------------------------------*/
1262:mtk_resgenerator.cpp ****     /* Local Variables                                                */
1263:mtk_resgenerator.cpp ****     /*----------------------------------------------------------------*/
1264:mtk_resgenerator.cpp ****     FILE *pFile;
1265:mtk_resgenerator.cpp **** 
1266:mtk_resgenerator.cpp ****     /*----------------------------------------------------------------*/
1267:mtk_resgenerator.cpp ****     /* Code Body                                                      */
1268:mtk_resgenerator.cpp ****     /*----------------------------------------------------------------*/
1269:mtk_resgenerator.cpp ****     if(pFile = fopen(curr_data_filename, "w"))
 4325              	LM168:
 4326              	LBB9:
 4327              	LBB10:
 4328 1cf2 C7442404 		movl	$LC2, 4(%esp)
 4328      4F000000 
 4329 1cfa 8B4534   		movl	52(%ebp), %eax
 4330 1cfd 890424   		movl	%eax, (%esp)
 4331 1d00 E8000000 		call	_fopen
 4331      00
 4332 1d05 8945F0   		movl	%eax, -16(%ebp)
 4333 1d08 837DF000 		cmpl	$0, -16(%ebp)
 4334 1d0c 0F845E03 		je	L64
 4334      0000
1270:mtk_resgenerator.cpp ****     {
1271:mtk_resgenerator.cpp ****         fprintf(pFile, "/**\n *	Copyright Notice\n *	?2002 - 2003, Pixtel Communications, Inc., 148
 4336              	LM169:
 4337              	LBB11:
 4338 1d12 C7442404 		movl	$LC4, 4(%esp)
 4338      A0000000 
 4339 1d1a 8B45F0   		movl	-16(%ebp), %eax
 4340 1d1d 890424   		movl	%eax, (%esp)
 4341 1d20 E8000000 		call	_fprintf
 4341      00
1272:mtk_resgenerator.cpp ****         fprintf(pFile, "\n/************************************************************** \n FILENA
 4343              	LM170:
 4344 1d25 C7442404 		movl	$LC50, 4(%esp)
 4344      40170000 
 4345 1d2d 8B45F0   		movl	-16(%ebp), %eax
 4346 1d30 890424   		movl	%eax, (%esp)
 4347 1d33 E8000000 		call	_fprintf
 4347      00
1273:mtk_resgenerator.cpp ****         fprintf(pFile, "#include \"CustDataRes.h\"\n");
 4349              	LM171:
 4350 1d38 C7442404 		movl	$LC51, 4(%esp)
 4350      2A180000 
 4351 1d40 8B45F0   		movl	-16(%ebp), %eax
 4352 1d43 890424   		movl	%eax, (%esp)
 4353 1d46 E8000000 		call	_fprintf
 4353      00
1274:mtk_resgenerator.cpp ****         fprintf(pFile, "#include \"CustResDef.h\"\n\n");
 4355              	LM172:
 4356 1d4b C7442404 		movl	$LC52, 4(%esp)
GAS LISTING d:/github/AIOT_WORKSHOP/AIoT_MT2503AVE_SDK/11CW1418SP4_03_CORETEK03AE_11C_V1_GPRS_MMI/plutommi/Customer/ResGenerator/gcctmp/ccmAfaaa.s 			page 58


 4356      44180000 
 4357 1d53 8B45F0   		movl	-16(%ebp), %eax
 4358 1d56 890424   		movl	%eax, (%esp)
 4359 1d59 E8000000 		call	_fprintf
 4359      00
1275:mtk_resgenerator.cpp **** 
1276:mtk_resgenerator.cpp **** #ifdef __MMI_FONT_THIRD_ROM_SUPPORT__
1277:mtk_resgenerator.cpp ****         if(type == RES_FONT)
1278:mtk_resgenerator.cpp ****         {
1279:mtk_resgenerator.cpp ****             fprintf(pFile, "#ifdef __MMI_FONT_THIRD_ROM_SUPPORT__\n");
1280:mtk_resgenerator.cpp ****             fprintf(pFile, "#include \"GlobalResDef.h\"\n");
1281:mtk_resgenerator.cpp ****             fprintf(pFile, "#endif\n");
1282:mtk_resgenerator.cpp ****         }
1283:mtk_resgenerator.cpp **** #endif
1284:mtk_resgenerator.cpp ****         if(type == RES_FONT)
 4361              	LM173:
 4362 1d5e 837D0C04 		cmpl	$4, 12(%ebp)
 4363 1d62 752B     		jne	L66
1285:mtk_resgenerator.cpp ****         {
1286:mtk_resgenerator.cpp ****             fprintf(pFile, "extern CUSTOM_FONT_MAP mtk_CustFontMapEXT[];\n");
 4365              	LM174:
 4366 1d64 C7442404 		movl	$LC53, 4(%esp)
 4366      60180000 
 4367 1d6c 8B45F0   		movl	-16(%ebp), %eax
 4368 1d6f 890424   		movl	%eax, (%esp)
 4369 1d72 E8000000 		call	_fprintf
 4369      00
1287:mtk_resgenerator.cpp ****             fprintf(pFile, "extern CUSTOM_FONT_SEARCH_MAP mtk_CustFontSearchMapEXT[];\n");
 4371              	LM175:
 4372 1d77 C7442404 		movl	$LC54, 4(%esp)
 4372      A0180000 
 4373 1d7f 8B45F0   		movl	-16(%ebp), %eax
 4374 1d82 890424   		movl	%eax, (%esp)
 4375 1d85 E8000000 		call	_fprintf
 4375      00
 4376 1d8a E9850000 		jmp	L67
 4376      00
 4377              	L66:
1288:mtk_resgenerator.cpp ****         }
1289:mtk_resgenerator.cpp ****         else if(type == RES_IMAGE)
 4379              	LM176:
 4380 1d8f 837D0C00 		cmpl	$0, 12(%ebp)
 4381 1d93 7530     		jne	L68
1290:mtk_resgenerator.cpp ****         {
1291:mtk_resgenerator.cpp ****             if(flag == FALSE)
 4383              	LM177:
 4384 1d95 837D0800 		cmpl	$0, 8(%ebp)
 4385 1d99 7515     		jne	L69
1292:mtk_resgenerator.cpp ****             {
1293:mtk_resgenerator.cpp ****                 fprintf(pFile, "const S8 CustImgPath[]=CUST_IMG_PATH;\n");
 4387              	LM178:
 4388 1d9b C7442404 		movl	$LC55, 4(%esp)
 4388      E0180000 
 4389 1da3 8B45F0   		movl	-16(%ebp), %eax
 4390 1da6 890424   		movl	%eax, (%esp)
 4391 1da9 E8000000 		call	_fprintf
 4391      00
GAS LISTING d:/github/AIOT_WORKSHOP/AIoT_MT2503AVE_SDK/11CW1418SP4_03_CORETEK03AE_11C_V1_GPRS_MMI/plutommi/Customer/ResGenerator/gcctmp/ccmAfaaa.s 			page 59


 4392 1dae EB64     		jmp	L67
 4393              	L69:
1294:mtk_resgenerator.cpp ****             }
1295:mtk_resgenerator.cpp ****             else
1296:mtk_resgenerator.cpp ****             {
1297:mtk_resgenerator.cpp ****                 fprintf(pFile, "\/\/const S8 CustImgPath[]=CUST_IMG_PATH;\n");
 4395              	LM179:
 4396 1db0 C7442404 		movl	$LC56, 4(%esp)
 4396      20190000 
 4397 1db8 8B45F0   		movl	-16(%ebp), %eax
 4398 1dbb 890424   		movl	%eax, (%esp)
 4399 1dbe E8000000 		call	_fprintf
 4399      00
 4400 1dc3 EB4F     		jmp	L67
 4401              	L68:
1298:mtk_resgenerator.cpp **** // Append a dummy image for CAT reserved space only when __CAT_SUPPORT__ is defined
1299:mtk_resgenerator.cpp **** #if defined(__CAT_SUPPORT__) && defined(MMIRESOURCE_CAT_IMG_RESERVED_SIZE_BYTE) && (MMIRESOURCE_CAT
1300:mtk_resgenerator.cpp ****                 fprintf(pFile, "extern const U8 cat_reserved_space[];\n");
1301:mtk_resgenerator.cpp **** #endif
1302:mtk_resgenerator.cpp ****             }
1303:mtk_resgenerator.cpp ****         }
1304:mtk_resgenerator.cpp ****         else if(type == RES_AUDIO)
 4403              	LM180:
 4404 1dc5 837D0C02 		cmpl	$2, 12(%ebp)
 4405 1dc9 7530     		jne	L72
1305:mtk_resgenerator.cpp ****         {
1306:mtk_resgenerator.cpp ****             if(flag == FALSE)
 4407              	LM181:
 4408 1dcb 837D0800 		cmpl	$0, 8(%ebp)
 4409 1dcf 7515     		jne	L73
1307:mtk_resgenerator.cpp ****             {
1308:mtk_resgenerator.cpp ****                 fprintf(pFile, "const S8 CustAdoPath[]=CUST_ADO_PATH;\n");
 4411              	LM182:
 4412 1dd1 C7442404 		movl	$LC57, 4(%esp)
 4412      60190000 
 4413 1dd9 8B45F0   		movl	-16(%ebp), %eax
 4414 1ddc 890424   		movl	%eax, (%esp)
 4415 1ddf E8000000 		call	_fprintf
 4415      00
 4416 1de4 EB2E     		jmp	L67
 4417              	L73:
1309:mtk_resgenerator.cpp ****             }
1310:mtk_resgenerator.cpp ****             else
1311:mtk_resgenerator.cpp ****             {
1312:mtk_resgenerator.cpp ****                 fprintf(pFile, "\/\/const S8 CustAdoPath[]=CUST_ADO_PATH;\n");
 4419              	LM183:
 4420 1de6 C7442404 		movl	$LC58, 4(%esp)
 4420      A0190000 
 4421 1dee 8B45F0   		movl	-16(%ebp), %eax
 4422 1df1 890424   		movl	%eax, (%esp)
 4423 1df4 E8000000 		call	_fprintf
 4423      00
 4424 1df9 EB19     		jmp	L67
 4425              	L72:
1313:mtk_resgenerator.cpp ****             }
1314:mtk_resgenerator.cpp ****         }
1315:mtk_resgenerator.cpp ****         else if(type == RES_BINARY)
GAS LISTING d:/github/AIOT_WORKSHOP/AIoT_MT2503AVE_SDK/11CW1418SP4_03_CORETEK03AE_11C_V1_GPRS_MMI/plutommi/Customer/ResGenerator/gcctmp/ccmAfaaa.s 			page 60


 4427              	LM184:
 4428 1dfb 837D0C05 		cmpl	$5, 12(%ebp)
 4429 1dff 7513     		jne	L67
1316:mtk_resgenerator.cpp ****         {
1317:mtk_resgenerator.cpp ****             fprintf(pFile, "const S8 CustBinaryPath[]=CUST_BINARY_PATH;\n");
 4431              	LM185:
 4432 1e01 C7442404 		movl	$LC59, 4(%esp)
 4432      E0190000 
 4433 1e09 8B45F0   		movl	-16(%ebp), %eax
 4434 1e0c 890424   		movl	%eax, (%esp)
 4435 1e0f E8000000 		call	_fprintf
 4435      00
 4436              	L67:
1318:mtk_resgenerator.cpp ****         }
1319:mtk_resgenerator.cpp **** 
1320:mtk_resgenerator.cpp **** #ifdef __MULTI_BIN_LOAD__
1321:mtk_resgenerator.cpp ****         fprintf(pFile, "const unsigned short  %s=%d;\n", str_mtk_CurrMaxNum, nSize);
 4438              	LM186:
 4439 1e14 0FB745F6 		movzwl	-10(%ebp), %eax
 4440 1e18 8944240C 		movl	%eax, 12(%esp)
 4441 1e1c 8B451C   		movl	28(%ebp), %eax
 4442 1e1f 89442408 		movl	%eax, 8(%esp)
 4443 1e23 C7442404 		movl	$LC60, 4(%esp)
 4443      0D1A0000 
 4444 1e2b 8B45F0   		movl	-16(%ebp), %eax
 4445 1e2e 890424   		movl	%eax, (%esp)
 4446 1e31 E8000000 		call	_fprintf
 4446      00
1322:mtk_resgenerator.cpp **** #else
1323:mtk_resgenerator.cpp ****         fprintf(pFile, "unsigned short  %s=%d;\n", str_CurrMaxNum, nSize);
1324:mtk_resgenerator.cpp **** #endif
1325:mtk_resgenerator.cpp **** 
1326:mtk_resgenerator.cpp ****         if((type == RES_IMAGE) && (flag == FALSE))
 4448              	LM187:
 4449 1e36 837D0C00 		cmpl	$0, 12(%ebp)
 4450 1e3a 755B     		jne	L77
 4451 1e3c 837D0800 		cmpl	$0, 8(%ebp)
 4452 1e40 7555     		jne	L77
1327:mtk_resgenerator.cpp ****         {
1328:mtk_resgenerator.cpp ****         
1329:mtk_resgenerator.cpp ****             fputs("\n#include \"ResCompressConfig.h\"\n\n", pFile);
 4454              	LM188:
 4455 1e42 8B45F0   		movl	-16(%ebp), %eax
 4456 1e45 89442404 		movl	%eax, 4(%esp)
 4457 1e49 C7042440 		movl	$LC61, (%esp)
 4457      1A0000
 4458 1e50 E8000000 		call	_fputs
 4458      00
1330:mtk_resgenerator.cpp ****             fprintf( pFile, "#include \"CustGameDataHW.h\"\n");
 4460              	LM189:
 4461 1e55 C7442404 		movl	$LC62, 4(%esp)
 4461      621A0000 
 4462 1e5d 8B45F0   		movl	-16(%ebp), %eax
 4463 1e60 890424   		movl	%eax, (%esp)
 4464 1e63 E8000000 		call	_fprintf
 4464      00
1331:mtk_resgenerator.cpp ****             fprintf( pFile, "#if !defined(__MMI_RESOURCE_IMAGE_GROUP_COMPRESS__) || defined(__MMI_R
GAS LISTING d:/github/AIOT_WORKSHOP/AIoT_MT2503AVE_SDK/11CW1418SP4_03_CORETEK03AE_11C_V1_GPRS_MMI/plutommi/Customer/ResGenerator/gcctmp/ccmAfaaa.s 			page 61


 4466              	LM190:
 4467 1e68 C7442404 		movl	$LC63, 4(%esp)
 4467      801A0000 
 4468 1e70 8B45F0   		movl	-16(%ebp), %eax
 4469 1e73 890424   		movl	%eax, (%esp)
 4470 1e76 E8000000 		call	_fprintf
 4470      00
1332:mtk_resgenerator.cpp ****             fprintf( pFile, "#include \"%s\"\n", str_CustDataHW);
 4472              	LM191:
 4473 1e7b 8B4518   		movl	24(%ebp), %eax
 4474 1e7e 89442408 		movl	%eax, 8(%esp)
 4475 1e82 C7442404 		movl	$LC64, 4(%esp)
 4475      F11A0000 
 4476 1e8a 8B45F0   		movl	-16(%ebp), %eax
 4477 1e8d 890424   		movl	%eax, (%esp)
 4478 1e90 E8000000 		call	_fprintf
 4478      00
 4479 1e95 EB1A     		jmp	L78
 4480              	L77:
1333:mtk_resgenerator.cpp ****         }else{
1334:mtk_resgenerator.cpp ****             fprintf(pFile, "#include \"%s\"\n", str_CustDataHW);	        
 4482              	LM192:
 4483 1e97 8B4518   		movl	24(%ebp), %eax
 4484 1e9a 89442408 		movl	%eax, 8(%esp)
 4485 1e9e C7442404 		movl	$LC64, 4(%esp)
 4485      F11A0000 
 4486 1ea6 8B45F0   		movl	-16(%ebp), %eax
 4487 1ea9 890424   		movl	%eax, (%esp)
 4488 1eac E8000000 		call	_fprintf
 4488      00
 4489              	L78:
1335:mtk_resgenerator.cpp ****         }
1336:mtk_resgenerator.cpp **** 
1337:mtk_resgenerator.cpp **** 
1338:mtk_resgenerator.cpp ****         /* writing the image filename inside the file. */
1339:mtk_resgenerator.cpp ****         if(nSize)
 4491              	LM193:
 4492              	LBB12:
 4493 1eb1 66837DF6 		cmpw	$0, -10(%ebp)
 4493      00
 4494 1eb6 0F849500 		je	L79
 4494      0000
1340:mtk_resgenerator.cpp ****         {
1341:mtk_resgenerator.cpp ****             int i = 0;
 4496              	LM194:
 4497              	LBB13:
 4498 1ebc C745EC00 		movl	$0, -20(%ebp)
 4498      000000
1342:mtk_resgenerator.cpp **** 
1343:mtk_resgenerator.cpp **** #ifdef __MULTI_BIN_LOAD__
1344:mtk_resgenerator.cpp ****             fprintf(pFile, "const %s	%s[]={\n", str_CustType, str_mtk_nCustNames);
 4500              	LM195:
 4501 1ec3 8B4524   		movl	36(%ebp), %eax
 4502 1ec6 8944240C 		movl	%eax, 12(%esp)
 4503 1eca 8B4530   		movl	48(%ebp), %eax
 4504 1ecd 89442408 		movl	%eax, 8(%esp)
 4505 1ed1 C7442404 		movl	$LC65, 4(%esp)
GAS LISTING d:/github/AIOT_WORKSHOP/AIoT_MT2503AVE_SDK/11CW1418SP4_03_CORETEK03AE_11C_V1_GPRS_MMI/plutommi/Customer/ResGenerator/gcctmp/ccmAfaaa.s 			page 62


 4505      001B0000 
 4506 1ed9 8B45F0   		movl	-16(%ebp), %eax
 4507 1edc 890424   		movl	%eax, (%esp)
 4508 1edf E8000000 		call	_fprintf
 4508      00
1345:mtk_resgenerator.cpp **** #else
1346:mtk_resgenerator.cpp ****             fprintf(pFile, "const %s	%s[]={\n", str_CustType, str_nCustNames);
1347:mtk_resgenerator.cpp **** #endif
1348:mtk_resgenerator.cpp **** 
1349:mtk_resgenerator.cpp ****             for(i = 0; i < nSize; i++)
 4510              	LM196:
 4511              	LBB14:
 4512 1ee4 C745EC00 		movl	$0, -20(%ebp)
 4512      000000
 4513              	L80:
 4514 1eeb 0FB745F6 		movzwl	-10(%ebp), %eax
 4515 1eef 3945EC   		cmpl	%eax, -20(%ebp)
 4516 1ef2 7C02     		jl	L83
 4517 1ef4 EB46     		jmp	L81
 4518              	L83:
1350:mtk_resgenerator.cpp ****             {
1351:mtk_resgenerator.cpp ****                 S8 pBuffName[512];
1352:mtk_resgenerator.cpp **** 
1353:mtk_resgenerator.cpp ****                 Extract_Name(pBuffName, pName[i].filename, extFlag);
 4520              	LM197:
 4521              	LBB15:
 4522              	LBB16:
 4523 1ef6 8B4538   		movl	56(%ebp), %eax
 4524 1ef9 89442408 		movl	%eax, 8(%esp)
 4525 1efd 8B45EC   		movl	-20(%ebp), %eax
 4526 1f00 C1E009   		sall	$9, %eax
 4527 1f03 034510   		addl	16(%ebp), %eax
 4528 1f06 89442404 		movl	%eax, 4(%esp)
 4529 1f0a 8D85E8FD 		leal	-536(%ebp), %eax
 4529      FFFF
 4530 1f10 890424   		movl	%eax, (%esp)
 4531 1f13 E8000000 		call	_Extract_Name
 4531      00
1354:mtk_resgenerator.cpp ****                 #ifdef __MMI_FONT_THIRD_ROM_SUPPORT__
1355:mtk_resgenerator.cpp ****                 if(type == RES_FONT)
1356:mtk_resgenerator.cpp ****                     fprintf(pFile, "(U8*)NULL,\n");
1357:mtk_resgenerator.cpp ****                 else
1358:mtk_resgenerator.cpp ****                 #endif
1359:mtk_resgenerator.cpp ****                 fprintf(pFile, "(U8*)&%s,\n", pBuffName);
 4533              	LM198:
 4534 1f18 8D85E8FD 		leal	-536(%ebp), %eax
 4534      FFFF
 4535 1f1e 89442408 		movl	%eax, 8(%esp)
 4536 1f22 C7442404 		movl	$LC66, 4(%esp)
 4536      111B0000 
 4537 1f2a 8B45F0   		movl	-16(%ebp), %eax
 4538 1f2d 890424   		movl	%eax, (%esp)
 4539 1f30 E8000000 		call	_fprintf
 4539      00
 4541              	LM199:
 4542 1f35 8D45EC   		leal	-20(%ebp), %eax
 4543              	LBE16:
GAS LISTING d:/github/AIOT_WORKSHOP/AIoT_MT2503AVE_SDK/11CW1418SP4_03_CORETEK03AE_11C_V1_GPRS_MMI/plutommi/Customer/ResGenerator/gcctmp/ccmAfaaa.s 			page 63


 4544              	LBE15:
 4545 1f38 FF00     		incl	(%eax)
 4546 1f3a EBAF     		jmp	L80
 4547              	L81:
1360:mtk_resgenerator.cpp ****             }
1361:mtk_resgenerator.cpp **** 
1362:mtk_resgenerator.cpp **** #if defined(__CAT_SUPPORT__) && defined(MMIRESOURCE_CAT_IMG_RESERVED_SIZE_BYTE) && (MMIRESOURCE_CAT
1363:mtk_resgenerator.cpp ****             /* Add reserved space for CAT tool to image RES regions*/
1364:mtk_resgenerator.cpp ****             if(type == RES_IMAGE && flag != FALSE){
1365:mtk_resgenerator.cpp ****                 fprintf(pFile, "(U8*)&cat_reserved_space,\n");
1366:mtk_resgenerator.cpp ****             }
1367:mtk_resgenerator.cpp **** #endif
1368:mtk_resgenerator.cpp ****             fprintf(pFile, "};\n\n\n\n");
 4549              	LM200:
 4550              	LBE14:
 4551 1f3c C7442404 		movl	$LC67, 4(%esp)
 4551      1C1B0000 
 4552 1f44 8B45F0   		movl	-16(%ebp), %eax
 4553 1f47 890424   		movl	%eax, (%esp)
 4554 1f4a E8000000 		call	_fprintf
 4554      00
 4555              	LBE13:
 4556 1f4f EB21     		jmp	L84
 4557              	L79:
1369:mtk_resgenerator.cpp ****         }
1370:mtk_resgenerator.cpp ****         else
1371:mtk_resgenerator.cpp ****         {
1372:mtk_resgenerator.cpp **** #ifdef __MULTI_BIN_LOAD__
1373:mtk_resgenerator.cpp ****             fprintf(pFile, "const %s	%s[1] = {NULL};\n", str_CustType, str_mtk_nCustNames);
 4559              	LM201:
 4560 1f51 8B4524   		movl	36(%ebp), %eax
 4561 1f54 8944240C 		movl	%eax, 12(%esp)
 4562 1f58 8B4530   		movl	48(%ebp), %eax
 4563 1f5b 89442408 		movl	%eax, 8(%esp)
 4564 1f5f C7442404 		movl	$LC68, 4(%esp)
 4564      231B0000 
 4565 1f67 8B45F0   		movl	-16(%ebp), %eax
 4566 1f6a 890424   		movl	%eax, (%esp)
 4567 1f6d E8000000 		call	_fprintf
 4567      00
 4568              	L84:
1374:mtk_resgenerator.cpp **** #else
1375:mtk_resgenerator.cpp ****             fprintf(pFile, "const %s	%s[1] = {NULL};\n", str_CustType, str_nCustNames);
1376:mtk_resgenerator.cpp **** #endif
1377:mtk_resgenerator.cpp ****         }
1378:mtk_resgenerator.cpp **** 
1379:mtk_resgenerator.cpp ****         if(flag == TRUE)
 4570              	LM202:
 4571              	LBE12:
 4572              	LBB17:
 4573 1f72 837D0801 		cmpl	$1, 8(%ebp)
 4574 1f76 0F85D000 		jne	L85
 4574      0000
1380:mtk_resgenerator.cpp ****         {
1381:mtk_resgenerator.cpp ****             if(type == RES_IMAGE)
 4576              	LM203:
 4577              	LBB18:
GAS LISTING d:/github/AIOT_WORKSHOP/AIoT_MT2503AVE_SDK/11CW1418SP4_03_CORETEK03AE_11C_V1_GPRS_MMI/plutommi/Customer/ResGenerator/gcctmp/ccmAfaaa.s 			page 64


 4578 1f7c 837D0C00 		cmpl	$0, 12(%ebp)
 4579 1f80 7529     		jne	L86
1382:mtk_resgenerator.cpp ****             {
1383:mtk_resgenerator.cpp **** #ifdef __MULTI_BIN_LOAD__
1384:mtk_resgenerator.cpp ****                 fprintf(pFile, "const CUSTPACK_IMAGE_HEADER mtk_image_header={%d, (%s *)%s};", nSiz
 4581              	LM204:
 4582 1f82 8B4524   		movl	36(%ebp), %eax
 4583 1f85 89442410 		movl	%eax, 16(%esp)
 4584 1f89 8B4530   		movl	48(%ebp), %eax
 4585 1f8c 8944240C 		movl	%eax, 12(%esp)
 4586 1f90 0FB745F6 		movzwl	-10(%ebp), %eax
 4587 1f94 89442408 		movl	%eax, 8(%esp)
 4588 1f98 C7442404 		movl	$LC69, 4(%esp)
 4588      401B0000 
 4589 1fa0 8B45F0   		movl	-16(%ebp), %eax
 4590 1fa3 890424   		movl	%eax, (%esp)
 4591 1fa6 E8000000 		call	_fprintf
 4591      00
 4592              	L86:
1385:mtk_resgenerator.cpp **** #else
1386:mtk_resgenerator.cpp ****                 fprintf(pFile, "const CUSTPACK_IMAGE_HEADER mtk_image_header={%d, (%s *)%s};", nSiz
1387:mtk_resgenerator.cpp **** #endif
1388:mtk_resgenerator.cpp ****             }
1389:mtk_resgenerator.cpp **** 
1390:mtk_resgenerator.cpp ****             if(type == RES_AUDIO)
 4594              	LM205:
 4595 1fab 837D0C02 		cmpl	$2, 12(%ebp)
 4596 1faf 7529     		jne	L87
1391:mtk_resgenerator.cpp ****             {
1392:mtk_resgenerator.cpp **** #ifdef __MULTI_BIN_LOAD__
1393:mtk_resgenerator.cpp ****                 fprintf(pFile, "const CUSTPACK_AUDIO_HEADER mtk_audio_header={%d, (%s *)%s};", nSiz
 4598              	LM206:
 4599 1fb1 8B4524   		movl	36(%ebp), %eax
 4600 1fb4 89442410 		movl	%eax, 16(%esp)
 4601 1fb8 8B4530   		movl	48(%ebp), %eax
 4602 1fbb 8944240C 		movl	%eax, 12(%esp)
 4603 1fbf 0FB745F6 		movzwl	-10(%ebp), %eax
 4604 1fc3 89442408 		movl	%eax, 8(%esp)
 4605 1fc7 C7442404 		movl	$LC70, 4(%esp)
 4605      801B0000 
 4606 1fcf 8B45F0   		movl	-16(%ebp), %eax
 4607 1fd2 890424   		movl	%eax, (%esp)
 4608 1fd5 E8000000 		call	_fprintf
 4608      00
 4609              	L87:
1394:mtk_resgenerator.cpp **** #else
1395:mtk_resgenerator.cpp ****                 fprintf(pFile, "const CUSTPACK_AUDIO_HEADER mtk_audio_header={%d, (%s *)%s};", nSiz
1396:mtk_resgenerator.cpp **** #endif
1397:mtk_resgenerator.cpp ****             }
1398:mtk_resgenerator.cpp **** 
1399:mtk_resgenerator.cpp ****             if(type == RES_BINARY)
 4611              	LM207:
 4612 1fda 837D0C05 		cmpl	$5, 12(%ebp)
 4613 1fde 7529     		jne	L88
1400:mtk_resgenerator.cpp ****             {
1401:mtk_resgenerator.cpp ****                 fprintf(pFile, "const CUSTPACK_BINARY_HEADER mtk_binary_header={%d, (%s *)%s};", nS
 4615              	LM208:
GAS LISTING d:/github/AIOT_WORKSHOP/AIoT_MT2503AVE_SDK/11CW1418SP4_03_CORETEK03AE_11C_V1_GPRS_MMI/plutommi/Customer/ResGenerator/gcctmp/ccmAfaaa.s 			page 65


 4616 1fe0 8B4528   		movl	40(%ebp), %eax
 4617 1fe3 89442410 		movl	%eax, 16(%esp)
 4618 1fe7 8B4530   		movl	48(%ebp), %eax
 4619 1fea 8944240C 		movl	%eax, 12(%esp)
 4620 1fee 0FB745F6 		movzwl	-10(%ebp), %eax
 4621 1ff2 89442408 		movl	%eax, 8(%esp)
 4622 1ff6 C7442404 		movl	$LC71, 4(%esp)
 4622      C01B0000 
 4623 1ffe 8B45F0   		movl	-16(%ebp), %eax
 4624 2001 890424   		movl	%eax, (%esp)
 4625 2004 E8000000 		call	_fprintf
 4625      00
 4626              	L88:
1402:mtk_resgenerator.cpp ****             }
1403:mtk_resgenerator.cpp **** 
1404:mtk_resgenerator.cpp ****             if(type == RES_FONT)
 4628              	LM209:
 4629              	LBB19:
 4630 2009 837D0C04 		cmpl	$4, 12(%ebp)
 4631 200d 7556     		jne	L90
1405:mtk_resgenerator.cpp ****             {
1406:mtk_resgenerator.cpp ****                 int i = 0;
 4633              	LM210:
 4634              	LBB20:
 4635 200f C745EC00 		movl	$0, -20(%ebp)
 4635      000000
1407:mtk_resgenerator.cpp **** 				
1408:mtk_resgenerator.cpp **** #ifdef __MULTI_BIN_LOAD__
1409:mtk_resgenerator.cpp ****                 fprintf(pFile, "const CUSTPACK_FONT_HEADER mtk_font_header={%d, %d, (%s *)%s, mtk_C
 4637              	LM211:
 4638 2016 8B4524   		movl	36(%ebp), %eax
 4639 2019 89442414 		movl	%eax, 20(%esp)
 4640 201d 8B4530   		movl	48(%ebp), %eax
 4641 2020 89442410 		movl	%eax, 16(%esp)
 4642 2024 0FB70500 		movzwl	_CurrMaxSearchFontIdEXT, %eax
 4642      000000
 4643 202b 8944240C 		movl	%eax, 12(%esp)
 4644 202f 0FB745F6 		movzwl	-10(%ebp), %eax
 4645 2033 89442408 		movl	%eax, 8(%esp)
 4646 2037 C7442404 		movl	$LC72, 4(%esp)
 4646      001C0000 
 4647 203f 8B45F0   		movl	-16(%ebp), %eax
 4648 2042 890424   		movl	%eax, (%esp)
 4649 2045 E8000000 		call	_fprintf
 4649      00
 4650              	LBE20:
 4651              	LBE19:
 4652              	LBE18:
 4653 204a EB19     		jmp	L90
 4654              	L85:
1410:mtk_resgenerator.cpp **** #else
1411:mtk_resgenerator.cpp ****                 fprintf(pFile, "const CUSTPACK_FONT_HEADER mtk_font_header={%d, %d, (%s *)%s, mtk_C
1412:mtk_resgenerator.cpp **** #endif
1413:mtk_resgenerator.cpp ****                 #ifdef __MMI_FONT_THIRD_ROM_SUPPORT__
1414:mtk_resgenerator.cpp ****                 fprintf(pFile, "\n\n#ifdef __MMI_FONT_THIRD_ROM_SUPPORT__\n");
1415:mtk_resgenerator.cpp ****                 fprintf(pFile, "ENFB_Font_Res_Info ENFBFontResInfo[] = {\n");
1416:mtk_resgenerator.cpp ****                 for(i = 0; i < nSize; i++)
GAS LISTING d:/github/AIOT_WORKSHOP/AIoT_MT2503AVE_SDK/11CW1418SP4_03_CORETEK03AE_11C_V1_GPRS_MMI/plutommi/Customer/ResGenerator/gcctmp/ccmAfaaa.s 			page 66


1417:mtk_resgenerator.cpp ****                 {
1418:mtk_resgenerator.cpp ****                     fprintf(pFile, "{%s%d, 0x%x, 0x%x},\n", "IMG_GLOBAL_FONT_", ENFBFontResInfo[i].
1419:mtk_resgenerator.cpp ****                 }
1420:mtk_resgenerator.cpp ****                 fprintf(pFile, "};\n");
1421:mtk_resgenerator.cpp ****                 fprintf(pFile, "#endif\n");
1422:mtk_resgenerator.cpp ****                 #endif
1423:mtk_resgenerator.cpp ****             }
1424:mtk_resgenerator.cpp **** 
1425:mtk_resgenerator.cpp ****         }else{
1426:mtk_resgenerator.cpp ****             if((type == RES_IMAGE))
 4656              	LM212:
 4657 204c 837D0C00 		cmpl	$0, 12(%ebp)
 4658 2050 7513     		jne	L90
1427:mtk_resgenerator.cpp **** 	    {
1428:mtk_resgenerator.cpp **** 	        fprintf( pFile, "#endif//!__MMI_RESOURCE_IMAGE_GROUP_COMPRESS__ || __MMI_RESOURCE_UT_UNCOM
 4660              	LM213:
 4661 2052 C7442404 		movl	$LC73, 4(%esp)
 4661      801C0000 
 4662 205a 8B45F0   		movl	-16(%ebp), %eax
 4663 205d 890424   		movl	%eax, (%esp)
 4664 2060 E8000000 		call	_fprintf
 4664      00
 4665              	L90:
1429:mtk_resgenerator.cpp ****             }
1430:mtk_resgenerator.cpp ****         }
1431:mtk_resgenerator.cpp ****         fclose(pFile);
 4667              	LM214:
 4668              	LBE17:
 4669 2065 8B45F0   		movl	-16(%ebp), %eax
 4670 2068 890424   		movl	%eax, (%esp)
 4671 206b E8000000 		call	_fclose
 4671      00
1432:mtk_resgenerator.cpp ****     }
1433:mtk_resgenerator.cpp **** }
 4673              	LM215:
 4674              	L64:
 4675 2070 C9       		leave
 4676 2071 C3       		ret
 4677              	LBE11:
 4678              	LBE10:
 4679              	LBE9:
 4693              	Lscope8:
 4699 2072 8DB42600 		.align 32
 4699      0000008D 
 4699      BC270000 
 4699      0000
 4700              	LC74:
 4701 2080 47656E65 		.ascii "GenerateImageResFile(): File output: CustImgDataHW.h CustImgDataHWExt.h\0"
 4701      72617465 
 4701      496D6167 
 4701      65526573 
 4701      46696C65 
 4702 20c8 90909090 		.align 32
 4702      90909090 
 4702      90909090 
 4702      90909090 
 4702      90909090 
GAS LISTING d:/github/AIOT_WORKSHOP/AIoT_MT2503AVE_SDK/11CW1418SP4_03_CORETEK03AE_11C_V1_GPRS_MMI/plutommi/Customer/ResGenerator/gcctmp/ccmAfaaa.s 			page 67


 4703              	LC75:
 4704 20e0 2E2E5C2E 		.ascii "..\\..\\Customer\\CustResource\\CustImgMapMeta.txt\0"
 4704      2E5C4375 
 4704      73746F6D 
 4704      65725C43 
 4704      75737452 
 4705 210f 90909090 		.align 32
 4705      90909090 
 4705      90909090 
 4705      90909090 
 4705      90
 4706              	LC76:
 4707 2120 2E2E5C2E 		.ascii "..\\..\\Customer\\CustResource\\CustImgRes.c\0"
 4707      2E5C4375 
 4707      73746F6D 
 4707      65725C43 
 4707      75737452 
 4708              	LC77:
 4709 2149 43555354 		.ascii "CUSTOM_IMAGE\0"
 4709      4F4D5F49 
 4709      4D414745 
 4709      00
 4710              	LC78:
 4711 2156 496D6167 		.ascii "ImageNameList\0"
 4711      654E616D 
 4711      654C6973 
 4711      7400
 4712              	LC79:
 4713 2164 6E437573 		.ascii "nCustImageNames\0"
 4713      74496D61 
 4713      67654E61 
 4713      6D657300 
 4714              	LC80:
 4715 2174 6D746B5F 		.ascii "mtk_nCustImageNames\0"
 4715      6E437573 
 4715      74496D61 
 4715      67654E61 
 4715      6D657300 
 4716              	LC81:
 4717 2188 43757272 		.ascii "CurrMaxImageNum\0"
 4717      4D617849 
 4717      6D616765 
 4717      4E756D00 
 4718              	LC82:
 4719 2198 6D746B5F 		.ascii "mtk_CurrMaxImageNum\0"
 4719      43757272 
 4719      4D617849 
 4719      6D616765 
 4719      4E756D00 
 4720              	LC83:
 4721 21ac 43757374 		.ascii "CustImgDataHW.h\0"
 4721      496D6744 
 4721      61746148 
 4721      572E6800 
 4722 21bc 8D742600 		.align 32
 4723              	LC84:
 4724 21c0 2E2E5C2E 		.ascii "..\\..\\Customer\\CustResource\\CustImgResExt.c\0"
GAS LISTING d:/github/AIOT_WORKSHOP/AIoT_MT2503AVE_SDK/11CW1418SP4_03_CORETEK03AE_11C_V1_GPRS_MMI/plutommi/Customer/ResGenerator/gcctmp/ccmAfaaa.s 			page 68


 4724      2E5C4375 
 4724      73746F6D 
 4724      65725C43 
 4724      75737452 
 4725              	LC85:
 4726 21ec 496D6167 		.ascii "ImageNameListEXT\0"
 4726      654E616D 
 4726      654C6973 
 4726      74455854 
 4726      00
 4727              	LC86:
 4728 21fd 6E437573 		.ascii "nCustImageNamesEXT\0"
 4728      74496D61 
 4728      67654E61 
 4728      6D657345 
 4728      585400
 4729              	LC87:
 4730 2210 6D746B5F 		.ascii "mtk_nCustImageNamesEXT\0"
 4730      6E437573 
 4730      74496D61 
 4730      67654E61 
 4730      6D657345 
 4731              	LC88:
 4732 2227 43757272 		.ascii "CurrMaxImageNumEXT\0"
 4732      4D617849 
 4732      6D616765 
 4732      4E756D45 
 4732      585400
 4733              	LC89:
 4734 223a 6D746B5F 		.ascii "mtk_CurrMaxImageNumEXT\0"
 4734      43757272 
 4734      4D617849 
 4734      6D616765 
 4734      4E756D45 
 4735              	LC90:
 4736 2251 43757374 		.ascii "CustImgDataHWExt.h\0"
 4736      496D6744 
 4736      61746148 
 4736      57457874 
 4736      2E6800
 4737              		.align 2
 4740              	__Z20GenerateImageResFilev:
1434:mtk_resgenerator.cpp **** 
1435:mtk_resgenerator.cpp **** 
1436:mtk_resgenerator.cpp **** 
1437:mtk_resgenerator.cpp **** /*****************************************************************************
1438:mtk_resgenerator.cpp **** * FUNCTION
1439:mtk_resgenerator.cpp **** *  GenerateImageResFile
1440:mtk_resgenerator.cpp **** * DESCRIPTION
1441:mtk_resgenerator.cpp **** *  generate image resource file
1442:mtk_resgenerator.cpp **** * PARAMETERS
1443:mtk_resgenerator.cpp **** *  void
1444:mtk_resgenerator.cpp **** * RETURNS
1445:mtk_resgenerator.cpp **** *  void
1446:mtk_resgenerator.cpp **** *****************************************************************************/
1447:mtk_resgenerator.cpp **** static void GenerateImageResFile(void)
1448:mtk_resgenerator.cpp **** {
GAS LISTING d:/github/AIOT_WORKSHOP/AIoT_MT2503AVE_SDK/11CW1418SP4_03_CORETEK03AE_11C_V1_GPRS_MMI/plutommi/Customer/ResGenerator/gcctmp/ccmAfaaa.s 			page 69


 4742              	LM216:
 4743 2264 55       		pushl	%ebp
 4744 2265 89E5     		movl	%esp, %ebp
 4745 2267 57       		pushl	%edi
 4746 2268 56       		pushl	%esi
 4747 2269 53       		pushl	%ebx
 4748 226a 81EC9C02 		subl	$668, %esp
 4748      0000
 4749 2270 C785C4FD 		movl	$___gxx_personality_sj0, -572(%ebp)
 4749      FFFF0000 
 4749      0000
 4750 227a C785C8FD 		movl	$LLSDA2030, -568(%ebp)
 4750      FFFF0000 
 4750      0000
 4751 2284 8D85CCFD 		leal	-564(%ebp), %eax
 4751      FFFF
 4752 228a 8D55E8   		leal	-24(%ebp), %edx
 4753 228d 8910     		movl	%edx, (%eax)
 4754 228f BA0A2300 		movl	$L105, %edx
 4754      00
 4755 2294 895004   		movl	%edx, 4(%eax)
 4756 2297 896008   		movl	%esp, 8(%eax)
 4757 229a 8D85ACFD 		leal	-596(%ebp), %eax
 4757      FFFF
 4758 22a0 890424   		movl	%eax, (%esp)
 4759 22a3 E8000000 		call	__Unwind_SjLj_Register
 4759      00
1449:mtk_resgenerator.cpp ****     /*----------------------------------------------------------------*/
1450:mtk_resgenerator.cpp ****     /* Local Variables                                                */
1451:mtk_resgenerator.cpp ****     /*----------------------------------------------------------------*/
1452:mtk_resgenerator.cpp **** 
1453:mtk_resgenerator.cpp ****     /*----------------------------------------------------------------*/
1454:mtk_resgenerator.cpp ****     /* Code Body                                                      */
1455:mtk_resgenerator.cpp ****     /*----------------------------------------------------------------*/
1456:mtk_resgenerator.cpp ****     RESGEN_LOG_V("GenerateImageResFile(): File output: CustImgDataHW.h CustImgDataHWExt.h");
 4761              	LM217:
 4762              	LBB21:
 4763 22a8 C7442408 		movl	$LC74, 8(%esp)
 4763      80200000 
 4764 22b0 C7442404 		movl	$LC1, 4(%esp)
 4764      3E000000 
 4765 22b8 C7042401 		movl	$1, (%esp)
 4765      000000
 4766 22bf C785B0FD 		movl	$-1, -592(%ebp)
 4766      FFFFFFFF 
 4766      FFFF
 4767 22c9 E8000000 		call	_reslog_adaptor_log
 4767      00
1457:mtk_resgenerator.cpp ****     // create group image meta file
1458:mtk_resgenerator.cpp ****     ImageGroupMappingMetaCreator * metaCreator = new ImageGroupMappingMetaCreator();
 4769              	LM218:
 4770 22ce C704240C 		movl	$12, (%esp)
 4770      000000
 4771 22d5 E8000000 		call	__Znwj
 4771      00
 4772 22da 8985A8FD 		movl	%eax, -600(%ebp)
 4772      FFFF
GAS LISTING d:/github/AIOT_WORKSHOP/AIoT_MT2503AVE_SDK/11CW1418SP4_03_CORETEK03AE_11C_V1_GPRS_MMI/plutommi/Customer/ResGenerator/gcctmp/ccmAfaaa.s 			page 70


 4773 22e0 C685A7FD 		movb	$1, -601(%ebp)
 4773      FFFF01
 4774 22e7 8B85A8FD 		movl	-600(%ebp), %eax
 4774      FFFF
 4775 22ed 890424   		movl	%eax, (%esp)
 4776 22f0 C785B0FD 		movl	$1, -592(%ebp)
 4776      FFFF0100 
 4776      0000
 4777 22fa E8000000 		call	__ZN28ImageGroupMappingMetaCreatorC1Ev
 4777      00
 4778 22ff 8B95A8FD 		movl	-600(%ebp), %edx
 4778      FFFF
 4779 2305 8955E4   		movl	%edx, -28(%ebp)
 4780 2308 EB56     		jmp	L94
 4781              	L105:
 4782 230a 8D6D18   		leal	24(%ebp), %ebp
 4783 230d 8B85B4FD 		movl	-588(%ebp), %eax
 4783      FFFF
 4784 2313 89859CFD 		movl	%eax, -612(%ebp)
 4784      FFFF
 4785              	L93:
 4786 2319 8B959CFD 		movl	-612(%ebp), %edx
 4786      FFFF
 4787 231f 8995A0FD 		movl	%edx, -608(%ebp)
 4787      FFFF
 4788 2325 80BDA7FD 		cmpb	$0, -601(%ebp)
 4788      FFFF00
 4789 232c 740E     		je	L96
 4790 232e 8B85A8FD 		movl	-600(%ebp), %eax
 4790      FFFF
 4791 2334 890424   		movl	%eax, (%esp)
 4792 2337 E8000000 		call	__ZdlPv
 4792      00
 4793              	L96:
 4794 233c 8B95A0FD 		movl	-608(%ebp), %edx
 4794      FFFF
 4795 2342 89959CFD 		movl	%edx, -612(%ebp)
 4795      FFFF
 4796              	L97:
 4797 2348 8B859CFD 		movl	-612(%ebp), %eax
 4797      FFFF
 4798 234e 890424   		movl	%eax, (%esp)
 4799 2351 C785B0FD 		movl	$-1, -592(%ebp)
 4799      FFFFFFFF 
 4799      FFFF
 4800 235b E8000000 		call	__Unwind_SjLj_Resume
 4800      00
 4801              	L94:
1459:mtk_resgenerator.cpp ****     for(int i =0; i< CurrMaxImageNum; i++ ){
 4803              	LM219:
 4804              	LBB22:
 4805 2360 C745E000 		movl	$0, -32(%ebp)
 4805      000000
 4806              	L99:
 4807 2367 0FB70500 		movzwl	_CurrMaxImageNum, %eax
 4807      000000
 4808 236e 3945E0   		cmpl	%eax, -32(%ebp)
GAS LISTING d:/github/AIOT_WORKSHOP/AIoT_MT2503AVE_SDK/11CW1418SP4_03_CORETEK03AE_11C_V1_GPRS_MMI/plutommi/Customer/ResGenerator/gcctmp/ccmAfaaa.s 			page 71


 4809 2371 7C02     		jl	L102
 4810 2373 EB4B     		jmp	L100
 4811              	L102:
1460:mtk_resgenerator.cpp ****         S8 pBuffName[512];
1461:mtk_resgenerator.cpp ****         Extract_Name(pBuffName, ImageNameList[i].filename, SYSTEM_IMAGE);
 4813              	LM220:
 4814              	LBB23:
 4815              	LBB24:
 4816 2375 C7442408 		movl	$0, 8(%esp)
 4816      00000000 
 4817 237d 8B45E0   		movl	-32(%ebp), %eax
 4818 2380 C1E009   		sall	$9, %eax
 4819 2383 05000000 		addl	$_ImageNameList, %eax
 4819      00
 4820 2388 89442404 		movl	%eax, 4(%esp)
 4821 238c 8D85D8FD 		leal	-552(%ebp), %eax
 4821      FFFF
 4822 2392 890424   		movl	%eax, (%esp)
 4823 2395 C785B0FD 		movl	$-1, -592(%ebp)
 4823      FFFFFFFF 
 4823      FFFF
 4824 239f E8000000 		call	_Extract_Name
 4824      00
1462:mtk_resgenerator.cpp ****         metaCreator->addImage(pBuffName);
 4826              	LM221:
 4827 23a4 8D85D8FD 		leal	-552(%ebp), %eax
 4827      FFFF
 4828 23aa 89442404 		movl	%eax, 4(%esp)
 4829 23ae 8B45E4   		movl	-28(%ebp), %eax
 4830 23b1 890424   		movl	%eax, (%esp)
 4831 23b4 E8000000 		call	__ZN28ImageGroupMappingMetaCreator8addImageEPKc
 4831      00
 4833              	LM222:
 4834 23b9 8D45E0   		leal	-32(%ebp), %eax
 4835              	LBE24:
 4836              	LBE23:
 4837 23bc FF00     		incl	(%eax)
 4838 23be EBA7     		jmp	L99
 4839              	L100:
1463:mtk_resgenerator.cpp ****     }
1464:mtk_resgenerator.cpp ****     metaCreator->generateMetaFile("..\\..\\Customer\\CustResource\\CustImgMapMeta.txt");
 4841              	LM223:
 4842              	LBE22:
 4843 23c0 C7442404 		movl	$LC75, 4(%esp)
 4843      E0200000 
 4844 23c8 8B45E4   		movl	-28(%ebp), %eax
 4845 23cb 890424   		movl	%eax, (%esp)
 4846 23ce C785B0FD 		movl	$-1, -592(%ebp)
 4846      FFFFFFFF 
 4846      FFFF
 4847 23d8 E8000000 		call	__ZN28ImageGroupMappingMetaCreator16generateMetaFileEPKc
 4847      00
1465:mtk_resgenerator.cpp ****     delete metaCreator;
 4849              	LM224:
 4850 23dd 8B55E4   		movl	-28(%ebp), %edx
 4851 23e0 899598FD 		movl	%edx, -616(%ebp)
 4851      FFFF
GAS LISTING d:/github/AIOT_WORKSHOP/AIoT_MT2503AVE_SDK/11CW1418SP4_03_CORETEK03AE_11C_V1_GPRS_MMI/plutommi/Customer/ResGenerator/gcctmp/ccmAfaaa.s 			page 72


 4852 23e6 83BD98FD 		cmpl	$0, -616(%ebp)
 4852      FFFF00
 4853 23ed 741C     		je	L104
 4854 23ef 8B8598FD 		movl	-616(%ebp), %eax
 4854      FFFF
 4855 23f5 890424   		movl	%eax, (%esp)
 4856 23f8 E8000000 		call	__ZN28ImageGroupMappingMetaCreatorD1Ev
 4856      00
 4857 23fd 8B9598FD 		movl	-616(%ebp), %edx
 4857      FFFF
 4858 2403 891424   		movl	%edx, (%esp)
 4859 2406 E8000000 		call	__ZdlPv
 4859      00
 4860              	L104:
1466:mtk_resgenerator.cpp **** 	
1467:mtk_resgenerator.cpp ****     GenerateResFile_Ext(
 4862              	LM225:
 4863 240b C7442430 		movl	$0, 48(%esp)
 4863      00000000 
 4864 2413 C744242C 		movl	$LC76, 44(%esp)
 4864      20210000 
 4865 241b C7442428 		movl	$LC77, 40(%esp)
 4865      49210000 
 4866 2423 C7442424 		movl	$LC78, 36(%esp)
 4866      56210000 
 4867 242b C7442420 		movl	$LC79, 32(%esp)
 4867      64210000 
 4868 2433 C744241C 		movl	$LC80, 28(%esp)
 4868      74210000 
 4869 243b C7442418 		movl	$LC81, 24(%esp)
 4869      88210000 
 4870 2443 C7442414 		movl	$LC82, 20(%esp)
 4870      98210000 
 4871 244b C7442410 		movl	$LC83, 16(%esp)
 4871      AC210000 
 4872 2453 0FB70500 		movzwl	_CurrMaxImageNum, %eax
 4872      000000
 4873 245a 8944240C 		movl	%eax, 12(%esp)
 4874 245e C7442408 		movl	$_ImageNameList, 8(%esp)
 4874      00000000 
 4875 2466 C7442404 		movl	$0, 4(%esp)
 4875      00000000 
 4876 246e C7042400 		movl	$0, (%esp)
 4876      000000
 4877 2475 C785B0FD 		movl	$-1, -592(%ebp)
 4877      FFFFFFFF 
 4877      FFFF
 4878 247f E85EF8FF 		call	__Z19GenerateResFile_Exti18RESOURCE_TYPE_LISTP16CUSTOM_NAME_LISTtPcS2_S2_S2_S2_S2_S2_S2_j
 4878      FF
1468:mtk_resgenerator.cpp ****         FALSE,
1469:mtk_resgenerator.cpp ****         RES_IMAGE,
1470:mtk_resgenerator.cpp ****         (CUSTOM_NAME_LIST *)ImageNameList,
1471:mtk_resgenerator.cpp ****         CurrMaxImageNum,
1472:mtk_resgenerator.cpp ****         "CustImgDataHW.h",
1473:mtk_resgenerator.cpp ****         "mtk_CurrMaxImageNum",
1474:mtk_resgenerator.cpp ****         "CurrMaxImageNum",
1475:mtk_resgenerator.cpp ****         "mtk_nCustImageNames",
GAS LISTING d:/github/AIOT_WORKSHOP/AIoT_MT2503AVE_SDK/11CW1418SP4_03_CORETEK03AE_11C_V1_GPRS_MMI/plutommi/Customer/ResGenerator/gcctmp/ccmAfaaa.s 			page 73


1476:mtk_resgenerator.cpp ****         "nCustImageNames",
1477:mtk_resgenerator.cpp ****         "ImageNameList",
1478:mtk_resgenerator.cpp ****         "CUSTOM_IMAGE",
1479:mtk_resgenerator.cpp ****         IMG_DATA_FILENAME,
1480:mtk_resgenerator.cpp ****         SYSTEM_IMAGE);
1481:mtk_resgenerator.cpp ****     GenerateResFile_Ext(
 4880              	LM226:
 4881 2484 C7442430 		movl	$1, 48(%esp)
 4881      01000000 
 4882 248c C744242C 		movl	$LC84, 44(%esp)
 4882      C0210000 
 4883 2494 C7442428 		movl	$LC77, 40(%esp)
 4883      49210000 
 4884 249c C7442424 		movl	$LC85, 36(%esp)
 4884      EC210000 
 4885 24a4 C7442420 		movl	$LC86, 32(%esp)
 4885      FD210000 
 4886 24ac C744241C 		movl	$LC87, 28(%esp)
 4886      10220000 
 4887 24b4 C7442418 		movl	$LC88, 24(%esp)
 4887      27220000 
 4888 24bc C7442414 		movl	$LC89, 20(%esp)
 4888      3A220000 
 4889 24c4 C7442410 		movl	$LC90, 16(%esp)
 4889      51220000 
 4890 24cc 0FB70500 		movzwl	_CurrMaxImageNumEXT, %eax
 4890      000000
 4891 24d3 8944240C 		movl	%eax, 12(%esp)
 4892 24d7 C7442408 		movl	$_ImageNameListEXT, 8(%esp)
 4892      00000000 
 4893 24df C7442404 		movl	$0, 4(%esp)
 4893      00000000 
 4894 24e7 C7042401 		movl	$1, (%esp)
 4894      000000
 4895 24ee E8EFF7FF 		call	__Z19GenerateResFile_Exti18RESOURCE_TYPE_LISTP16CUSTOM_NAME_LISTtPcS2_S2_S2_S2_S2_S2_S2_j
 4895      FF
1482:mtk_resgenerator.cpp ****         TRUE,
1483:mtk_resgenerator.cpp ****         RES_IMAGE,
1484:mtk_resgenerator.cpp ****         (CUSTOM_NAME_LIST *)ImageNameListEXT,
1485:mtk_resgenerator.cpp ****         CurrMaxImageNumEXT,
1486:mtk_resgenerator.cpp ****         "CustImgDataHWExt.h",
1487:mtk_resgenerator.cpp ****         "mtk_CurrMaxImageNumEXT",
1488:mtk_resgenerator.cpp ****         "CurrMaxImageNumEXT",
1489:mtk_resgenerator.cpp ****         "mtk_nCustImageNamesEXT",
1490:mtk_resgenerator.cpp ****         "nCustImageNamesEXT",
1491:mtk_resgenerator.cpp ****         "ImageNameListEXT",
1492:mtk_resgenerator.cpp ****         "CUSTOM_IMAGE",
1493:mtk_resgenerator.cpp ****         IMG_DATA_FILENAME_EXT,
1494:mtk_resgenerator.cpp ****         EXT_IMAGE);
1495:mtk_resgenerator.cpp **** }
 4897              	LM227:
 4898              	L92:
 4899 24f3 8D85ACFD 		leal	-596(%ebp), %eax
 4899      FFFF
 4900 24f9 890424   		movl	%eax, (%esp)
 4901 24fc E8000000 		call	__Unwind_SjLj_Unregister
 4901      00
GAS LISTING d:/github/AIOT_WORKSHOP/AIoT_MT2503AVE_SDK/11CW1418SP4_03_CORETEK03AE_11C_V1_GPRS_MMI/plutommi/Customer/ResGenerator/gcctmp/ccmAfaaa.s 			page 74


 4902 2501 81C49C02 		addl	$668, %esp
 4902      0000
 4903 2507 5B       		popl	%ebx
 4904 2508 5E       		popl	%esi
 4905 2509 5F       		popl	%edi
 4906 250a 5D       		popl	%ebp
 4907 250b C3       		ret
 4908              	LBE21:
 4909              		.section	.gcc_except_table,""
 4910              	LLSDA2030:
 4911 0000 FF       		.byte	0xff
 4912 0001 FF       		.byte	0xff
 4913 0002 01       		.byte	0x1
 4914 0003 02       		.uleb128 LLSDACSE2030-LLSDACSB2030
 4915              	LLSDACSB2030:
 4916 0004 00       		.uleb128 0x0
 4917 0005 00       		.uleb128 0x0
 4918              	LLSDACSE2030:
 4919              		.text
 4929              	Lscope9:
 4931 250c 90909090 		.align 32
 4931      90909090 
 4931      90909090 
 4931      90909090 
 4931      90909090 
 4932              	LC91:
 4933 2520 47656E65 		.ascii "GenerateAudioResFile(): File output: CustAdoDataHW.h CustAdoDataHWExt.h\0"
 4933      72617465 
 4933      41756469 
 4933      6F526573 
 4933      46696C65 
 4934 2568 90909090 		.align 32
 4934      90909090 
 4934      90909090 
 4934      90909090 
 4934      90909090 
 4935              	LC92:
 4936 2580 2E2E5C2E 		.ascii "..\\..\\Customer\\CustResource\\CustAdoRes.c\0"
 4936      2E5C4375 
 4936      73746F6D 
 4936      65725C43 
 4936      75737452 
 4937              	LC93:
 4938 25a9 43555354 		.ascii "CUSTOM_AUDIO\0"
 4938      4F4D5F41 
 4938      5544494F 
 4938      00
 4939              	LC94:
 4940 25b6 41756469 		.ascii "AudioNameList\0"
 4940      6F4E616D 
 4940      654C6973 
 4940      7400
 4941              	LC95:
 4942 25c4 6E437573 		.ascii "nCustAudioNames\0"
 4942      74417564 
 4942      696F4E61 
 4942      6D657300 
GAS LISTING d:/github/AIOT_WORKSHOP/AIoT_MT2503AVE_SDK/11CW1418SP4_03_CORETEK03AE_11C_V1_GPRS_MMI/plutommi/Customer/ResGenerator/gcctmp/ccmAfaaa.s 			page 75


 4943              	LC96:
 4944 25d4 6D746B5F 		.ascii "mtk_nCustAudioNames\0"
 4944      6E437573 
 4944      74417564 
 4944      696F4E61 
 4944      6D657300 
 4945              	LC97:
 4946 25e8 43757272 		.ascii "CurrMaxAudioNum\0"
 4946      4D617841 
 4946      7564696F 
 4946      4E756D00 
 4947              	LC98:
 4948 25f8 6D746B5F 		.ascii "mtk_CurrMaxAudioNum\0"
 4948      43757272 
 4948      4D617841 
 4948      7564696F 
 4948      4E756D00 
 4949              	LC99:
 4950 260c 43757374 		.ascii "CustAdoDataHW.h\0"
 4950      41646F44 
 4950      61746148 
 4950      572E6800 
 4951 261c 8D742600 		.align 32
 4952              	LC100:
 4953 2620 2E2E5C2E 		.ascii "..\\..\\Customer\\CustResource\\CustAdoResExt.c\0"
 4953      2E5C4375 
 4953      73746F6D 
 4953      65725C43 
 4953      75737452 
 4954              	LC101:
 4955 264c 41756469 		.ascii "AudioNameListEXT\0"
 4955      6F4E616D 
 4955      654C6973 
 4955      74455854 
 4955      00
 4956              	LC102:
 4957 265d 6E437573 		.ascii "nCustAudioNamesEXT\0"
 4957      74417564 
 4957      696F4E61 
 4957      6D657345 
 4957      585400
 4958              	LC103:
 4959 2670 6D746B5F 		.ascii "mtk_nCustAudioNamesEXT\0"
 4959      6E437573 
 4959      74417564 
 4959      696F4E61 
 4959      6D657345 
 4960              	LC104:
 4961 2687 43757272 		.ascii "CurrMaxAudioNumEXT\0"
 4961      4D617841 
 4961      7564696F 
 4961      4E756D45 
 4961      585400
 4962              	LC105:
 4963 269a 6D746B5F 		.ascii "mtk_CurrMaxAudioNumEXT\0"
 4963      43757272 
 4963      4D617841 
GAS LISTING d:/github/AIOT_WORKSHOP/AIoT_MT2503AVE_SDK/11CW1418SP4_03_CORETEK03AE_11C_V1_GPRS_MMI/plutommi/Customer/ResGenerator/gcctmp/ccmAfaaa.s 			page 76


 4963      7564696F 
 4963      4E756D45 
 4964              	LC106:
 4965 26b1 43757374 		.ascii "CustAdoDataHWExt.h\0"
 4965      41646F44 
 4965      61746148 
 4965      57457874 
 4965      2E6800
 4966              		.align 2
 4969              	__Z20GenerateAudioResFilev:
1496:mtk_resgenerator.cpp **** 
1497:mtk_resgenerator.cpp **** 
1498:mtk_resgenerator.cpp **** /*****************************************************************************
1499:mtk_resgenerator.cpp **** * FUNCTION
1500:mtk_resgenerator.cpp **** *  GenerateAudioResFile
1501:mtk_resgenerator.cpp **** * DESCRIPTION
1502:mtk_resgenerator.cpp **** *  generate aurio resource file
1503:mtk_resgenerator.cpp **** * PARAMETERS
1504:mtk_resgenerator.cpp **** *  void
1505:mtk_resgenerator.cpp **** * RETURNS
1506:mtk_resgenerator.cpp **** *  void
1507:mtk_resgenerator.cpp **** *****************************************************************************/
1508:mtk_resgenerator.cpp **** static void GenerateAudioResFile(void)
1509:mtk_resgenerator.cpp **** {
 4971              	LM228:
 4972 26c4 55       		pushl	%ebp
 4973 26c5 89E5     		movl	%esp, %ebp
 4974 26c7 83EC38   		subl	$56, %esp
1510:mtk_resgenerator.cpp ****     /*----------------------------------------------------------------*/
1511:mtk_resgenerator.cpp ****     /* Local Variables                                                */
1512:mtk_resgenerator.cpp ****     /*----------------------------------------------------------------*/
1513:mtk_resgenerator.cpp **** 
1514:mtk_resgenerator.cpp ****     /*----------------------------------------------------------------*/
1515:mtk_resgenerator.cpp ****     /* Code Body                                                      */
1516:mtk_resgenerator.cpp ****     /*----------------------------------------------------------------*/
1517:mtk_resgenerator.cpp ****     RESGEN_LOG_V("GenerateAudioResFile(): File output: CustAdoDataHW.h CustAdoDataHWExt.h");
 4976              	LM229:
 4977              	LBB25:
 4978 26ca C7442408 		movl	$LC91, 8(%esp)
 4978      20250000 
 4979 26d2 C7442404 		movl	$LC1, 4(%esp)
 4979      3E000000 
 4980 26da C7042401 		movl	$1, (%esp)
 4980      000000
 4981 26e1 E8000000 		call	_reslog_adaptor_log
 4981      00
1518:mtk_resgenerator.cpp ****     GenerateResFile_Ext(
 4983              	LM230:
 4984 26e6 C7442430 		movl	$0, 48(%esp)
 4984      00000000 
 4985 26ee C744242C 		movl	$LC92, 44(%esp)
 4985      80250000 
 4986 26f6 C7442428 		movl	$LC93, 40(%esp)
 4986      A9250000 
 4987 26fe C7442424 		movl	$LC94, 36(%esp)
 4987      B6250000 
 4988 2706 C7442420 		movl	$LC95, 32(%esp)
GAS LISTING d:/github/AIOT_WORKSHOP/AIoT_MT2503AVE_SDK/11CW1418SP4_03_CORETEK03AE_11C_V1_GPRS_MMI/plutommi/Customer/ResGenerator/gcctmp/ccmAfaaa.s 			page 77


 4988      C4250000 
 4989 270e C744241C 		movl	$LC96, 28(%esp)
 4989      D4250000 
 4990 2716 C7442418 		movl	$LC97, 24(%esp)
 4990      E8250000 
 4991 271e C7442414 		movl	$LC98, 20(%esp)
 4991      F8250000 
 4992 2726 C7442410 		movl	$LC99, 16(%esp)
 4992      0C260000 
 4993 272e 0FB70500 		movzwl	_CurrMaxAudioNum, %eax
 4993      000000
 4994 2735 8944240C 		movl	%eax, 12(%esp)
 4995 2739 C7442408 		movl	$_AudioNameList, 8(%esp)
 4995      00000000 
 4996 2741 C7442404 		movl	$2, 4(%esp)
 4996      02000000 
 4997 2749 C7042400 		movl	$0, (%esp)
 4997      000000
 4998 2750 E88DF5FF 		call	__Z19GenerateResFile_Exti18RESOURCE_TYPE_LISTP16CUSTOM_NAME_LISTtPcS2_S2_S2_S2_S2_S2_S2_j
 4998      FF
1519:mtk_resgenerator.cpp ****         FALSE,
1520:mtk_resgenerator.cpp ****         RES_AUDIO,
1521:mtk_resgenerator.cpp ****         (CUSTOM_NAME_LIST *)AudioNameList,
1522:mtk_resgenerator.cpp ****         CurrMaxAudioNum,
1523:mtk_resgenerator.cpp ****         "CustAdoDataHW.h",
1524:mtk_resgenerator.cpp ****         "mtk_CurrMaxAudioNum",
1525:mtk_resgenerator.cpp ****         "CurrMaxAudioNum",
1526:mtk_resgenerator.cpp ****         "mtk_nCustAudioNames",
1527:mtk_resgenerator.cpp ****         "nCustAudioNames",
1528:mtk_resgenerator.cpp ****         "AudioNameList",
1529:mtk_resgenerator.cpp ****         "CUSTOM_AUDIO",
1530:mtk_resgenerator.cpp ****         ADO_DATA_FILENAME,
1531:mtk_resgenerator.cpp ****         FALSE);
1532:mtk_resgenerator.cpp ****     GenerateResFile_Ext(
 5000              	LM231:
 5001 2755 C7442430 		movl	$1, 48(%esp)
 5001      01000000 
 5002 275d C744242C 		movl	$LC100, 44(%esp)
 5002      20260000 
 5003 2765 C7442428 		movl	$LC93, 40(%esp)
 5003      A9250000 
 5004 276d C7442424 		movl	$LC101, 36(%esp)
 5004      4C260000 
 5005 2775 C7442420 		movl	$LC102, 32(%esp)
 5005      5D260000 
 5006 277d C744241C 		movl	$LC103, 28(%esp)
 5006      70260000 
 5007 2785 C7442418 		movl	$LC104, 24(%esp)
 5007      87260000 
 5008 278d C7442414 		movl	$LC105, 20(%esp)
 5008      9A260000 
 5009 2795 C7442410 		movl	$LC106, 16(%esp)
 5009      B1260000 
 5010 279d 0FB70500 		movzwl	_CurrMaxAudioNumEXT, %eax
 5010      000000
 5011 27a4 8944240C 		movl	%eax, 12(%esp)
 5012 27a8 C7442408 		movl	$_AudioNameListEXT, 8(%esp)
GAS LISTING d:/github/AIOT_WORKSHOP/AIoT_MT2503AVE_SDK/11CW1418SP4_03_CORETEK03AE_11C_V1_GPRS_MMI/plutommi/Customer/ResGenerator/gcctmp/ccmAfaaa.s 			page 78


 5012      00000000 
 5013 27b0 C7442404 		movl	$2, 4(%esp)
 5013      02000000 
 5014 27b8 C7042401 		movl	$1, (%esp)
 5014      000000
 5015 27bf E81EF5FF 		call	__Z19GenerateResFile_Exti18RESOURCE_TYPE_LISTP16CUSTOM_NAME_LISTtPcS2_S2_S2_S2_S2_S2_S2_j
 5015      FF
1533:mtk_resgenerator.cpp ****         TRUE,
1534:mtk_resgenerator.cpp ****         RES_AUDIO,
1535:mtk_resgenerator.cpp ****         (CUSTOM_NAME_LIST *)AudioNameListEXT,
1536:mtk_resgenerator.cpp ****         CurrMaxAudioNumEXT,
1537:mtk_resgenerator.cpp ****         "CustAdoDataHWExt.h",
1538:mtk_resgenerator.cpp ****         "mtk_CurrMaxAudioNumEXT",
1539:mtk_resgenerator.cpp ****         "CurrMaxAudioNumEXT",
1540:mtk_resgenerator.cpp ****         "mtk_nCustAudioNamesEXT",
1541:mtk_resgenerator.cpp ****         "nCustAudioNamesEXT",
1542:mtk_resgenerator.cpp ****         "AudioNameListEXT",
1543:mtk_resgenerator.cpp ****         "CUSTOM_AUDIO",
1544:mtk_resgenerator.cpp ****         ADO_DATA_FILENAME_EXT,
1545:mtk_resgenerator.cpp ****         TRUE);
1546:mtk_resgenerator.cpp **** }
 5017              	LM232:
 5018 27c4 C9       		leave
 5019 27c5 C3       		ret
 5020              	LBE25:
 5021              	Lscope10:
 5023 27c6 90909090 		.align 32
 5023      90909090 
 5023      90909090 
 5023      90909090 
 5023      90909090 
 5024              	LC107:
 5025 27e0 47656E65 		.ascii "GenerateFontResFile(): File output: CustFontRes.c CustFontResExt.c\0"
 5025      72617465 
 5025      466F6E74 
 5025      52657346 
 5025      696C6528 
 5026 2823 90909090 		.align 32
 5026      90909090 
 5026      90909090 
 5026      90909090 
 5026      90909090 
 5027              	LC108:
 5028 2840 2E2E5C2E 		.ascii "..\\..\\Customer\\CustResource\\CustFontResExt.c\0"
 5028      2E5C4375 
 5028      73746F6D 
 5028      65725C43 
 5028      75737452 
 5029              	LC109:
 5030 286d 43555354 		.ascii "CUSTOM_FONT\0"
 5030      4F4D5F46 
 5030      4F4E5400 
 5031              	LC110:
 5032 2879 466F6E74 		.ascii "FontNameListEXT\0"
 5032      4E616D65 
 5032      4C697374 
 5032      45585400 
GAS LISTING d:/github/AIOT_WORKSHOP/AIoT_MT2503AVE_SDK/11CW1418SP4_03_CORETEK03AE_11C_V1_GPRS_MMI/plutommi/Customer/ResGenerator/gcctmp/ccmAfaaa.s 			page 79


 5033              	LC111:
 5034 2889 6E437573 		.ascii "nCustFontNamesEXT\0"
 5034      74466F6E 
 5034      744E616D 
 5034      65734558 
 5034      5400
 5035              	LC112:
 5036 289b 6D746B5F 		.ascii "mtk_nCustFontNamesEXT\0"
 5036      6E437573 
 5036      74466F6E 
 5036      744E616D 
 5036      65734558 
 5037              	LC113:
 5038 28b1 43757272 		.ascii "CurrMaxFontNumEXT\0"
 5038      4D617846 
 5038      6F6E744E 
 5038      756D4558 
 5038      5400
 5039              	LC114:
 5040 28c3 6D746B5F 		.ascii "mtk_CurrMaxFontNumEXT\0"
 5040      43757272 
 5040      4D617846 
 5040      6F6E744E 
 5040      756D4558 
 5041              	LC115:
 5042 28d9 43757374 		.ascii "CustFontDataHW.h\0"
 5042      466F6E74 
 5042      44617461 
 5042      48572E68 
 5042      00
 5043              		.align 2
 5046              	__Z19GenerateFontResFilev:
1547:mtk_resgenerator.cpp **** 
1548:mtk_resgenerator.cpp **** 
1549:mtk_resgenerator.cpp **** 
1550:mtk_resgenerator.cpp **** /*****************************************************************************
1551:mtk_resgenerator.cpp **** * FUNCTION
1552:mtk_resgenerator.cpp **** *  GenerateFontResFile
1553:mtk_resgenerator.cpp **** * DESCRIPTION
1554:mtk_resgenerator.cpp **** *  generate Font resource file
1555:mtk_resgenerator.cpp **** * PARAMETERS
1556:mtk_resgenerator.cpp **** *  void
1557:mtk_resgenerator.cpp **** * RETURNS
1558:mtk_resgenerator.cpp **** *  void
1559:mtk_resgenerator.cpp **** *****************************************************************************/
1560:mtk_resgenerator.cpp **** static void GenerateFontResFile(void)
1561:mtk_resgenerator.cpp **** {
 5048              	LM233:
 5049 28ea 55       		pushl	%ebp
 5050 28eb 89E5     		movl	%esp, %ebp
 5051 28ed 83EC38   		subl	$56, %esp
1562:mtk_resgenerator.cpp ****     /*----------------------------------------------------------------*/
1563:mtk_resgenerator.cpp ****     /* Local Variables                                                */
1564:mtk_resgenerator.cpp ****     /*----------------------------------------------------------------*/
1565:mtk_resgenerator.cpp **** 
1566:mtk_resgenerator.cpp ****     /*----------------------------------------------------------------*/
1567:mtk_resgenerator.cpp ****     /* Code Body                                                      */
GAS LISTING d:/github/AIOT_WORKSHOP/AIoT_MT2503AVE_SDK/11CW1418SP4_03_CORETEK03AE_11C_V1_GPRS_MMI/plutommi/Customer/ResGenerator/gcctmp/ccmAfaaa.s 			page 80


1568:mtk_resgenerator.cpp ****     /*----------------------------------------------------------------*/
1569:mtk_resgenerator.cpp ****     RESGEN_LOG_V("GenerateFontResFile(): File output: CustFontRes.c CustFontResExt.c");
 5053              	LM234:
 5054              	LBB26:
 5055 28f0 C7442408 		movl	$LC107, 8(%esp)
 5055      E0270000 
 5056 28f8 C7442404 		movl	$LC1, 4(%esp)
 5056      3E000000 
 5057 2900 C7042401 		movl	$1, (%esp)
 5057      000000
 5058 2907 E8000000 		call	_reslog_adaptor_log
 5058      00
1570:mtk_resgenerator.cpp **** 
1571:mtk_resgenerator.cpp ****     GenerateResFile_Ext(
 5060              	LM235:
 5061 290c C7442430 		movl	$3, 48(%esp)
 5061      03000000 
 5062 2914 C744242C 		movl	$LC108, 44(%esp)
 5062      40280000 
 5063 291c C7442428 		movl	$LC109, 40(%esp)
 5063      6D280000 
 5064 2924 C7442424 		movl	$LC110, 36(%esp)
 5064      79280000 
 5065 292c C7442420 		movl	$LC111, 32(%esp)
 5065      89280000 
 5066 2934 C744241C 		movl	$LC112, 28(%esp)
 5066      9B280000 
 5067 293c C7442418 		movl	$LC113, 24(%esp)
 5067      B1280000 
 5068 2944 C7442414 		movl	$LC114, 20(%esp)
 5068      C3280000 
 5069 294c C7442410 		movl	$LC115, 16(%esp)
 5069      D9280000 
 5070 2954 0FB70500 		movzwl	_CurrMaxFontNumEXT, %eax
 5070      000000
 5071 295b 8944240C 		movl	%eax, 12(%esp)
 5072 295f C7442408 		movl	$_FontNameListEXT, 8(%esp)
 5072      00000000 
 5073 2967 C7442404 		movl	$4, 4(%esp)
 5073      04000000 
 5074 296f C7042401 		movl	$1, (%esp)
 5074      000000
 5075 2976 E867F3FF 		call	__Z19GenerateResFile_Exti18RESOURCE_TYPE_LISTP16CUSTOM_NAME_LISTtPcS2_S2_S2_S2_S2_S2_S2_j
 5075      FF
1572:mtk_resgenerator.cpp ****         TRUE,
1573:mtk_resgenerator.cpp ****         RES_FONT,
1574:mtk_resgenerator.cpp ****         (CUSTOM_NAME_LIST *)FontNameListEXT,
1575:mtk_resgenerator.cpp ****         CurrMaxFontNumEXT,
1576:mtk_resgenerator.cpp ****         "CustFontDataHW.h",
1577:mtk_resgenerator.cpp ****         "mtk_CurrMaxFontNumEXT",
1578:mtk_resgenerator.cpp ****         "CurrMaxFontNumEXT",
1579:mtk_resgenerator.cpp ****         "mtk_nCustFontNamesEXT",
1580:mtk_resgenerator.cpp ****         "nCustFontNamesEXT",
1581:mtk_resgenerator.cpp ****         "FontNameListEXT",
1582:mtk_resgenerator.cpp ****         "CUSTOM_FONT",
1583:mtk_resgenerator.cpp ****         FONT_DATA_FILENAME_EXT,
1584:mtk_resgenerator.cpp ****         EXT_FONT);
GAS LISTING d:/github/AIOT_WORKSHOP/AIoT_MT2503AVE_SDK/11CW1418SP4_03_CORETEK03AE_11C_V1_GPRS_MMI/plutommi/Customer/ResGenerator/gcctmp/ccmAfaaa.s 			page 81


1585:mtk_resgenerator.cpp **** }
 5077              	LM236:
 5078 297b C9       		leave
 5079 297c C3       		ret
 5080              	LBE26:
 5081              	Lscope11:
 5083 297d 8D7600   		.align 32
 5084              	LC116:
 5085 2980 0A2F2A2A 		.ascii "\12/************************************************************** \12 FILENAME\11: %s \12
 5085      2A2A2A2A 
 5085      2A2A2A2A 
 5085      2A2A2A2A 
 5085      2A2A2A2A 
 5086              	LC117:
 5087 2a70 23696E63 		.ascii "#include \"CustDataRes.h\"\12\12\12\0"
 5087      6C756465 
 5087      20224375 
 5087      73744461 
 5087      74615265 
 5088              	LC118:
 5089 2a8c 756E7369 		.ascii "unsigned short %s=%d;\12\0"
 5089      676E6564 
 5089      2073686F 
 5089      72742025 
 5089      733D2564 
 5090              	LC119:
 5091 2aa3 636F6E73 		.ascii "const %s %s[]={\12\0"
 5091      74202573 
 5091      2025735B 
 5091      5D3D7B0A 
 5091      00
 5092              	LC120:
 5093 2ab4 097B2564 		.ascii "\11{%d},\12\0"
 5093      7D2C0A00 
 5094              	LC121:
 5095 2abc 636F6E73 		.ascii "const %s %s[1];\12\0"
 5095      74202573 
 5095      2025735B 
 5095      315D3B0A 
 5095      00
 5096 2acd 90       		.align 2
 5106              	__Z19GenerateMapFile_ExtP13CUSTOM_ID_MAPtPcS1_S1_S1_S1_:
1586:mtk_resgenerator.cpp **** 
1587:mtk_resgenerator.cpp **** 
1588:mtk_resgenerator.cpp **** /*****************************************************************************
1589:mtk_resgenerator.cpp **** * FUNCTION
1590:mtk_resgenerator.cpp **** *  GenerateMapFile_Ext
1591:mtk_resgenerator.cpp **** * DESCRIPTION
1592:mtk_resgenerator.cpp **** *  generate ID map file
1593:mtk_resgenerator.cpp **** * PARAMETERS
1594:mtk_resgenerator.cpp **** *  pMap                [IN]    ID map
1595:mtk_resgenerator.cpp **** *  nSize               [IN]    size
1596:mtk_resgenerator.cpp **** *  str_IdMap           [IN]    output variable name
1597:mtk_resgenerator.cpp **** *  str_CustMap         [IN]    output variable name
1598:mtk_resgenerator.cpp **** *  str_CurrMaxId       [IN]    output variable name
1599:mtk_resgenerator.cpp **** *  str_CustType        [IN]    output variable name
1600:mtk_resgenerator.cpp **** *  curr_map_filename   [IN]    output file name
GAS LISTING d:/github/AIOT_WORKSHOP/AIoT_MT2503AVE_SDK/11CW1418SP4_03_CORETEK03AE_11C_V1_GPRS_MMI/plutommi/Customer/ResGenerator/gcctmp/ccmAfaaa.s 			page 82


1601:mtk_resgenerator.cpp **** * RETURNS
1602:mtk_resgenerator.cpp **** *  void
1603:mtk_resgenerator.cpp **** *****************************************************************************/
1604:mtk_resgenerator.cpp **** static void GenerateMapFile_Ext(
1605:mtk_resgenerator.cpp ****                                 CUSTOM_ID_MAP *pMap,
1606:mtk_resgenerator.cpp ****                                 U16 nSize,
1607:mtk_resgenerator.cpp ****                                 char *str_IdMap,
1608:mtk_resgenerator.cpp ****                                 char *str_CustMap,
1609:mtk_resgenerator.cpp ****                                 char *str_CurrMaxId,
1610:mtk_resgenerator.cpp ****                                 char *str_CustType,
1611:mtk_resgenerator.cpp ****                                 char *curr_map_filename)
1612:mtk_resgenerator.cpp **** {
 5108              	LM237:
 5109 2ace 55       		pushl	%ebp
 5110 2acf 89E5     		movl	%esp, %ebp
 5111 2ad1 83EC28   		subl	$40, %esp
 5112 2ad4 8B450C   		movl	12(%ebp), %eax
 5113 2ad7 668945FE 		movw	%ax, -2(%ebp)
1613:mtk_resgenerator.cpp ****     /*----------------------------------------------------------------*/
1614:mtk_resgenerator.cpp ****     /* Local Variables                                                */
1615:mtk_resgenerator.cpp ****     /*----------------------------------------------------------------*/
1616:mtk_resgenerator.cpp ****     FILE *pFile;
1617:mtk_resgenerator.cpp **** 
1618:mtk_resgenerator.cpp ****     /*----------------------------------------------------------------*/
1619:mtk_resgenerator.cpp ****     /* Code Body                                                      */
1620:mtk_resgenerator.cpp ****     /*----------------------------------------------------------------*/
1621:mtk_resgenerator.cpp ****     if(pFile = fopen(curr_map_filename, "w"))
 5115              	LM238:
 5116              	LBB27:
 5117              	LBB28:
 5118 2adb C7442404 		movl	$LC2, 4(%esp)
 5118      4F000000 
 5119 2ae3 8B4520   		movl	32(%ebp), %eax
 5120 2ae6 890424   		movl	%eax, (%esp)
 5121 2ae9 E8000000 		call	_fopen
 5121      00
 5122 2aee 8945F8   		movl	%eax, -8(%ebp)
 5123 2af1 837DF800 		cmpl	$0, -8(%ebp)
 5124 2af5 0F840801 		je	L108
 5124      0000
1622:mtk_resgenerator.cpp ****     {
1623:mtk_resgenerator.cpp ****         fprintf(pFile, "/**\n *	Copyright Notice\n *	?2002 - 2003, Pixtel Communications, Inc., 148
 5126              	LM239:
 5127              	LBB29:
 5128 2afb C7442404 		movl	$LC4, 4(%esp)
 5128      A0000000 
 5129 2b03 8B45F8   		movl	-8(%ebp), %eax
 5130 2b06 890424   		movl	%eax, (%esp)
 5131 2b09 E8000000 		call	_fprintf
 5131      00
1624:mtk_resgenerator.cpp ****         fprintf(pFile, "\n/************************************************************** \n FILENA
 5133              	LM240:
 5134 2b0e 8B4514   		movl	20(%ebp), %eax
 5135 2b11 89442408 		movl	%eax, 8(%esp)
 5136 2b15 C7442404 		movl	$LC116, 4(%esp)
 5136      80290000 
 5137 2b1d 8B45F8   		movl	-8(%ebp), %eax
GAS LISTING d:/github/AIOT_WORKSHOP/AIoT_MT2503AVE_SDK/11CW1418SP4_03_CORETEK03AE_11C_V1_GPRS_MMI/plutommi/Customer/ResGenerator/gcctmp/ccmAfaaa.s 			page 83


 5138 2b20 890424   		movl	%eax, (%esp)
 5139 2b23 E8000000 		call	_fprintf
 5139      00
1625:mtk_resgenerator.cpp ****         fprintf(pFile, "#include \"CustDataRes.h\"\n\n\n");
 5141              	LM241:
 5142 2b28 C7442404 		movl	$LC117, 4(%esp)
 5142      702A0000 
 5143 2b30 8B45F8   		movl	-8(%ebp), %eax
 5144 2b33 890424   		movl	%eax, (%esp)
 5145 2b36 E8000000 		call	_fprintf
 5145      00
1626:mtk_resgenerator.cpp ****         fprintf(pFile, "unsigned short %s=%d;\n", str_CurrMaxId, nSize);
 5147              	LM242:
 5148 2b3b 0FB745FE 		movzwl	-2(%ebp), %eax
 5149 2b3f 8944240C 		movl	%eax, 12(%esp)
 5150 2b43 8B4518   		movl	24(%ebp), %eax
 5151 2b46 89442408 		movl	%eax, 8(%esp)
 5152 2b4a C7442404 		movl	$LC118, 4(%esp)
 5152      8C2A0000 
 5153 2b52 8B45F8   		movl	-8(%ebp), %eax
 5154 2b55 890424   		movl	%eax, (%esp)
 5155 2b58 E8000000 		call	_fprintf
 5155      00
1627:mtk_resgenerator.cpp **** 
1628:mtk_resgenerator.cpp ****         /* writing the map array inside the file. */
1629:mtk_resgenerator.cpp ****         if(nSize)
 5157              	LM243:
 5158              	LBB30:
 5159 2b5d 66837DFE 		cmpw	$0, -2(%ebp)
 5159      00
 5160 2b62 7473     		je	L110
1630:mtk_resgenerator.cpp ****         {
1631:mtk_resgenerator.cpp ****             int i;
1632:mtk_resgenerator.cpp **** 
1633:mtk_resgenerator.cpp ****             fprintf(pFile, "const %s %s[]={\n", str_CustType, str_IdMap);
 5162              	LM244:
 5163              	LBB31:
 5164 2b64 8B4510   		movl	16(%ebp), %eax
 5165 2b67 8944240C 		movl	%eax, 12(%esp)
 5166 2b6b 8B451C   		movl	28(%ebp), %eax
 5167 2b6e 89442408 		movl	%eax, 8(%esp)
 5168 2b72 C7442404 		movl	$LC119, 4(%esp)
 5168      A32A0000 
 5169 2b7a 8B45F8   		movl	-8(%ebp), %eax
 5170 2b7d 890424   		movl	%eax, (%esp)
 5171 2b80 E8000000 		call	_fprintf
 5171      00
1634:mtk_resgenerator.cpp ****             for(i = 0; i < nSize; i++)
 5173              	LM245:
 5174 2b85 C745F400 		movl	$0, -12(%ebp)
 5174      000000
 5175              	L111:
 5176 2b8c 0FB745FE 		movzwl	-2(%ebp), %eax
 5177 2b90 3945F4   		cmpl	%eax, -12(%ebp)
 5178 2b93 7C02     		jl	L114
 5179 2b95 EB2B     		jmp	L112
 5180              	L114:
GAS LISTING d:/github/AIOT_WORKSHOP/AIoT_MT2503AVE_SDK/11CW1418SP4_03_CORETEK03AE_11C_V1_GPRS_MMI/plutommi/Customer/ResGenerator/gcctmp/ccmAfaaa.s 			page 84


1635:mtk_resgenerator.cpp ****             {
1636:mtk_resgenerator.cpp ****                 fprintf(pFile,"\t{%d},\n", pMap[i].Num);
 5182              	LM246:
 5183 2b97 8B45F4   		movl	-12(%ebp), %eax
 5184 2b9a 8D1400   		leal	(%eax,%eax), %edx
 5185 2b9d 8B4508   		movl	8(%ebp), %eax
 5186 2ba0 0FB70410 		movzwl	(%eax,%edx), %eax
 5187 2ba4 89442408 		movl	%eax, 8(%esp)
 5188 2ba8 C7442404 		movl	$LC120, 4(%esp)
 5188      B42A0000 
 5189 2bb0 8B45F8   		movl	-8(%ebp), %eax
 5190 2bb3 890424   		movl	%eax, (%esp)
 5191 2bb6 E8000000 		call	_fprintf
 5191      00
 5193              	LM247:
 5194 2bbb 8D45F4   		leal	-12(%ebp), %eax
 5195 2bbe FF00     		incl	(%eax)
 5196 2bc0 EBCA     		jmp	L111
 5197              	L112:
1637:mtk_resgenerator.cpp ****             }
1638:mtk_resgenerator.cpp ****             fprintf(pFile, "};\n\n\n\n");
 5199              	LM248:
 5200 2bc2 C7442404 		movl	$LC67, 4(%esp)
 5200      1C1B0000 
 5201 2bca 8B45F8   		movl	-8(%ebp), %eax
 5202 2bcd 890424   		movl	%eax, (%esp)
 5203 2bd0 E8000000 		call	_fprintf
 5203      00
 5204              	LBE31:
 5205 2bd5 EB21     		jmp	L115
 5206              	L110:
1639:mtk_resgenerator.cpp ****         }
1640:mtk_resgenerator.cpp ****         else
1641:mtk_resgenerator.cpp ****         {
1642:mtk_resgenerator.cpp ****             fprintf(pFile, "const %s %s[1];\n", str_CustType, str_IdMap);
 5208              	LM249:
 5209 2bd7 8B4510   		movl	16(%ebp), %eax
 5210 2bda 8944240C 		movl	%eax, 12(%esp)
 5211 2bde 8B451C   		movl	28(%ebp), %eax
 5212 2be1 89442408 		movl	%eax, 8(%esp)
 5213 2be5 C7442404 		movl	$LC121, 4(%esp)
 5213      BC2A0000 
 5214 2bed 8B45F8   		movl	-8(%ebp), %eax
 5215 2bf0 890424   		movl	%eax, (%esp)
 5216 2bf3 E8000000 		call	_fprintf
 5216      00
 5217              	L115:
1643:mtk_resgenerator.cpp ****         }
1644:mtk_resgenerator.cpp ****         fclose(pFile);
 5219              	LM250:
 5220              	LBE30:
 5221 2bf8 8B45F8   		movl	-8(%ebp), %eax
 5222 2bfb 890424   		movl	%eax, (%esp)
 5223 2bfe E8000000 		call	_fclose
 5223      00
1645:mtk_resgenerator.cpp ****     }
1646:mtk_resgenerator.cpp **** }
GAS LISTING d:/github/AIOT_WORKSHOP/AIoT_MT2503AVE_SDK/11CW1418SP4_03_CORETEK03AE_11C_V1_GPRS_MMI/plutommi/Customer/ResGenerator/gcctmp/ccmAfaaa.s 			page 85


 5225              	LM251:
 5226              	L108:
 5227 2c03 C9       		leave
 5228 2c04 C3       		ret
 5229              	LBE29:
 5230              	LBE28:
 5231              	LBE27:
 5239              	Lscope12:
 5241 2c05 90909090 		.align 32
 5241      90909090 
 5241      90909090 
 5241      90909090 
 5241      90909090 
 5242              	LC122:
 5243 2c20 47656E65 		.ascii "GenerateImageMapFile(): File output: CustImageMap.c CustImageMapExt.c\0"
 5243      72617465 
 5243      496D6167 
 5243      654D6170 
 5243      46696C65 
 5244 2c66 90909090 		.align 32
 5244      90909090 
 5244      90909090 
 5244      90909090 
 5244      90909090 
 5245              	LC123:
 5246 2c80 2E2E5C2E 		.ascii "..\\..\\Customer\\CustResource\\CustImgMap.c\0"
 5246      2E5C4375 
 5246      73746F6D 
 5246      65725C43 
 5246      75737452 
 5247              	LC124:
 5248 2ca9 43555354 		.ascii "CUSTOM_IMAGE_MAP\0"
 5248      4F4D5F49 
 5248      4D414745 
 5248      5F4D4150 
 5248      00
 5249              	LC125:
 5250 2cba 43757272 		.ascii "CurrMaxImageId\0"
 5250      4D617849 
 5250      6D616765 
 5250      496400
 5251              	LC126:
 5252 2cc9 43757374 		.ascii "CustImageMap.c\0"
 5252      496D6167 
 5252      654D6170 
 5252      2E6300
 5253              	LC127:
 5254 2cd8 496D6167 		.ascii "ImageIdMap\0"
 5254      6549644D 
 5254      617000
 5255 2ce3 90909090 		.align 32
 5255      90909090 
 5255      90909090 
 5255      90909090 
 5255      90909090 
 5256              	LC128:
 5257 2d00 2E2E5C2E 		.ascii "..\\..\\Customer\\CustResource\\CustImgMapExt.c\0"
GAS LISTING d:/github/AIOT_WORKSHOP/AIoT_MT2503AVE_SDK/11CW1418SP4_03_CORETEK03AE_11C_V1_GPRS_MMI/plutommi/Customer/ResGenerator/gcctmp/ccmAfaaa.s 			page 86


 5257      2E5C4375 
 5257      73746F6D 
 5257      65725C43 
 5257      75737452 
 5258              	LC129:
 5259 2d2c 43757272 		.ascii "CurrMaxImageIdEXT\0"
 5259      4D617849 
 5259      6D616765 
 5259      49644558 
 5259      5400
 5260              	LC130:
 5261 2d3e 43757374 		.ascii "CustImageMapExt.c\0"
 5261      496D6167 
 5261      654D6170 
 5261      4578742E 
 5261      6300
 5262              	LC131:
 5263 2d50 496D6167 		.ascii "ImageIdMapEXT\0"
 5263      6549644D 
 5263      61704558 
 5263      5400
 5264              		.align 2
 5267              	__Z20GenerateImageMapFilev:
1647:mtk_resgenerator.cpp **** 
1648:mtk_resgenerator.cpp **** 
1649:mtk_resgenerator.cpp **** /*****************************************************************************
1650:mtk_resgenerator.cpp **** * FUNCTION
1651:mtk_resgenerator.cpp **** *  GenerateImageMapFile
1652:mtk_resgenerator.cpp **** * DESCRIPTION
1653:mtk_resgenerator.cpp **** *  generate image ID map file
1654:mtk_resgenerator.cpp **** * PARAMETERS
1655:mtk_resgenerator.cpp **** *  void
1656:mtk_resgenerator.cpp **** * RETURNS
1657:mtk_resgenerator.cpp **** *  void
1658:mtk_resgenerator.cpp **** *****************************************************************************/
1659:mtk_resgenerator.cpp **** static void GenerateImageMapFile(void)
1660:mtk_resgenerator.cpp **** {
 5269              	LM252:
 5270 2d5e 55       		pushl	%ebp
 5271 2d5f 89E5     		movl	%esp, %ebp
 5272 2d61 83EC28   		subl	$40, %esp
1661:mtk_resgenerator.cpp ****     /*----------------------------------------------------------------*/
1662:mtk_resgenerator.cpp ****     /* Local Variables                                                */
1663:mtk_resgenerator.cpp ****     /*----------------------------------------------------------------*/
1664:mtk_resgenerator.cpp **** 
1665:mtk_resgenerator.cpp ****     /*----------------------------------------------------------------*/
1666:mtk_resgenerator.cpp ****     /* Code Body                                                      */
1667:mtk_resgenerator.cpp ****     /*----------------------------------------------------------------*/
1668:mtk_resgenerator.cpp ****     RESGEN_LOG_V("GenerateImageMapFile(): File output: CustImageMap.c CustImageMapExt.c");
 5274              	LM253:
 5275              	LBB32:
 5276 2d64 C7442408 		movl	$LC122, 8(%esp)
 5276      202C0000 
 5277 2d6c C7442404 		movl	$LC1, 4(%esp)
 5277      3E000000 
 5278 2d74 C7042401 		movl	$1, (%esp)
 5278      000000
GAS LISTING d:/github/AIOT_WORKSHOP/AIoT_MT2503AVE_SDK/11CW1418SP4_03_CORETEK03AE_11C_V1_GPRS_MMI/plutommi/Customer/ResGenerator/gcctmp/ccmAfaaa.s 			page 87


 5279 2d7b E8000000 		call	_reslog_adaptor_log
 5279      00
1669:mtk_resgenerator.cpp ****     GenerateMapFile_Ext(
 5281              	LM254:
 5282 2d80 C7442418 		movl	$LC123, 24(%esp)
 5282      802C0000 
 5283 2d88 C7442414 		movl	$LC124, 20(%esp)
 5283      A92C0000 
 5284 2d90 C7442410 		movl	$LC125, 16(%esp)
 5284      BA2C0000 
 5285 2d98 C744240C 		movl	$LC126, 12(%esp)
 5285      C92C0000 
 5286 2da0 C7442408 		movl	$LC127, 8(%esp)
 5286      D82C0000 
 5287 2da8 0FB70500 		movzwl	_CurrMaxImageId, %eax
 5287      000000
 5288 2daf 89442404 		movl	%eax, 4(%esp)
 5289 2db3 C7042400 		movl	$_ImageIdMap, (%esp)
 5289      000000
 5290 2dba E80FFDFF 		call	__Z19GenerateMapFile_ExtP13CUSTOM_ID_MAPtPcS1_S1_S1_S1_
 5290      FF
1670:mtk_resgenerator.cpp ****         (CUSTOM_ID_MAP *)ImageIdMap,
1671:mtk_resgenerator.cpp ****         CurrMaxImageId,
1672:mtk_resgenerator.cpp ****         "ImageIdMap",
1673:mtk_resgenerator.cpp ****         "CustImageMap.c",
1674:mtk_resgenerator.cpp ****         "CurrMaxImageId",
1675:mtk_resgenerator.cpp ****         "CUSTOM_IMAGE_MAP",
1676:mtk_resgenerator.cpp ****         IMG_MAP_FILENAME);
1677:mtk_resgenerator.cpp ****     GenerateMapFile_Ext(
 5292              	LM255:
 5293 2dbf C7442418 		movl	$LC128, 24(%esp)
 5293      002D0000 
 5294 2dc7 C7442414 		movl	$LC124, 20(%esp)
 5294      A92C0000 
 5295 2dcf C7442410 		movl	$LC129, 16(%esp)
 5295      2C2D0000 
 5296 2dd7 C744240C 		movl	$LC130, 12(%esp)
 5296      3E2D0000 
 5297 2ddf C7442408 		movl	$LC131, 8(%esp)
 5297      502D0000 
 5298 2de7 0FB70500 		movzwl	_CurrMaxImageIdEXT, %eax
 5298      000000
 5299 2dee 89442404 		movl	%eax, 4(%esp)
 5300 2df2 C7042400 		movl	$_ImageIdMapEXT, (%esp)
 5300      000000
 5301 2df9 E8D0FCFF 		call	__Z19GenerateMapFile_ExtP13CUSTOM_ID_MAPtPcS1_S1_S1_S1_
 5301      FF
1678:mtk_resgenerator.cpp ****         (CUSTOM_ID_MAP *)ImageIdMapEXT,
1679:mtk_resgenerator.cpp ****         CurrMaxImageIdEXT,
1680:mtk_resgenerator.cpp ****         "ImageIdMapEXT",
1681:mtk_resgenerator.cpp ****         "CustImageMapExt.c",
1682:mtk_resgenerator.cpp ****         "CurrMaxImageIdEXT",
1683:mtk_resgenerator.cpp ****         "CUSTOM_IMAGE_MAP",
1684:mtk_resgenerator.cpp ****         IMG_MAP_FILENAME_EXT);
1685:mtk_resgenerator.cpp **** }
 5303              	LM256:
 5304 2dfe C9       		leave
GAS LISTING d:/github/AIOT_WORKSHOP/AIoT_MT2503AVE_SDK/11CW1418SP4_03_CORETEK03AE_11C_V1_GPRS_MMI/plutommi/Customer/ResGenerator/gcctmp/ccmAfaaa.s 			page 88


 5305 2dff C3       		ret
 5306              	LBE32:
 5307              	Lscope13:
 5309              		.align 32
 5310              	LC132:
 5311 2e00 47656E65 		.ascii "GenerateAudioMapFile(): File output: CustAdoMap.c CustAdoMapExt.c\0"
 5311      72617465 
 5311      41756469 
 5311      6F4D6170 
 5311      46696C65 
 5312 2e42 90909090 		.align 32
 5312      90909090 
 5312      90909090 
 5312      90909090 
 5312      90909090 
 5313              	LC133:
 5314 2e60 2E2E5C2E 		.ascii "..\\..\\Customer\\CustResource\\CustAdoMap.c\0"
 5314      2E5C4375 
 5314      73746F6D 
 5314      65725C43 
 5314      75737452 
 5315              	LC134:
 5316 2e89 43555354 		.ascii "CUSTOM_AUDIO_MAP\0"
 5316      4F4D5F41 
 5316      5544494F 
 5316      5F4D4150 
 5316      00
 5317              	LC135:
 5318 2e9a 43757272 		.ascii "CurrMaxAudioId\0"
 5318      4D617841 
 5318      7564696F 
 5318      496400
 5319              	LC136:
 5320 2ea9 43757374 		.ascii "CustAudioMap.c\0"
 5320      41756469 
 5320      6F4D6170 
 5320      2E6300
 5321              	LC137:
 5322 2eb8 41756469 		.ascii "AudioIdMap\0"
 5322      6F49644D 
 5322      617000
 5323 2ec3 90909090 		.align 32
 5323      90909090 
 5323      90909090 
 5323      90909090 
 5323      90909090 
 5324              	LC138:
 5325 2ee0 2E2E5C2E 		.ascii "..\\..\\Customer\\CustResource\\CustAdoMapExt.c\0"
 5325      2E5C4375 
 5325      73746F6D 
 5325      65725C43 
 5325      75737452 
 5326              	LC139:
 5327 2f0c 43757272 		.ascii "CurrMaxAudioIdEXT\0"
 5327      4D617841 
 5327      7564696F 
 5327      49644558 
GAS LISTING d:/github/AIOT_WORKSHOP/AIoT_MT2503AVE_SDK/11CW1418SP4_03_CORETEK03AE_11C_V1_GPRS_MMI/plutommi/Customer/ResGenerator/gcctmp/ccmAfaaa.s 			page 89


 5327      5400
 5328              	LC140:
 5329 2f1e 43757374 		.ascii "CustAudioMapExt.c\0"
 5329      41756469 
 5329      6F4D6170 
 5329      4578742E 
 5329      6300
 5330              	LC141:
 5331 2f30 41756469 		.ascii "AudioIdMapEXT\0"
 5331      6F49644D 
 5331      61704558 
 5331      5400
 5332              		.align 2
 5335              	__Z20GenerateAudioMapFilev:
1686:mtk_resgenerator.cpp **** 
1687:mtk_resgenerator.cpp **** 
1688:mtk_resgenerator.cpp **** /*****************************************************************************
1689:mtk_resgenerator.cpp **** * FUNCTION
1690:mtk_resgenerator.cpp **** *  GenerateAudioMapFile
1691:mtk_resgenerator.cpp **** * DESCRIPTION
1692:mtk_resgenerator.cpp **** *  generate audio ID map file
1693:mtk_resgenerator.cpp **** * PARAMETERS
1694:mtk_resgenerator.cpp **** *  void
1695:mtk_resgenerator.cpp **** * RETURNS
1696:mtk_resgenerator.cpp **** *  void
1697:mtk_resgenerator.cpp **** *****************************************************************************/
1698:mtk_resgenerator.cpp **** static void GenerateAudioMapFile(void)
1699:mtk_resgenerator.cpp **** {
 5337              	LM257:
 5338 2f3e 55       		pushl	%ebp
 5339 2f3f 89E5     		movl	%esp, %ebp
 5340 2f41 83EC28   		subl	$40, %esp
1700:mtk_resgenerator.cpp ****     /*----------------------------------------------------------------*/
1701:mtk_resgenerator.cpp ****     /* Local Variables                                                */
1702:mtk_resgenerator.cpp ****     /*----------------------------------------------------------------*/
1703:mtk_resgenerator.cpp **** 
1704:mtk_resgenerator.cpp ****     /*----------------------------------------------------------------*/
1705:mtk_resgenerator.cpp ****     /* Code Body                                                      */
1706:mtk_resgenerator.cpp ****     /*----------------------------------------------------------------*/
1707:mtk_resgenerator.cpp ****     RESGEN_LOG_V("GenerateAudioMapFile(): File output: CustAdoMap.c CustAdoMapExt.c");
 5342              	LM258:
 5343              	LBB33:
 5344 2f44 C7442408 		movl	$LC132, 8(%esp)
 5344      002E0000 
 5345 2f4c C7442404 		movl	$LC1, 4(%esp)
 5345      3E000000 
 5346 2f54 C7042401 		movl	$1, (%esp)
 5346      000000
 5347 2f5b E8000000 		call	_reslog_adaptor_log
 5347      00
1708:mtk_resgenerator.cpp **** 
1709:mtk_resgenerator.cpp ****     GenerateMapFile_Ext(
 5349              	LM259:
 5350 2f60 C7442418 		movl	$LC133, 24(%esp)
 5350      602E0000 
 5351 2f68 C7442414 		movl	$LC134, 20(%esp)
 5351      892E0000 
GAS LISTING d:/github/AIOT_WORKSHOP/AIoT_MT2503AVE_SDK/11CW1418SP4_03_CORETEK03AE_11C_V1_GPRS_MMI/plutommi/Customer/ResGenerator/gcctmp/ccmAfaaa.s 			page 90


 5352 2f70 C7442410 		movl	$LC135, 16(%esp)
 5352      9A2E0000 
 5353 2f78 C744240C 		movl	$LC136, 12(%esp)
 5353      A92E0000 
 5354 2f80 C7442408 		movl	$LC137, 8(%esp)
 5354      B82E0000 
 5355 2f88 0FB70500 		movzwl	_CurrMaxAudioId, %eax
 5355      000000
 5356 2f8f 89442404 		movl	%eax, 4(%esp)
 5357 2f93 C7042400 		movl	$_AudioIdMap, (%esp)
 5357      000000
 5358 2f9a E82FFBFF 		call	__Z19GenerateMapFile_ExtP13CUSTOM_ID_MAPtPcS1_S1_S1_S1_
 5358      FF
1710:mtk_resgenerator.cpp ****         (CUSTOM_ID_MAP *)AudioIdMap,
1711:mtk_resgenerator.cpp ****         CurrMaxAudioId,
1712:mtk_resgenerator.cpp ****         "AudioIdMap",
1713:mtk_resgenerator.cpp ****         "CustAudioMap.c",
1714:mtk_resgenerator.cpp ****         "CurrMaxAudioId",
1715:mtk_resgenerator.cpp ****         "CUSTOM_AUDIO_MAP",
1716:mtk_resgenerator.cpp ****         ADO_MAP_FILENAME);
1717:mtk_resgenerator.cpp ****     GenerateMapFile_Ext(
 5360              	LM260:
 5361 2f9f C7442418 		movl	$LC138, 24(%esp)
 5361      E02E0000 
 5362 2fa7 C7442414 		movl	$LC134, 20(%esp)
 5362      892E0000 
 5363 2faf C7442410 		movl	$LC139, 16(%esp)
 5363      0C2F0000 
 5364 2fb7 C744240C 		movl	$LC140, 12(%esp)
 5364      1E2F0000 
 5365 2fbf C7442408 		movl	$LC141, 8(%esp)
 5365      302F0000 
 5366 2fc7 0FB70500 		movzwl	_CurrMaxAudioIdEXT, %eax
 5366      000000
 5367 2fce 89442404 		movl	%eax, 4(%esp)
 5368 2fd2 C7042400 		movl	$_AudioIdMapEXT, (%esp)
 5368      000000
 5369 2fd9 E8F0FAFF 		call	__Z19GenerateMapFile_ExtP13CUSTOM_ID_MAPtPcS1_S1_S1_S1_
 5369      FF
1718:mtk_resgenerator.cpp ****         (CUSTOM_ID_MAP *)AudioIdMapEXT,
1719:mtk_resgenerator.cpp ****         CurrMaxAudioIdEXT,
1720:mtk_resgenerator.cpp ****         "AudioIdMapEXT",
1721:mtk_resgenerator.cpp ****         "CustAudioMapExt.c",
1722:mtk_resgenerator.cpp ****         "CurrMaxAudioIdEXT",
1723:mtk_resgenerator.cpp ****         "CUSTOM_AUDIO_MAP",
1724:mtk_resgenerator.cpp ****         ADO_MAP_FILENAME_EXT);
1725:mtk_resgenerator.cpp **** }
 5371              	LM261:
 5372 2fde C9       		leave
 5373 2fdf C3       		ret
 5374              	LBE33:
 5375              	Lscope14:
 5377              		.align 32
 5378              	LC142:
 5379 2fe0 47656E65 		.ascii "GenerateFontMapFile(): File output: CustFontMap.c CustFontMapExt.c\0"
 5379      72617465 
 5379      466F6E74 
GAS LISTING d:/github/AIOT_WORKSHOP/AIoT_MT2503AVE_SDK/11CW1418SP4_03_CORETEK03AE_11C_V1_GPRS_MMI/plutommi/Customer/ResGenerator/gcctmp/ccmAfaaa.s 			page 91


 5379      4D617046 
 5379      696C6528 
 5380 3023 90909090 		.align 32
 5380      90909090 
 5380      90909090 
 5380      90909090 
 5380      90909090 
 5381              	LC143:
 5382 3040 2E2E5C2E 		.ascii "..\\..\\Customer\\CustResource\\CustFontMapExt.c\0"
 5382      2E5C4375 
 5382      73746F6D 
 5382      65725C43 
 5382      75737452 
 5383              	LC144:
 5384 306d 43555354 		.ascii "CUSTOM_FONT_MAP\0"
 5384      4F4D5F46 
 5384      4F4E545F 
 5384      4D415000 
 5385              	LC145:
 5386 307d 6D746B5F 		.ascii "mtk_CurrMaxFontIdEXT\0"
 5386      43757272 
 5386      4D617846 
 5386      6F6E7449 
 5386      64455854 
 5387              	LC146:
 5388 3092 43757374 		.ascii "CustFontMapExt.c\0"
 5388      466F6E74 
 5388      4D617045 
 5388      78742E63 
 5388      00
 5389              	LC147:
 5390 30a3 6D746B5F 		.ascii "mtk_CustFontMapEXT\0"
 5390      43757374 
 5390      466F6E74 
 5390      4D617045 
 5390      585400
 5391              		.align 2
 5394              	__Z19GenerateFontMapFilev:
1726:mtk_resgenerator.cpp **** 
1727:mtk_resgenerator.cpp **** 
1728:mtk_resgenerator.cpp **** 
1729:mtk_resgenerator.cpp **** /*****************************************************************************
1730:mtk_resgenerator.cpp **** * FUNCTION
1731:mtk_resgenerator.cpp **** *  GenerateFontMapFile
1732:mtk_resgenerator.cpp **** * DESCRIPTION
1733:mtk_resgenerator.cpp **** *  generate Font ID map file
1734:mtk_resgenerator.cpp **** * PARAMETERS
1735:mtk_resgenerator.cpp **** *  void
1736:mtk_resgenerator.cpp **** * RETURNS
1737:mtk_resgenerator.cpp **** *  void
1738:mtk_resgenerator.cpp **** *****************************************************************************/
1739:mtk_resgenerator.cpp **** static void GenerateFontMapFile(void)
1740:mtk_resgenerator.cpp **** {
 5396              	LM262:
 5397 30b6 55       		pushl	%ebp
 5398 30b7 89E5     		movl	%esp, %ebp
 5399 30b9 83EC28   		subl	$40, %esp
GAS LISTING d:/github/AIOT_WORKSHOP/AIoT_MT2503AVE_SDK/11CW1418SP4_03_CORETEK03AE_11C_V1_GPRS_MMI/plutommi/Customer/ResGenerator/gcctmp/ccmAfaaa.s 			page 92


1741:mtk_resgenerator.cpp ****     /*----------------------------------------------------------------*/
1742:mtk_resgenerator.cpp ****     /* Local Variables                                                */
1743:mtk_resgenerator.cpp ****     /*----------------------------------------------------------------*/
1744:mtk_resgenerator.cpp **** 
1745:mtk_resgenerator.cpp ****     /*----------------------------------------------------------------*/
1746:mtk_resgenerator.cpp ****     /* Code Body                                                      */
1747:mtk_resgenerator.cpp ****     /*----------------------------------------------------------------*/
1748:mtk_resgenerator.cpp ****     RESGEN_LOG_V("GenerateFontMapFile(): File output: CustFontMap.c CustFontMapExt.c");
 5401              	LM263:
 5402              	LBB34:
 5403 30bc C7442408 		movl	$LC142, 8(%esp)
 5403      E02F0000 
 5404 30c4 C7442404 		movl	$LC1, 4(%esp)
 5404      3E000000 
 5405 30cc C7042401 		movl	$1, (%esp)
 5405      000000
 5406 30d3 E8000000 		call	_reslog_adaptor_log
 5406      00
1749:mtk_resgenerator.cpp **** 
1750:mtk_resgenerator.cpp ****     GenerateMapFile_Ext(
 5408              	LM264:
 5409 30d8 C7442418 		movl	$LC143, 24(%esp)
 5409      40300000 
 5410 30e0 C7442414 		movl	$LC144, 20(%esp)
 5410      6D300000 
 5411 30e8 C7442410 		movl	$LC145, 16(%esp)
 5411      7D300000 
 5412 30f0 C744240C 		movl	$LC146, 12(%esp)
 5412      92300000 
 5413 30f8 C7442408 		movl	$LC147, 8(%esp)
 5413      A3300000 
 5414 3100 0FB70500 		movzwl	_CurrMaxFontIdEXT, %eax
 5414      000000
 5415 3107 89442404 		movl	%eax, 4(%esp)
 5416 310b C7042400 		movl	$_FontIdMapEXT, (%esp)
 5416      000000
 5417 3112 E8B7F9FF 		call	__Z19GenerateMapFile_ExtP13CUSTOM_ID_MAPtPcS1_S1_S1_S1_
 5417      FF
1751:mtk_resgenerator.cpp ****         (CUSTOM_ID_MAP *)FontIdMapEXT,
1752:mtk_resgenerator.cpp ****         CurrMaxFontIdEXT,
1753:mtk_resgenerator.cpp ****         "mtk_CustFontMapEXT",
1754:mtk_resgenerator.cpp ****         "CustFontMapExt.c",
1755:mtk_resgenerator.cpp ****         "mtk_CurrMaxFontIdEXT",
1756:mtk_resgenerator.cpp ****         "CUSTOM_FONT_MAP",
1757:mtk_resgenerator.cpp ****         FONT_MAP_FILENAME_EXT);
1758:mtk_resgenerator.cpp **** }
 5419              	LM265:
 5420 3117 C9       		leave
 5421 3118 C3       		ret
 5422              	LBE34:
 5423              	Lscope15:
 5425              	LC148:
 5426 3119 6100     		.ascii "a\0"
 5427              	LC149:
 5428 311b 636F6E73 		.ascii "const unsigned short %s=%d;\12\0"
 5428      7420756E 
 5428      7369676E 
GAS LISTING d:/github/AIOT_WORKSHOP/AIoT_MT2503AVE_SDK/11CW1418SP4_03_CORETEK03AE_11C_V1_GPRS_MMI/plutommi/Customer/ResGenerator/gcctmp/ccmAfaaa.s 			page 93


 5428      65642073 
 5428      686F7274 
 5429              	LC150:
 5430 3138 097B2564 		.ascii "\11{%d,%d,%d},\12\0"
 5430      2C25642C 
 5430      25647D2C 
 5430      0A00
 5431              	LC151:
 5432 3146 25732025 		.ascii "%s %s[1];\0"
 5432      735B315D 
 5432      3B00
 5433              		.align 2
 5442              	__Z25GenerateMapSearchFile_ExtP20CUSTOM_ID_SEARCH_MAPtPcS1_S1_S1_:
1759:mtk_resgenerator.cpp **** 
1760:mtk_resgenerator.cpp **** /*****************************************************************************
1761:mtk_resgenerator.cpp **** * FUNCTION
1762:mtk_resgenerator.cpp **** *  GenerateMapSearchFile_Ext
1763:mtk_resgenerator.cpp **** * DESCRIPTION
1764:mtk_resgenerator.cpp **** *  generate ID search map file
1765:mtk_resgenerator.cpp **** * PARAMETERS
1766:mtk_resgenerator.cpp **** *  pMap                [IN]    ID search map
1767:mtk_resgenerator.cpp **** *  nSize               [IN]    size
1768:mtk_resgenerator.cpp **** *  str_CurrMaxSearchId [IN]    output variable name
1769:mtk_resgenerator.cpp **** *  str_IdSearchMap     [IN]    output variable name
1770:mtk_resgenerator.cpp **** *  str_CustType        [IN]    output variable name
1771:mtk_resgenerator.cpp **** *  curr_map_filename   [IN]    output file name
1772:mtk_resgenerator.cpp **** * RETURNS
1773:mtk_resgenerator.cpp **** *  void
1774:mtk_resgenerator.cpp **** *****************************************************************************/
1775:mtk_resgenerator.cpp **** static void GenerateMapSearchFile_Ext(
1776:mtk_resgenerator.cpp ****                                       CUSTOM_ID_SEARCH_MAP *pMap,
1777:mtk_resgenerator.cpp ****                                       U16 nSize,
1778:mtk_resgenerator.cpp ****                                       char *str_CurrMaxSearchId,
1779:mtk_resgenerator.cpp ****                                       char *str_IdSearchMap,
1780:mtk_resgenerator.cpp ****                                       char *str_CustType,
1781:mtk_resgenerator.cpp ****                                       char *curr_map_filename)
1782:mtk_resgenerator.cpp **** {
 5444              	LM266:
 5445 3150 55       		pushl	%ebp
 5446 3151 89E5     		movl	%esp, %ebp
 5447 3153 83EC28   		subl	$40, %esp
 5448 3156 8B450C   		movl	12(%ebp), %eax
 5449 3159 668945FE 		movw	%ax, -2(%ebp)
1783:mtk_resgenerator.cpp ****     /*----------------------------------------------------------------*/
1784:mtk_resgenerator.cpp ****     /* Local Variables                                                */
1785:mtk_resgenerator.cpp ****     /*----------------------------------------------------------------*/
1786:mtk_resgenerator.cpp ****     FILE *pFile;
1787:mtk_resgenerator.cpp ****     int i;
1788:mtk_resgenerator.cpp **** 
1789:mtk_resgenerator.cpp ****     /*----------------------------------------------------------------*/
1790:mtk_resgenerator.cpp ****     /* Code Body                                                      */
1791:mtk_resgenerator.cpp ****     /*----------------------------------------------------------------*/
1792:mtk_resgenerator.cpp ****     if(pFile = fopen(curr_map_filename, "a"))
 5451              	LM267:
 5452              	LBB35:
 5453 315d C7442404 		movl	$LC148, 4(%esp)
 5453      19310000 
GAS LISTING d:/github/AIOT_WORKSHOP/AIoT_MT2503AVE_SDK/11CW1418SP4_03_CORETEK03AE_11C_V1_GPRS_MMI/plutommi/Customer/ResGenerator/gcctmp/ccmAfaaa.s 			page 94


 5454 3165 8B451C   		movl	28(%ebp), %eax
 5455 3168 890424   		movl	%eax, (%esp)
 5456 316b E8000000 		call	_fopen
 5456      00
 5457 3170 8945F8   		movl	%eax, -8(%ebp)
 5458 3173 837DF800 		cmpl	$0, -8(%ebp)
 5459 3177 0F840201 		je	L119
 5459      0000
1793:mtk_resgenerator.cpp ****     {
1794:mtk_resgenerator.cpp ****         fprintf(pFile, "const unsigned short %s=%d;\n", str_CurrMaxSearchId, nSize);
 5461              	LM268:
 5462 317d 0FB745FE 		movzwl	-2(%ebp), %eax
 5463 3181 8944240C 		movl	%eax, 12(%esp)
 5464 3185 8B4510   		movl	16(%ebp), %eax
 5465 3188 89442408 		movl	%eax, 8(%esp)
 5466 318c C7442404 		movl	$LC149, 4(%esp)
 5466      1B310000 
 5467 3194 8B45F8   		movl	-8(%ebp), %eax
 5468 3197 890424   		movl	%eax, (%esp)
 5469 319a E8000000 		call	_fprintf
 5469      00
1795:mtk_resgenerator.cpp **** 
1796:mtk_resgenerator.cpp ****         /* writing the search map array inside the file. */
1797:mtk_resgenerator.cpp ****         if(nSize)
 5471              	LM269:
 5472 319f 66837DFE 		cmpw	$0, -2(%ebp)
 5472      00
 5473 31a4 0F84A900 		je	L121
 5473      0000
1798:mtk_resgenerator.cpp ****         {
1799:mtk_resgenerator.cpp ****             fprintf(pFile, "const %s %s[]={\n", str_CustType, str_IdSearchMap);
 5475              	LM270:
 5476 31aa 8B4514   		movl	20(%ebp), %eax
 5477 31ad 8944240C 		movl	%eax, 12(%esp)
 5478 31b1 8B4518   		movl	24(%ebp), %eax
 5479 31b4 89442408 		movl	%eax, 8(%esp)
 5480 31b8 C7442404 		movl	$LC119, 4(%esp)
 5480      A32A0000 
 5481 31c0 8B45F8   		movl	-8(%ebp), %eax
 5482 31c3 890424   		movl	%eax, (%esp)
 5483 31c6 E8000000 		call	_fprintf
 5483      00
1800:mtk_resgenerator.cpp ****             for(i = 0; i < nSize; i++)
 5485              	LM271:
 5486 31cb C745F400 		movl	$0, -12(%ebp)
 5486      000000
 5487              	L122:
 5488 31d2 0FB745FE 		movzwl	-2(%ebp), %eax
 5489 31d6 3945F4   		cmpl	%eax, -12(%ebp)
 5490 31d9 7C02     		jl	L125
 5491 31db EB61     		jmp	L123
 5492              	L125:
1801:mtk_resgenerator.cpp ****             {
1802:mtk_resgenerator.cpp ****                 fprintf(pFile, "\t{%d,%d,%d},\n", pMap[i].minId, pMap[i].maxId, pMap[i].index);
 5494              	LM272:
 5495 31dd 8B55F4   		movl	-12(%ebp), %edx
 5496 31e0 89D0     		movl	%edx, %eax
GAS LISTING d:/github/AIOT_WORKSHOP/AIoT_MT2503AVE_SDK/11CW1418SP4_03_CORETEK03AE_11C_V1_GPRS_MMI/plutommi/Customer/ResGenerator/gcctmp/ccmAfaaa.s 			page 95


 5497 31e2 01C0     		addl	%eax, %eax
 5498 31e4 01D0     		addl	%edx, %eax
 5499 31e6 8D1400   		leal	(%eax,%eax), %edx
 5500 31e9 8B4508   		movl	8(%ebp), %eax
 5501 31ec 0FB74410 		movzwl	4(%eax,%edx), %eax
 5501      04
 5502 31f1 89442410 		movl	%eax, 16(%esp)
 5503 31f5 8B55F4   		movl	-12(%ebp), %edx
 5504 31f8 89D0     		movl	%edx, %eax
 5505 31fa 01C0     		addl	%eax, %eax
 5506 31fc 01D0     		addl	%edx, %eax
 5507 31fe 8D1400   		leal	(%eax,%eax), %edx
 5508 3201 8B4508   		movl	8(%ebp), %eax
 5509 3204 0FB74410 		movzwl	2(%eax,%edx), %eax
 5509      02
 5510 3209 8944240C 		movl	%eax, 12(%esp)
 5511 320d 8B55F4   		movl	-12(%ebp), %edx
 5512 3210 89D0     		movl	%edx, %eax
 5513 3212 01C0     		addl	%eax, %eax
 5514 3214 01D0     		addl	%edx, %eax
 5515 3216 8D1400   		leal	(%eax,%eax), %edx
 5516 3219 8B4508   		movl	8(%ebp), %eax
 5517 321c 0FB70410 		movzwl	(%eax,%edx), %eax
 5518 3220 89442408 		movl	%eax, 8(%esp)
 5519 3224 C7442404 		movl	$LC150, 4(%esp)
 5519      38310000 
 5520 322c 8B45F8   		movl	-8(%ebp), %eax
 5521 322f 890424   		movl	%eax, (%esp)
 5522 3232 E8000000 		call	_fprintf
 5522      00
 5524              	LM273:
 5525 3237 8D45F4   		leal	-12(%ebp), %eax
 5526 323a FF00     		incl	(%eax)
 5527 323c EB94     		jmp	L122
 5528              	L123:
1803:mtk_resgenerator.cpp ****             }
1804:mtk_resgenerator.cpp ****             fprintf(pFile, "};\n\n\n\n");
 5530              	LM274:
 5531 323e C7442404 		movl	$LC67, 4(%esp)
 5531      1C1B0000 
 5532 3246 8B45F8   		movl	-8(%ebp), %eax
 5533 3249 890424   		movl	%eax, (%esp)
 5534 324c E8000000 		call	_fprintf
 5534      00
 5535 3251 EB21     		jmp	L126
 5536              	L121:
1805:mtk_resgenerator.cpp ****         }
1806:mtk_resgenerator.cpp ****         else
1807:mtk_resgenerator.cpp ****         {
1808:mtk_resgenerator.cpp ****             fprintf(pFile, "%s %s[1];", str_CustType, str_IdSearchMap);
 5538              	LM275:
 5539 3253 8B4514   		movl	20(%ebp), %eax
 5540 3256 8944240C 		movl	%eax, 12(%esp)
 5541 325a 8B4518   		movl	24(%ebp), %eax
 5542 325d 89442408 		movl	%eax, 8(%esp)
 5543 3261 C7442404 		movl	$LC151, 4(%esp)
 5543      46310000 
GAS LISTING d:/github/AIOT_WORKSHOP/AIoT_MT2503AVE_SDK/11CW1418SP4_03_CORETEK03AE_11C_V1_GPRS_MMI/plutommi/Customer/ResGenerator/gcctmp/ccmAfaaa.s 			page 96


 5544 3269 8B45F8   		movl	-8(%ebp), %eax
 5545 326c 890424   		movl	%eax, (%esp)
 5546 326f E8000000 		call	_fprintf
 5546      00
 5547              	L126:
1809:mtk_resgenerator.cpp ****         }
1810:mtk_resgenerator.cpp ****         fclose(pFile);
 5549              	LM276:
 5550 3274 8B45F8   		movl	-8(%ebp), %eax
 5551 3277 890424   		movl	%eax, (%esp)
 5552 327a E8000000 		call	_fclose
 5552      00
1811:mtk_resgenerator.cpp ****     }
1812:mtk_resgenerator.cpp **** }
 5554              	LM277:
 5555              	L119:
 5556 327f C9       		leave
 5557 3280 C3       		ret
 5558              	LBE35:
 5564              	Lscope16:
 5566 3281 90909090 		.align 32
 5566      90909090 
 5566      90909090 
 5566      90909090 
 5566      90909090 
 5567              	LC152:
 5568 32a0 47656E65 		.ascii "GenerateImageMapSearchFile(): File output: CustImgMap.c CustImgMapExt.c\0"
 5568      72617465 
 5568      496D6167 
 5568      654D6170 
 5568      53656172 
 5569              	LC153:
 5570 32e8 43555354 		.ascii "CUSTOM_IMAGE_SEARCH_MAP\0"
 5570      4F4D5F49 
 5570      4D414745 
 5570      5F534541 
 5570      5243485F 
 5571              	LC154:
 5572 3300 496D6167 		.ascii "ImageIdSearchMap\0"
 5572      65496453 
 5572      65617263 
 5572      684D6170 
 5572      00
 5573              	LC155:
 5574 3311 43757272 		.ascii "CurrMaxSearchImageId\0"
 5574      4D617853 
 5574      65617263 
 5574      68496D61 
 5574      67654964 
 5575              	LC156:
 5576 3326 496D6167 		.ascii "ImageIdSearchMapEXT\0"
 5576      65496453 
 5576      65617263 
 5576      684D6170 
 5576      45585400 
 5577              	LC157:
 5578 333a 43757272 		.ascii "CurrMaxSearchImageIdEXT\0"
GAS LISTING d:/github/AIOT_WORKSHOP/AIoT_MT2503AVE_SDK/11CW1418SP4_03_CORETEK03AE_11C_V1_GPRS_MMI/plutommi/Customer/ResGenerator/gcctmp/ccmAfaaa.s 			page 97


 5578      4D617853 
 5578      65617263 
 5578      68496D61 
 5578      67654964 
 5579              		.align 2
 5582              	__Z26GenerateImageMapSearchFilev:
1813:mtk_resgenerator.cpp **** 
1814:mtk_resgenerator.cpp **** 
1815:mtk_resgenerator.cpp **** /*****************************************************************************
1816:mtk_resgenerator.cpp **** * FUNCTION
1817:mtk_resgenerator.cpp **** *  GenerateImageMapSearchFile
1818:mtk_resgenerator.cpp **** * DESCRIPTION
1819:mtk_resgenerator.cpp **** *  generate image search map file
1820:mtk_resgenerator.cpp **** * PARAMETERS
1821:mtk_resgenerator.cpp **** *  void
1822:mtk_resgenerator.cpp **** * RETURNS
1823:mtk_resgenerator.cpp **** *  void
1824:mtk_resgenerator.cpp **** *****************************************************************************/
1825:mtk_resgenerator.cpp **** static void GenerateImageMapSearchFile(void)
1826:mtk_resgenerator.cpp **** {
 5584              	LM278:
 5585 3352 55       		pushl	%ebp
 5586 3353 89E5     		movl	%esp, %ebp
 5587 3355 83EC18   		subl	$24, %esp
1827:mtk_resgenerator.cpp ****     /*----------------------------------------------------------------*/
1828:mtk_resgenerator.cpp ****     /* Local Variables                                                */
1829:mtk_resgenerator.cpp ****     /*----------------------------------------------------------------*/
1830:mtk_resgenerator.cpp **** 
1831:mtk_resgenerator.cpp ****     /*----------------------------------------------------------------*/
1832:mtk_resgenerator.cpp ****     /* Code Body                                                      */
1833:mtk_resgenerator.cpp ****     /*----------------------------------------------------------------*/
1834:mtk_resgenerator.cpp ****     RESGEN_LOG_V("GenerateImageMapSearchFile(): File output: CustImgMap.c CustImgMapExt.c");
 5589              	LM279:
 5590              	LBB36:
 5591 3358 C7442408 		movl	$LC152, 8(%esp)
 5591      A0320000 
 5592 3360 C7442404 		movl	$LC1, 4(%esp)
 5592      3E000000 
 5593 3368 C7042401 		movl	$1, (%esp)
 5593      000000
 5594 336f E8000000 		call	_reslog_adaptor_log
 5594      00
1835:mtk_resgenerator.cpp **** 
1836:mtk_resgenerator.cpp ****     GenerateMapSearchFile_Ext(
 5596              	LM280:
 5597 3374 C7442414 		movl	$LC123, 20(%esp)
 5597      802C0000 
 5598 337c C7442410 		movl	$LC153, 16(%esp)
 5598      E8320000 
 5599 3384 C744240C 		movl	$LC154, 12(%esp)
 5599      00330000 
 5600 338c C7442408 		movl	$LC155, 8(%esp)
 5600      11330000 
 5601 3394 0FB70500 		movzwl	_CurrMaxSearchImageId, %eax
 5601      000000
 5602 339b 89442404 		movl	%eax, 4(%esp)
 5603 339f C7042400 		movl	$_ImageIdSearchMap, (%esp)
GAS LISTING d:/github/AIOT_WORKSHOP/AIoT_MT2503AVE_SDK/11CW1418SP4_03_CORETEK03AE_11C_V1_GPRS_MMI/plutommi/Customer/ResGenerator/gcctmp/ccmAfaaa.s 			page 98


 5603      000000
 5604 33a6 E8A5FDFF 		call	__Z25GenerateMapSearchFile_ExtP20CUSTOM_ID_SEARCH_MAPtPcS1_S1_S1_
 5604      FF
1837:mtk_resgenerator.cpp ****         (CUSTOM_ID_SEARCH_MAP *)ImageIdSearchMap,
1838:mtk_resgenerator.cpp ****         CurrMaxSearchImageId,
1839:mtk_resgenerator.cpp ****         "CurrMaxSearchImageId",
1840:mtk_resgenerator.cpp ****         "ImageIdSearchMap",
1841:mtk_resgenerator.cpp ****         "CUSTOM_IMAGE_SEARCH_MAP",
1842:mtk_resgenerator.cpp ****         IMG_MAP_FILENAME);
1843:mtk_resgenerator.cpp ****     GenerateMapSearchFile_Ext(
 5606              	LM281:
 5607 33ab C7442414 		movl	$LC128, 20(%esp)
 5607      002D0000 
 5608 33b3 C7442410 		movl	$LC153, 16(%esp)
 5608      E8320000 
 5609 33bb C744240C 		movl	$LC156, 12(%esp)
 5609      26330000 
 5610 33c3 C7442408 		movl	$LC157, 8(%esp)
 5610      3A330000 
 5611 33cb 0FB70500 		movzwl	_CurrMaxSearchImageIdEXT, %eax
 5611      000000
 5612 33d2 89442404 		movl	%eax, 4(%esp)
 5613 33d6 C7042400 		movl	$_ImageIdSearchMapEXT, (%esp)
 5613      000000
 5614 33dd E86EFDFF 		call	__Z25GenerateMapSearchFile_ExtP20CUSTOM_ID_SEARCH_MAPtPcS1_S1_S1_
 5614      FF
1844:mtk_resgenerator.cpp ****         (CUSTOM_ID_SEARCH_MAP *)ImageIdSearchMapEXT,
1845:mtk_resgenerator.cpp ****         CurrMaxSearchImageIdEXT,
1846:mtk_resgenerator.cpp ****         "CurrMaxSearchImageIdEXT",
1847:mtk_resgenerator.cpp ****         "ImageIdSearchMapEXT",
1848:mtk_resgenerator.cpp ****         "CUSTOM_IMAGE_SEARCH_MAP",
1849:mtk_resgenerator.cpp ****         IMG_MAP_FILENAME_EXT);
1850:mtk_resgenerator.cpp **** }
 5616              	LM282:
 5617 33e2 C9       		leave
 5618 33e3 C3       		ret
 5619              	LBE36:
 5620              	Lscope17:
 5622 33e4 90909090 		.align 32
 5622      90909090 
 5622      90909090 
 5622      90909090 
 5622      90909090 
 5623              	LC158:
 5624 3400 47656E65 		.ascii "GenerateAudioMapSearchFile(): File output: CustAdoMap.c CustAdoMapExt.c\0"
 5624      72617465 
 5624      41756469 
 5624      6F4D6170 
 5624      53656172 
 5625              	LC159:
 5626 3448 43555354 		.ascii "CUSTOM_AUDIO_SEARCH_MAP\0"
 5626      4F4D5F41 
 5626      5544494F 
 5626      5F534541 
 5626      5243485F 
 5627              	LC160:
 5628 3460 41756469 		.ascii "AudioIdSearchMap\0"
GAS LISTING d:/github/AIOT_WORKSHOP/AIoT_MT2503AVE_SDK/11CW1418SP4_03_CORETEK03AE_11C_V1_GPRS_MMI/plutommi/Customer/ResGenerator/gcctmp/ccmAfaaa.s 			page 99


 5628      6F496453 
 5628      65617263 
 5628      684D6170 
 5628      00
 5629              	LC161:
 5630 3471 43757272 		.ascii "CurrMaxSearchAudioId\0"
 5630      4D617853 
 5630      65617263 
 5630      68417564 
 5630      696F4964 
 5631              	LC162:
 5632 3486 41756469 		.ascii "AudioIdSearchMapEXT\0"
 5632      6F496453 
 5632      65617263 
 5632      684D6170 
 5632      45585400 
 5633              	LC163:
 5634 349a 43757272 		.ascii "CurrMaxSearchAudioIdEXT\0"
 5634      4D617853 
 5634      65617263 
 5634      68417564 
 5634      696F4964 
 5635              		.align 2
 5638              	__Z26GenerateAudioMapSearchFilev:
1851:mtk_resgenerator.cpp **** 
1852:mtk_resgenerator.cpp **** 
1853:mtk_resgenerator.cpp **** /*****************************************************************************
1854:mtk_resgenerator.cpp **** * FUNCTION
1855:mtk_resgenerator.cpp **** *  GenerateAudioMapSearchFile
1856:mtk_resgenerator.cpp **** * DESCRIPTION
1857:mtk_resgenerator.cpp **** *  generate audio search map file
1858:mtk_resgenerator.cpp **** * PARAMETERS
1859:mtk_resgenerator.cpp **** *  void
1860:mtk_resgenerator.cpp **** * RETURNS
1861:mtk_resgenerator.cpp **** *  void
1862:mtk_resgenerator.cpp **** *****************************************************************************/
1863:mtk_resgenerator.cpp **** static void GenerateAudioMapSearchFile(void)
1864:mtk_resgenerator.cpp **** {
 5640              	LM283:
 5641 34b2 55       		pushl	%ebp
 5642 34b3 89E5     		movl	%esp, %ebp
 5643 34b5 83EC18   		subl	$24, %esp
1865:mtk_resgenerator.cpp ****     /*----------------------------------------------------------------*/
1866:mtk_resgenerator.cpp ****     /* Local Variables                                                */
1867:mtk_resgenerator.cpp ****     /*----------------------------------------------------------------*/
1868:mtk_resgenerator.cpp **** 
1869:mtk_resgenerator.cpp ****     /*----------------------------------------------------------------*/
1870:mtk_resgenerator.cpp ****     /* Code Body                                                      */
1871:mtk_resgenerator.cpp ****     /*----------------------------------------------------------------*/
1872:mtk_resgenerator.cpp ****     RESGEN_LOG_V("GenerateAudioMapSearchFile(): File output: CustAdoMap.c CustAdoMapExt.c");
 5645              	LM284:
 5646              	LBB37:
 5647 34b8 C7442408 		movl	$LC158, 8(%esp)
 5647      00340000 
 5648 34c0 C7442404 		movl	$LC1, 4(%esp)
 5648      3E000000 
 5649 34c8 C7042401 		movl	$1, (%esp)
GAS LISTING d:/github/AIOT_WORKSHOP/AIoT_MT2503AVE_SDK/11CW1418SP4_03_CORETEK03AE_11C_V1_GPRS_MMI/plutommi/Customer/ResGenerator/gcctmp/ccmAfaaa.s 			page 100


 5649      000000
 5650 34cf E8000000 		call	_reslog_adaptor_log
 5650      00
1873:mtk_resgenerator.cpp **** 
1874:mtk_resgenerator.cpp ****     GenerateMapSearchFile_Ext(
 5652              	LM285:
 5653 34d4 C7442414 		movl	$LC133, 20(%esp)
 5653      602E0000 
 5654 34dc C7442410 		movl	$LC159, 16(%esp)
 5654      48340000 
 5655 34e4 C744240C 		movl	$LC160, 12(%esp)
 5655      60340000 
 5656 34ec C7442408 		movl	$LC161, 8(%esp)
 5656      71340000 
 5657 34f4 0FB70500 		movzwl	_CurrMaxSearchAudioId, %eax
 5657      000000
 5658 34fb 89442404 		movl	%eax, 4(%esp)
 5659 34ff C7042400 		movl	$_AudioIdSearchMap, (%esp)
 5659      000000
 5660 3506 E845FCFF 		call	__Z25GenerateMapSearchFile_ExtP20CUSTOM_ID_SEARCH_MAPtPcS1_S1_S1_
 5660      FF
1875:mtk_resgenerator.cpp ****         (CUSTOM_ID_SEARCH_MAP *)AudioIdSearchMap,
1876:mtk_resgenerator.cpp ****         CurrMaxSearchAudioId,
1877:mtk_resgenerator.cpp ****         "CurrMaxSearchAudioId",
1878:mtk_resgenerator.cpp ****         "AudioIdSearchMap",
1879:mtk_resgenerator.cpp ****         "CUSTOM_AUDIO_SEARCH_MAP",
1880:mtk_resgenerator.cpp ****         ADO_MAP_FILENAME);
1881:mtk_resgenerator.cpp ****     GenerateMapSearchFile_Ext(
 5662              	LM286:
 5663 350b C7442414 		movl	$LC138, 20(%esp)
 5663      E02E0000 
 5664 3513 C7442410 		movl	$LC159, 16(%esp)
 5664      48340000 
 5665 351b C744240C 		movl	$LC162, 12(%esp)
 5665      86340000 
 5666 3523 C7442408 		movl	$LC163, 8(%esp)
 5666      9A340000 
 5667 352b 0FB70500 		movzwl	_CurrMaxSearchAudioIdEXT, %eax
 5667      000000
 5668 3532 89442404 		movl	%eax, 4(%esp)
 5669 3536 C7042400 		movl	$_AudioIdSearchMapEXT, (%esp)
 5669      000000
 5670 353d E80EFCFF 		call	__Z25GenerateMapSearchFile_ExtP20CUSTOM_ID_SEARCH_MAPtPcS1_S1_S1_
 5670      FF
1882:mtk_resgenerator.cpp ****         (CUSTOM_ID_SEARCH_MAP *)AudioIdSearchMapEXT,
1883:mtk_resgenerator.cpp ****         CurrMaxSearchAudioIdEXT,
1884:mtk_resgenerator.cpp ****         "CurrMaxSearchAudioIdEXT",
1885:mtk_resgenerator.cpp ****         "AudioIdSearchMapEXT",
1886:mtk_resgenerator.cpp ****         "CUSTOM_AUDIO_SEARCH_MAP",
1887:mtk_resgenerator.cpp ****         ADO_MAP_FILENAME_EXT);
1888:mtk_resgenerator.cpp **** }
 5672              	LM287:
 5673 3542 C9       		leave
 5674 3543 C3       		ret
 5675              	LBE37:
 5676              	Lscope18:
 5678 3544 90909090 		.align 32
GAS LISTING d:/github/AIOT_WORKSHOP/AIoT_MT2503AVE_SDK/11CW1418SP4_03_CORETEK03AE_11C_V1_GPRS_MMI/plutommi/Customer/ResGenerator/gcctmp/ccmAfaaa.s 			page 101


 5678      90909090 
 5678      90909090 
 5678      90909090 
 5678      90909090 
 5679              	LC164:
 5680 3560 47656E65 		.ascii "GenerateFontMapSearchFile(): File output: CustFontMap.c CustFontMapExt.c\0"
 5680      72617465 
 5680      466F6E74 
 5680      4D617053 
 5680      65617263 
 5681              	LC165:
 5682 35a9 43555354 		.ascii "CUSTOM_FONT_SEARCH_MAP\0"
 5682      4F4D5F46 
 5682      4F4E545F 
 5682      53454152 
 5682      43485F4D 
 5683              	LC166:
 5684 35c0 6D746B5F 		.ascii "mtk_CustFontSearchMapEXT\0"
 5684      43757374 
 5684      466F6E74 
 5684      53656172 
 5684      63684D61 
 5685              	LC167:
 5686 35d9 6D746B5F 		.ascii "mtk_CurrMaxSearchFontIdEXT\0"
 5686      43757272 
 5686      4D617853 
 5686      65617263 
 5686      68466F6E 
 5687              		.align 2
 5690              	__Z25GenerateFontMapSearchFilev:
1889:mtk_resgenerator.cpp **** 
1890:mtk_resgenerator.cpp **** 
1891:mtk_resgenerator.cpp **** 
1892:mtk_resgenerator.cpp **** #if defined(__MMI_RESOURCE_AUDIO_COMPRESS__) || defined(__MMI_RESOURCE_IMAGE_COMPRESS__)
1893:mtk_resgenerator.cpp **** /*****************************************************************************
1894:mtk_resgenerator.cpp **** * FUNCTION
1895:mtk_resgenerator.cpp **** *  GenerateAudioZipList
1896:mtk_resgenerator.cpp **** * DESCRIPTION
1897:mtk_resgenerator.cpp **** *  generate Zip list structure
1898:mtk_resgenerator.cpp **** * PARAMETERS
1899:mtk_resgenerator.cpp **** *  pMap                [IN]    ID map
1900:mtk_resgenerator.cpp **** *  nSize               [IN]    size
1901:mtk_resgenerator.cpp **** *  str_IdMap           [IN]    output variable name
1902:mtk_resgenerator.cpp **** *  str_CustMap         [IN]    output variable name
1903:mtk_resgenerator.cpp **** *  str_CurrMaxId       [IN]    output variable name
1904:mtk_resgenerator.cpp **** *  str_CustType        [IN]    output variable name
1905:mtk_resgenerator.cpp **** *  curr_map_filename   [IN]    output file name
1906:mtk_resgenerator.cpp **** * RETURNS
1907:mtk_resgenerator.cpp **** *  void
1908:mtk_resgenerator.cpp **** *****************************************************************************/
1909:mtk_resgenerator.cpp **** static void GenerateZipList(
1910:mtk_resgenerator.cpp ****                             res_compress_struct *pCompress,
1911:mtk_resgenerator.cpp ****                             U16 nSize,
1912:mtk_resgenerator.cpp ****                             char *str_zip_count,
1913:mtk_resgenerator.cpp ****                             char *str_zip_struct,
1914:mtk_resgenerator.cpp ****                             char *str_zip_type,
1915:mtk_resgenerator.cpp ****                             char *curr_map_filename)
GAS LISTING d:/github/AIOT_WORKSHOP/AIoT_MT2503AVE_SDK/11CW1418SP4_03_CORETEK03AE_11C_V1_GPRS_MMI/plutommi/Customer/ResGenerator/gcctmp/ccmAfaaa.s 			page 102


1916:mtk_resgenerator.cpp **** {
1917:mtk_resgenerator.cpp ****     /*----------------------------------------------------------------*/
1918:mtk_resgenerator.cpp ****     /* Local Variables                                                */
1919:mtk_resgenerator.cpp ****     /*----------------------------------------------------------------*/
1920:mtk_resgenerator.cpp ****     FILE *pFile;
1921:mtk_resgenerator.cpp ****     U32 i;
1922:mtk_resgenerator.cpp **** 
1923:mtk_resgenerator.cpp ****     /*----------------------------------------------------------------*/
1924:mtk_resgenerator.cpp ****     /* Code Body                                                      */
1925:mtk_resgenerator.cpp ****     /*----------------------------------------------------------------*/
1926:mtk_resgenerator.cpp ****     if(pFile = fopen(curr_map_filename, "a"))
1927:mtk_resgenerator.cpp ****     {
1928:mtk_resgenerator.cpp **** 
1929:mtk_resgenerator.cpp ****         /* Write extern of array */
1930:mtk_resgenerator.cpp ****         for(i = 0; i < nSize; i++)
1931:mtk_resgenerator.cpp ****         {
1932:mtk_resgenerator.cpp ****             fprintf(pFile, "extern __align(4) U8 %s[];\n", pCompress[i].zi_name);
1933:mtk_resgenerator.cpp ****             fprintf(pFile, "extern __align(4) const U8 %s[];\n", pCompress[i].ro_name);
1934:mtk_resgenerator.cpp ****         }
1935:mtk_resgenerator.cpp **** 
1936:mtk_resgenerator.cpp **** 
1937:mtk_resgenerator.cpp ****         fprintf(pFile, "const unsigned short %s=%d;\n", str_zip_count, nSize);
1938:mtk_resgenerator.cpp **** 
1939:mtk_resgenerator.cpp ****         /* writing the search map array inside the file. */
1940:mtk_resgenerator.cpp ****         if(nSize != 0)
1941:mtk_resgenerator.cpp ****         {
1942:mtk_resgenerator.cpp ****             fprintf(pFile, "const %s %s[]={\n", str_zip_type, str_zip_struct);
1943:mtk_resgenerator.cpp ****             for(i = 0; i < nSize; i++)
1944:mtk_resgenerator.cpp ****             {
1945:mtk_resgenerator.cpp ****                 fprintf(pFile, "\t{(U8*)&%s, %d, (U8*)&%s, %d},\n",
1946:mtk_resgenerator.cpp ****                     pCompress[i].zi_name,
1947:mtk_resgenerator.cpp ****                     pCompress[i].zi_len,
1948:mtk_resgenerator.cpp ****                     pCompress[i].ro_name,
1949:mtk_resgenerator.cpp ****                     pCompress[i].ro_len);
1950:mtk_resgenerator.cpp ****             }
1951:mtk_resgenerator.cpp ****             fprintf(pFile, "};\n\n\n\n");
1952:mtk_resgenerator.cpp ****         }
1953:mtk_resgenerator.cpp ****         else
1954:mtk_resgenerator.cpp ****         {
1955:mtk_resgenerator.cpp ****             fprintf(pFile, "%s %s[1];", str_zip_type, str_zip_struct);
1956:mtk_resgenerator.cpp ****         }
1957:mtk_resgenerator.cpp ****         fclose(pFile);
1958:mtk_resgenerator.cpp ****     }
1959:mtk_resgenerator.cpp **** }
1960:mtk_resgenerator.cpp **** 
1961:mtk_resgenerator.cpp **** #endif /* define(__MMI_RESOURCE_AUDIO_COMPRESS__) || defined(__MMI_RESOURCE_IMAGE_COMPRESS__) */
1962:mtk_resgenerator.cpp **** 
1963:mtk_resgenerator.cpp **** 
1964:mtk_resgenerator.cpp **** #if defined(__MMI_RESOURCE_AUDIO_COMPRESS__)
1965:mtk_resgenerator.cpp **** 
1966:mtk_resgenerator.cpp **** extern res_compress_struct res_compress_data[];
1967:mtk_resgenerator.cpp **** extern U32 res_compress_count;
1968:mtk_resgenerator.cpp **** 
1969:mtk_resgenerator.cpp **** static void GenerateAudioZipList(void)
1970:mtk_resgenerator.cpp **** {
1971:mtk_resgenerator.cpp ****     RESGEN_LOG_V("GenerateImageZipList(): File output: Append zipped image table to CustAdoRes.c Cu
1972:mtk_resgenerator.cpp **** 
GAS LISTING d:/github/AIOT_WORKSHOP/AIoT_MT2503AVE_SDK/11CW1418SP4_03_CORETEK03AE_11C_V1_GPRS_MMI/plutommi/Customer/ResGenerator/gcctmp/ccmAfaaa.s 			page 103


1973:mtk_resgenerator.cpp ****     GenerateZipList(
1974:mtk_resgenerator.cpp ****         res_compress_data,
1975:mtk_resgenerator.cpp ****         res_compress_count,
1976:mtk_resgenerator.cpp ****         "mmi_res_zip_aud_count",
1977:mtk_resgenerator.cpp ****         "mmi_res_zip_aud_struct",
1978:mtk_resgenerator.cpp ****         "res_compress_list_struct",
1979:mtk_resgenerator.cpp ****         ADO_DATA_FILENAME);
1980:mtk_resgenerator.cpp **** }
1981:mtk_resgenerator.cpp **** 
1982:mtk_resgenerator.cpp **** #endif
1983:mtk_resgenerator.cpp **** 
1984:mtk_resgenerator.cpp **** #if defined(__MMI_RESOURCE_IMAGE_COMPRESS__)
1985:mtk_resgenerator.cpp **** 
1986:mtk_resgenerator.cpp **** extern res_compress_struct g_res_compress_data_image[];
1987:mtk_resgenerator.cpp **** extern U32 g_res_compress_count_image;
1988:mtk_resgenerator.cpp **** 
1989:mtk_resgenerator.cpp **** static void GenerateImageZipList(void)
1990:mtk_resgenerator.cpp **** {
1991:mtk_resgenerator.cpp ****     RESGEN_LOG_V("GenerateImageZipList(): File output: Append zipped image table to CustImgRes.c Cu
1992:mtk_resgenerator.cpp ****     GenerateZipList(
1993:mtk_resgenerator.cpp ****         g_res_compress_data_image,
1994:mtk_resgenerator.cpp ****         g_res_compress_count_image,
1995:mtk_resgenerator.cpp ****         "mmi_res_zip_img_count",
1996:mtk_resgenerator.cpp ****         "mmi_res_zip_img_struct",
1997:mtk_resgenerator.cpp ****         "res_compress_list_struct",
1998:mtk_resgenerator.cpp ****         IMG_DATA_FILENAME);
1999:mtk_resgenerator.cpp **** }
2000:mtk_resgenerator.cpp **** 
2001:mtk_resgenerator.cpp **** #endif
2002:mtk_resgenerator.cpp **** 
2003:mtk_resgenerator.cpp **** 
2004:mtk_resgenerator.cpp **** 
2005:mtk_resgenerator.cpp **** /*****************************************************************************
2006:mtk_resgenerator.cpp **** * FUNCTION
2007:mtk_resgenerator.cpp **** *  GenerateFontMapSearchFile
2008:mtk_resgenerator.cpp **** * DESCRIPTION
2009:mtk_resgenerator.cpp **** *  generate Font search map file
2010:mtk_resgenerator.cpp **** * PARAMETERS
2011:mtk_resgenerator.cpp **** *  void
2012:mtk_resgenerator.cpp **** * RETURNS
2013:mtk_resgenerator.cpp **** *  void
2014:mtk_resgenerator.cpp **** *****************************************************************************/
2015:mtk_resgenerator.cpp **** static void GenerateFontMapSearchFile(void)
2016:mtk_resgenerator.cpp **** {
 5692              	LM288:
 5693 35f4 55       		pushl	%ebp
 5694 35f5 89E5     		movl	%esp, %ebp
 5695 35f7 83EC18   		subl	$24, %esp
2017:mtk_resgenerator.cpp ****     /*----------------------------------------------------------------*/
2018:mtk_resgenerator.cpp ****     /* Local Variables                                                */
2019:mtk_resgenerator.cpp ****     /*----------------------------------------------------------------*/
2020:mtk_resgenerator.cpp **** 
2021:mtk_resgenerator.cpp ****     /*----------------------------------------------------------------*/
2022:mtk_resgenerator.cpp ****     /* Code Body                                                      */
2023:mtk_resgenerator.cpp ****     /*----------------------------------------------------------------*/
2024:mtk_resgenerator.cpp ****     RESGEN_LOG_V("GenerateFontMapSearchFile(): File output: CustFontMap.c CustFontMapExt.c");
 5697              	LM289:
GAS LISTING d:/github/AIOT_WORKSHOP/AIoT_MT2503AVE_SDK/11CW1418SP4_03_CORETEK03AE_11C_V1_GPRS_MMI/plutommi/Customer/ResGenerator/gcctmp/ccmAfaaa.s 			page 104


 5698              	LBB38:
 5699 35fa C7442408 		movl	$LC164, 8(%esp)
 5699      60350000 
 5700 3602 C7442404 		movl	$LC1, 4(%esp)
 5700      3E000000 
 5701 360a C7042401 		movl	$1, (%esp)
 5701      000000
 5702 3611 E8000000 		call	_reslog_adaptor_log
 5702      00
2025:mtk_resgenerator.cpp **** 
2026:mtk_resgenerator.cpp ****     GenerateMapSearchFile_Ext(
 5704              	LM290:
 5705 3616 C7442414 		movl	$LC143, 20(%esp)
 5705      40300000 
 5706 361e C7442410 		movl	$LC165, 16(%esp)
 5706      A9350000 
 5707 3626 C744240C 		movl	$LC166, 12(%esp)
 5707      C0350000 
 5708 362e C7442408 		movl	$LC167, 8(%esp)
 5708      D9350000 
 5709 3636 0FB70500 		movzwl	_CurrMaxSearchFontIdEXT, %eax
 5709      000000
 5710 363d 89442404 		movl	%eax, 4(%esp)
 5711 3641 C7042400 		movl	$_FontIdSearchMapEXT, (%esp)
 5711      000000
 5712 3648 E803FBFF 		call	__Z25GenerateMapSearchFile_ExtP20CUSTOM_ID_SEARCH_MAPtPcS1_S1_S1_
 5712      FF
2027:mtk_resgenerator.cpp ****         (CUSTOM_ID_SEARCH_MAP *)FontIdSearchMapEXT,
2028:mtk_resgenerator.cpp ****         CurrMaxSearchFontIdEXT,
2029:mtk_resgenerator.cpp ****         "mtk_CurrMaxSearchFontIdEXT",
2030:mtk_resgenerator.cpp ****         "mtk_CustFontSearchMapEXT",
2031:mtk_resgenerator.cpp ****         "CUSTOM_FONT_SEARCH_MAP",
2032:mtk_resgenerator.cpp ****         FONT_MAP_FILENAME_EXT);
2033:mtk_resgenerator.cpp **** }
 5714              	LM291:
 5715 364d C9       		leave
 5716 364e C3       		ret
 5717              	LBE38:
 5718              	Lscope19:
 5720 364f 90909090 		.align 32
 5720      90909090 
 5720      90909090 
 5720      90909090 
 5720      90
 5721              	LC168:
 5722 3660 47656E65 		.ascii "GenerateMenuFile(): nSize = %d\0"
 5722      72617465 
 5722      4D656E75 
 5722      46696C65 
 5722      28293A20 
 5723 367f 90       		.align 32
 5724              	LC169:
 5725 3680 2E2E5C2E 		.ascii "..\\..\\Customer\\CustResource\\CustMenuRes.c\0"
 5725      2E5C4375 
 5725      73746F6D 
 5725      65725C43 
 5725      75737452 
GAS LISTING d:/github/AIOT_WORKSHOP/AIoT_MT2503AVE_SDK/11CW1418SP4_03_CORETEK03AE_11C_V1_GPRS_MMI/plutommi/Customer/ResGenerator/gcctmp/ccmAfaaa.s 			page 105


 5726 36aa 90909090 		.align 32
 5726      90909090 
 5726      90909090 
 5726      90909090 
 5726      90909090 
 5727              	LC170:
 5728 36c0 0A2F2A2A 		.ascii "\12/************************************************************** \12 FILENAME\11: CustMe
 5728      2A2A2A2A 
 5728      2A2A2A2A 
 5728      2A2A2A2A 
 5728      2A2A2A2A 
 5729              	LC171:
 5730 37bc 23696E63 		.ascii "#include \"CustMenuRes.h\"\12\12\12\0"
 5730      6C756465 
 5730      20224375 
 5730      73744D65 
 5730      6E755265 
 5731 37d8 908DB426 		.align 32
 5731      00000000 
 5732              	LC172:
 5733 37e0 756E7369 		.ascii "unsigned short  CurrMaxMenuItemIndex=%d;\12\0"
 5733      676E6564 
 5733      2073686F 
 5733      72742020 
 5733      43757272 
 5734 380a 90909090 		.align 32
 5734      90909090 
 5734      90909090 
 5734      90909090 
 5734      90909090 
 5735              	LC173:
 5736 3820 636F6E73 		.ascii "const U16 nOrderMenuItem_%d[]={\0"
 5736      74205531 
 5736      36206E4F 
 5736      72646572 
 5736      4D656E75 
 5737              	LC174:
 5738 3840 25642C00 		.ascii "%d,\0"
 5739              	LC175:
 5740 3844 25647D3B 		.ascii "%d};\0"
 5740      00
 5741              	LC176:
 5742 3849 25730A00 		.ascii "%s\12\0"
 5743 384d 90909090 		.align 32
 5743      90909090 
 5743      90909090 
 5743      90909090 
 5743      909090
 5744              	LC177:
 5745 3860 0A20636F 		.ascii "\12 const CUSTOM_MENU\11\11mtk_nCustMenus[]={\12\0"
 5745      6E737420 
 5745      43555354 
 5745      4F4D5F4D 
 5745      454E5509 
 5746 3889 90909090 		.align 32
 5746      90909090 
 5746      90909090 
GAS LISTING d:/github/AIOT_WORKSHOP/AIoT_MT2503AVE_SDK/11CW1418SP4_03_CORETEK03AE_11C_V1_GPRS_MMI/plutommi/Customer/ResGenerator/gcctmp/ccmAfaaa.s 			page 106


 5746      90909090 
 5746      90909090 
 5747              	LC178:
 5748 38a0 7B302C20 		.ascii "{0, 0, 0, 0, 0, 0, (U16 *)0},\12\0"
 5748      302C2030 
 5748      2C20302C 
 5748      20302C20 
 5748      302C2028 
 5749 38bf 90       		.align 32
 5750              	LC179:
 5751 38c0 7B25642C 		.ascii "{%d,%d,%d,%d,%d,%d,(U16 *)nOrderMenuItem_%d},\0"
 5751      25642C25 
 5751      642C2564 
 5751      2C25642C 
 5751      25642C28 
 5752              	LC180:
 5753 38ee 7B25642C 		.ascii "{%d,%d,%d,%d,%d,%d,(U16 *)0},\0"
 5753      25642C25 
 5753      642C2564 
 5753      2C25642C 
 5753      25642C28 
 5754 390c 90909090 		.align 32
 5754      90909090 
 5754      90909090 
 5754      90909090 
 5754      90909090 
 5755              	LC181:
 5756 3920 0A0A2369 		.ascii "\12\12#ifdef __MULTIPLE_BINARY_FILES__\12\0"
 5756      66646566 
 5756      205F5F4D 
 5756      554C5449 
 5756      504C455F 
 5757 3944 90909090 		.align 32
 5757      90909090 
 5757      90909090 
 5757      90909090 
 5757      90909090 
 5758              	LC182:
 5759 3960 20202020 		.ascii "    /* we give more 50% ram for multiple bin, if Menus more than this, will be assert. */\
 5759      2F2A2077 
 5759      65206769 
 5759      7665206D 
 5759      6F726520 
 5760 39bb 908D7426 		.align 32
 5760      00
 5761              	LC183:
 5762 39c0 20202020 		.ascii "    #define AV_TOTAL_MENU_ITEM ((sizeof(mtk_nCustMenus)/sizeof(CUSTOM_MENU))*1.5)\12\0"
 5762      23646566 
 5762      696E6520 
 5762      41565F54 
 5762      4F54414C 
 5763              	LC184:
 5764 3a13 23656C73 		.ascii "#else\12\0"
 5764      650A00
 5765 3a1a 8DB60000 		.align 32
 5765      0000
 5766              	LC185:
GAS LISTING d:/github/AIOT_WORKSHOP/AIoT_MT2503AVE_SDK/11CW1418SP4_03_CORETEK03AE_11C_V1_GPRS_MMI/plutommi/Customer/ResGenerator/gcctmp/ccmAfaaa.s 			page 107


 5767 3a20 20202020 		.ascii "    #define AV_TOTAL_MENU_ITEM (sizeof(mtk_nCustMenus)/sizeof(CUSTOM_MENU))\12\0"
 5767      23646566 
 5767      696E6520 
 5767      41565F54 
 5767      4F54414C 
 5768              	LC186:
 5769 3a6d 23656E64 		.ascii "#endif\12\12\0"
 5769      69660A0A 
 5769      00
 5770 3a76 8D76008D 		.align 32
 5770      BC270000 
 5770      0000
 5771              	LC187:
 5772 3a80 636F6E73 		.ascii "const S32 mtk_gAv_total_menuitem = ((U32)AV_TOTAL_MENU_ITEM);\12\0"
 5772      74205333 
 5772      32206D74 
 5772      6B5F6741 
 5772      765F746F 
 5773 3abf 90       		.align 32
 5774              	LC188:
 5775 3ac0 2F2A2048 		.ascii "/* Hide menu item mask */\12U8 MenuItemMask[(((U32)AV_TOTAL_MENU_ITEM) / 8) + 1];\12\0"
 5775      69646520 
 5775      6D656E75 
 5775      20697465 
 5775      6D206D61 
 5776 3b11 EB0D9090 		.align 32
 5776      90909090 
 5776      90909090 
 5776      909090
 5777              	LC189:
 5778 3b20 2F2A2044 		.ascii "/* Disable (dimmed) menu item mask */\12U8 g_menuitem_disable_mask[(((U32)AV_TOTAL_MENU_IT
 5778      69736162 
 5778      6C652028 
 5778      64696D6D 
 5778      65642920 
 5779 3b8a 90909090 		.align 32
 5779      90909090 
 5779      90909090 
 5779      90909090 
 5779      90909090 
 5780              	LC190:
 5781 3ba0 0A20636F 		.ascii "\12 const CUSTOM_MENU_SEARCH_MAP\11\11CustMenuSearchMap[]={\12\0"
 5781      6E737420 
 5781      43555354 
 5781      4F4D5F4D 
 5781      454E555F 
 5782              	LC191:
 5783 3bd7 097B2564 		.ascii "\11{%d, %d, %d},\12\0"
 5783      2C202564 
 5783      2C202564 
 5783      7D2C0A00 
 5784 3be7 90909090 		.align 32
 5784      90909090 
 5784      90909090 
 5784      90909090 
 5784      90909090 
 5785              	LC192:
GAS LISTING d:/github/AIOT_WORKSHOP/AIoT_MT2503AVE_SDK/11CW1418SP4_03_CORETEK03AE_11C_V1_GPRS_MMI/plutommi/Customer/ResGenerator/gcctmp/ccmAfaaa.s 			page 108


 5786 3c00 636F6E73 		.ascii "const CUSTOM_MENU_RES_ENTRY mtk_gMenuResEntry = {(CUSTOM_MENU*)mtk_nCustMenus, (CUSTOM_MEN
 5786      74204355 
 5786      53544F4D 
 5786      5F4D454E 
 5786      555F5245 
 5787 3c81 90909090 		.align 32
 5787      90909090 
 5787      90909090 
 5787      90909090 
 5787      90909090 
 5788              	LC193:
 5789 3ca0 636F6E73 		.ascii "const CUSTOM_MENU\11\11nCustMenus[1];\0"
 5789      74204355 
 5789      53544F4D 
 5789      5F4D454E 
 5789      5509096E 
 5790 3cc2 90909090 		.align 32
 5790      90909090 
 5790      90909090 
 5790      90909090 
 5790      90909090 
 5791              	LC194:
 5792 3ce0 2E2E5C2E 		.ascii "..\\..\\Framework\\EventHandling\\EventsInc\\mmi_menu_handlers.h\0"
 5792      2E5C4672 
 5792      616D6577 
 5792      6F726B5C 
 5792      4576656E 
 5793 3d1c 8D742600 		.align 32
 5794              	LC195:
 5795 3d20 2F2A2A2A 		.ascii "/*****************************************************************************\12*  Copyri
 5795      2A2A2A2A 
 5795      2A2A2A2A 
 5795      2A2A2A2A 
 5795      2A2A2A2A 
 5796 44f0 4C204348 		.ascii "L CHAMBER OF COMMERCE (ICC).\12*\12*******************************************************
 5796      414D4245 
 5796      52204F46 
 5796      20434F4D 
 5796      4D455243 
 5797              		.align 32
 5798              	LC196:
 5799 4560 2F2A2A2A 		.ascii "/*******************************************************************************\12 * File
 5799      2A2A2A2A 
 5799      2A2A2A2A 
 5799      2A2A2A2A 
 5799      2A2A2A2A 
 5800 48e2 90909090 		.align 32
 5800      90909090 
 5800      90909090 
 5800      90909090 
 5800      90909090 
 5801              	LC197:
 5802 4900 0A236966 		.ascii "\12#ifndef _MENUHANDLER_H\12#define _MENUHANDLER_H\12\0"
 5802      6E646566 
 5802      205F4D45 
 5802      4E554841 
 5802      4E444C45 
GAS LISTING d:/github/AIOT_WORKSHOP/AIoT_MT2503AVE_SDK/11CW1418SP4_03_CORETEK03AE_11C_V1_GPRS_MMI/plutommi/Customer/ResGenerator/gcctmp/ccmAfaaa.s 			page 109


 5803 4930 90909090 		.align 32
 5803      90909090 
 5803      90909090 
 5803      90909090 
 5804              	LC198:
 5805 4940 0A2F2A20 		.ascii "\12/* need typedef void (*FuncPtr) (void); before include this file */\12\12\0"
 5805      6E656564 
 5805      20747970 
 5805      65646566 
 5805      20766F69 
 5806 4987 90909090 		.align 32
 5806      90909090 
 5806      90909090 
 5806      90909090 
 5806      90909090 
 5807              	LC199:
 5808 49a0 2F2A2023 		.ascii "/* #define MENU_HILITE_HANDLER_COUNT   %d; */\12/* #define MENU_HINT_HANDLER_COUNT     %d;
 5808      64656669 
 5808      6E65204D 
 5808      454E555F 
 5808      48494C49 
 5809              	LC200:
 5810 49fe 23696E63 		.ascii "#include \"mmi_rp_all_defs.h\"\12\0"
 5810      6C756465 
 5810      20226D6D 
 5810      695F7270 
 5810      5F616C6C 
 5811 4a1c 8D742600 		.align 32
 5812              	LC201:
 5813 4a20 2F2A2045 		.ascii "/* Extern functions of Hilite Handler */\12\0"
 5813      78746572 
 5813      6E206675 
 5813      6E637469 
 5813      6F6E7320 
 5814              	LC202:
 5815 4a4a 65787465 		.ascii "extern void %s(void);\12\0"
 5815      726E2076 
 5815      6F696420 
 5815      25732876 
 5815      6F696429 
 5816 4a61 90909090 		.align 32
 5816      90909090 
 5816      90909090 
 5816      90909090 
 5816      90909090 
 5817              	LC203:
 5818 4a80 0A0A2F2A 		.ascii "\12\12/* Extern functions of Hint Handler */\12\0"
 5818      20457874 
 5818      65726E20 
 5818      66756E63 
 5818      74696F6E 
 5819              	LC204:
 5820 4aaa 65787465 		.ascii "extern void %s(U16);\12\0"
 5820      726E2076 
 5820      6F696420 
 5820      25732855 
 5820      3136293B 
GAS LISTING d:/github/AIOT_WORKSHOP/AIoT_MT2503AVE_SDK/11CW1418SP4_03_CORETEK03AE_11C_V1_GPRS_MMI/plutommi/Customer/ResGenerator/gcctmp/ccmAfaaa.s 			page 110


 5821              		.align 32
 5822              	LC205:
 5823 4ac0 0A636F6E 		.ascii "\12const mmi_frm_hilite_hdlr_struct mmi_frm_const_hilite_hdlr_table[] = {\12\0"
 5823      7374206D 
 5823      6D695F66 
 5823      726D5F68 
 5823      696C6974 
 5824              	LC206:
 5825 4b09 20202020 		.ascii "    {%s, %s},\12\0"
 5825      7B25732C 
 5825      2025737D 
 5825      2C0A00
 5826 4b18 908DB426 		.align 32
 5826      00000000 
 5827              	LC207:
 5828 4b20 0A636F6E 		.ascii "\12const mmi_frm_hilite_hdlr_struct mmi_frm_const_hilite_hdlr_table[1] = {{0, NULL}};\12\0
 5828      7374206D 
 5828      6D695F66 
 5828      726D5F68 
 5828      696C6974 
 5829 4b75 8D742600 		.align 32
 5829      8DBC2700 
 5829      000000
 5830              	LC208:
 5831 4b80 0A636F6E 		.ascii "\12const mmi_frm_hint_hdlr_struct mmi_frm_const_hint_hdlr_table[] = {\12\0"
 5831      7374206D 
 5831      6D695F66 
 5831      726D5F68 
 5831      696E745F 
 5832 4bc5 90909090 		.align 32
 5832      90909090 
 5832      90909090 
 5832      90909090 
 5832      90909090 
 5833              	LC209:
 5834 4be0 0A636F6E 		.ascii "\12const mmi_frm_hint_hdlr_struct mmi_frm_const_hint_hdlr_table[1] = {{0, NULL}};\12\0"
 5834      7374206D 
 5834      6D695F66 
 5834      726D5F68 
 5834      696E745F 
 5835 4c31 EB0D9090 		.align 32
 5835      90909090 
 5835      90909090 
 5835      909090
 5836              	LC210:
 5837 4c40 0A23656E 		.ascii "\12#endif /* _MENUHANDLER_H */ \12\0"
 5837      64696620 
 5837      2F2A205F 
 5837      4D454E55 
 5837      48414E44 
 5838 4c5f 90       		.align 2
 5842              	__Z16GenerateMenuFilet:
2034:mtk_resgenerator.cpp **** 
2035:mtk_resgenerator.cpp **** 
2036:mtk_resgenerator.cpp **** 
2037:mtk_resgenerator.cpp **** /*****************************************************************************
2038:mtk_resgenerator.cpp **** * FUNCTION
GAS LISTING d:/github/AIOT_WORKSHOP/AIoT_MT2503AVE_SDK/11CW1418SP4_03_CORETEK03AE_11C_V1_GPRS_MMI/plutommi/Customer/ResGenerator/gcctmp/ccmAfaaa.s 			page 111


2039:mtk_resgenerator.cpp **** *  GenerateMenuFile
2040:mtk_resgenerator.cpp **** * DESCRIPTION
2041:mtk_resgenerator.cpp **** *  generate menu resource file
2042:mtk_resgenerator.cpp **** * PARAMETERS
2043:mtk_resgenerator.cpp **** *  nSize       [IN]    size
2044:mtk_resgenerator.cpp **** * RETURNS
2045:mtk_resgenerator.cpp **** *  int
2046:mtk_resgenerator.cpp **** *****************************************************************************/
2047:mtk_resgenerator.cpp **** static int GenerateMenuFile(U16 nSize)
2048:mtk_resgenerator.cpp **** {
 5844              	LM292:
 5845 4c60 55       		pushl	%ebp
 5846 4c61 89E5     		movl	%esp, %ebp
 5847 4c63 53       		pushl	%ebx
 5848 4c64 81ECD402 		subl	$724, %esp
 5848      0000
 5849 4c6a 8B4508   		movl	8(%ebp), %eax
 5850 4c6d 668945F6 		movw	%ax, -10(%ebp)
2049:mtk_resgenerator.cpp ****     /*----------------------------------------------------------------*/
2050:mtk_resgenerator.cpp ****     /* Local Variables                                                */
2051:mtk_resgenerator.cpp ****     /*----------------------------------------------------------------*/
2052:mtk_resgenerator.cpp ****     FILE* pFile;
2053:mtk_resgenerator.cpp ****     CUSTOM_MENU* pCustMenu = (CUSTOM_MENU*)nCustMenus;
 5852              	LM293:
 5853              	LBB39:
 5854 4c71 C745EC00 		movl	$_nCustMenus, -20(%ebp)
 5854      000000
2054:mtk_resgenerator.cpp ****     S8 nItemData[100];      /* Assumed ..*/
2055:mtk_resgenerator.cpp ****     S8 MenuItemString[500]; /* Assumed ..*/
2056:mtk_resgenerator.cpp ****     int i,j;
2057:mtk_resgenerator.cpp ****     int start = 0, index = 0, num_map_search = 0;
 5856              	LM294:
 5857 4c78 C7856CFD 		movl	$0, -660(%ebp)
 5857      FFFF0000 
 5857      0000
 5858 4c82 C78568FD 		movl	$0, -664(%ebp)
 5858      FFFF0000 
 5858      0000
 5859 4c8c C78564FD 		movl	$0, -668(%ebp)
 5859      FFFF0000 
 5859      0000
2058:mtk_resgenerator.cpp ****     int min_id = 0, max_id = 0;
 5861              	LM295:
 5862 4c96 C78560FD 		movl	$0, -672(%ebp)
 5862      FFFF0000 
 5862      0000
 5863 4ca0 C7855CFD 		movl	$0, -676(%ebp)
 5863      FFFF0000 
 5863      0000
2059:mtk_resgenerator.cpp **** 
2060:mtk_resgenerator.cpp ****     /*----------------------------------------------------------------*/
2061:mtk_resgenerator.cpp ****     /* Code Body                                                      */
2062:mtk_resgenerator.cpp ****     /*----------------------------------------------------------------*/
2063:mtk_resgenerator.cpp ****     RESGEN_LOG_V("GenerateMenuFile(): nSize = %d",nSize);
 5865              	LM296:
 5866 4caa 0FB745F6 		movzwl	-10(%ebp), %eax
 5867 4cae 8944240C 		movl	%eax, 12(%esp)
GAS LISTING d:/github/AIOT_WORKSHOP/AIoT_MT2503AVE_SDK/11CW1418SP4_03_CORETEK03AE_11C_V1_GPRS_MMI/plutommi/Customer/ResGenerator/gcctmp/ccmAfaaa.s 			page 112


 5868 4cb2 C7442408 		movl	$LC168, 8(%esp)
 5868      60360000 
 5869 4cba C7442404 		movl	$LC1, 4(%esp)
 5869      3E000000 
 5870 4cc2 C7042401 		movl	$1, (%esp)
 5870      000000
 5871 4cc9 E8000000 		call	_reslog_adaptor_log
 5871      00
2064:mtk_resgenerator.cpp **** 
2065:mtk_resgenerator.cpp ****     if(pFile = fopen(MENU_DATA_FILENAME, "w"))
 5873              	LM297:
 5874 4cce C7442404 		movl	$LC2, 4(%esp)
 5874      4F000000 
 5875 4cd6 C7042480 		movl	$LC169, (%esp)
 5875      360000
 5876 4cdd E8000000 		call	_fopen
 5876      00
 5877 4ce2 8945F0   		movl	%eax, -16(%ebp)
 5878 4ce5 837DF000 		cmpl	$0, -16(%ebp)
 5879 4ce9 0F849D05 		je	L131
 5879      0000
2066:mtk_resgenerator.cpp ****     {
2067:mtk_resgenerator.cpp ****         fprintf(pFile, "/**\n *	Copyright Notice\n *	?2002 - 2003, Pixtel Communications, Inc., 148
 5881              	LM298:
 5882 4cef C7442404 		movl	$LC4, 4(%esp)
 5882      A0000000 
 5883 4cf7 8B45F0   		movl	-16(%ebp), %eax
 5884 4cfa 890424   		movl	%eax, (%esp)
 5885 4cfd E8000000 		call	_fprintf
 5885      00
2068:mtk_resgenerator.cpp ****         fprintf(pFile, "\n/************************************************************** \n FILENA
 5887              	LM299:
 5888 4d02 C7442404 		movl	$LC170, 4(%esp)
 5888      C0360000 
 5889 4d0a 8B45F0   		movl	-16(%ebp), %eax
 5890 4d0d 890424   		movl	%eax, (%esp)
 5891 4d10 E8000000 		call	_fprintf
 5891      00
2069:mtk_resgenerator.cpp **** 
2070:mtk_resgenerator.cpp ****         /* put the headers needed here */
2071:mtk_resgenerator.cpp ****         fprintf(pFile, "#include \"CustMenuRes.h\"\n\n\n");
 5893              	LM300:
 5894 4d15 C7442404 		movl	$LC171, 4(%esp)
 5894      BC370000 
 5895 4d1d 8B45F0   		movl	-16(%ebp), %eax
 5896 4d20 890424   		movl	%eax, (%esp)
 5897 4d23 E8000000 		call	_fprintf
 5897      00
2072:mtk_resgenerator.cpp ****         fprintf(pFile, "unsigned short  CurrMaxMenuItemIndex=%d;\n", nSize);
 5899              	LM301:
 5900 4d28 0FB745F6 		movzwl	-10(%ebp), %eax
 5901 4d2c 89442408 		movl	%eax, 8(%esp)
 5902 4d30 C7442404 		movl	$LC172, 4(%esp)
 5902      E0370000 
 5903 4d38 8B45F0   		movl	-16(%ebp), %eax
 5904 4d3b 890424   		movl	%eax, (%esp)
 5905 4d3e E8000000 		call	_fprintf
GAS LISTING d:/github/AIOT_WORKSHOP/AIoT_MT2503AVE_SDK/11CW1418SP4_03_CORETEK03AE_11C_V1_GPRS_MMI/plutommi/Customer/ResGenerator/gcctmp/ccmAfaaa.s 			page 113


 5905      00
2073:mtk_resgenerator.cpp **** 
2074:mtk_resgenerator.cpp ****         /* writing the string array inside the file. */
2075:mtk_resgenerator.cpp ****         if(nSize)
 5907              	LM302:
 5908 4d43 66837DF6 		cmpw	$0, -10(%ebp)
 5908      00
 5909 4d48 0F841E05 		je	L132
 5909      0000
2076:mtk_resgenerator.cpp ****         {
2077:mtk_resgenerator.cpp ****             for(i = 0; i < nSize; i++)
 5911              	LM303:
 5912 4d4e C78574FD 		movl	$0, -652(%ebp)
 5912      FFFF0000 
 5912      0000
 5913              	L133:
 5914 4d58 0FB745F6 		movzwl	-10(%ebp), %eax
 5915 4d5c 398574FD 		cmpl	%eax, -652(%ebp)
 5915      FFFF
 5916 4d62 7C05     		jl	L136
 5917 4d64 E9380100 		jmp	L134
 5917      00
 5918              	L136:
2078:mtk_resgenerator.cpp ****             {
2079:mtk_resgenerator.cpp ****                 if(pCustMenu[i].nNumofMenuItem)
 5920              	LM304:
 5921 4d69 8B8574FD 		movl	-652(%ebp), %eax
 5921      FFFF
 5922 4d6f 89C2     		movl	%eax, %edx
 5923 4d71 C1E204   		sall	$4, %edx
 5924 4d74 8B45EC   		movl	-20(%ebp), %eax
 5925 4d77 66837C10 		cmpw	$0, 2(%eax,%edx)
 5925      0200
 5926 4d7d 0F841101 		je	L135
 5926      0000
2080:mtk_resgenerator.cpp ****                 {
2081:mtk_resgenerator.cpp ****                     sprintf(MenuItemString, "const U16 nOrderMenuItem_%d[]={", i);
 5928              	LM305:
 5929 4d83 8B8574FD 		movl	-652(%ebp), %eax
 5929      FFFF
 5930 4d89 89442408 		movl	%eax, 8(%esp)
 5931 4d8d C7442404 		movl	$LC173, 4(%esp)
 5931      20380000 
 5932 4d95 8D8578FD 		leal	-648(%ebp), %eax
 5932      FFFF
 5933 4d9b 890424   		movl	%eax, (%esp)
 5934 4d9e E8000000 		call	_sprintf
 5934      00
2082:mtk_resgenerator.cpp ****                     for(j = 0; j < (pCustMenu[i].nNumofMenuItem - 1); j++)
 5936              	LM306:
 5937 4da3 C78570FD 		movl	$0, -656(%ebp)
 5937      FFFF0000 
 5937      0000
 5938              	L138:
 5939 4dad 8B8574FD 		movl	-652(%ebp), %eax
 5939      FFFF
 5940 4db3 89C2     		movl	%eax, %edx
GAS LISTING d:/github/AIOT_WORKSHOP/AIoT_MT2503AVE_SDK/11CW1418SP4_03_CORETEK03AE_11C_V1_GPRS_MMI/plutommi/Customer/ResGenerator/gcctmp/ccmAfaaa.s 			page 114


 5941 4db5 C1E204   		sall	$4, %edx
 5942 4db8 8B45EC   		movl	-20(%ebp), %eax
 5943 4dbb 0FB74410 		movzwl	2(%eax,%edx), %eax
 5943      02
 5944 4dc0 48       		decl	%eax
 5945 4dc1 398570FD 		cmpl	%eax, -656(%ebp)
 5945      FFFF
 5946 4dc7 7C02     		jl	L141
 5947 4dc9 EB5B     		jmp	L139
 5948              	L141:
2083:mtk_resgenerator.cpp ****                     {
2084:mtk_resgenerator.cpp ****                         sprintf(nItemData, "%d,", pCustMenu[i].nOrderMenuItemId[j]);
 5950              	LM307:
 5951 4dcb 8B8574FD 		movl	-652(%ebp), %eax
 5951      FFFF
 5952 4dd1 89C3     		movl	%eax, %ebx
 5953 4dd3 C1E304   		sall	$4, %ebx
 5954 4dd6 8B4DEC   		movl	-20(%ebp), %ecx
 5955 4dd9 8B8570FD 		movl	-656(%ebp), %eax
 5955      FFFF
 5956 4ddf 8D1400   		leal	(%eax,%eax), %edx
 5957 4de2 8B44190C 		movl	12(%ecx,%ebx), %eax
 5958 4de6 0FB70410 		movzwl	(%eax,%edx), %eax
 5959 4dea 89442408 		movl	%eax, 8(%esp)
 5960 4dee C7442404 		movl	$LC174, 4(%esp)
 5960      40380000 
 5961 4df6 8D8578FF 		leal	-136(%ebp), %eax
 5961      FFFF
 5962 4dfc 890424   		movl	%eax, (%esp)
 5963 4dff E8000000 		call	_sprintf
 5963      00
2085:mtk_resgenerator.cpp ****                         strcat(MenuItemString, nItemData);
 5965              	LM308:
 5966 4e04 8D8578FF 		leal	-136(%ebp), %eax
 5966      FFFF
 5967 4e0a 89442404 		movl	%eax, 4(%esp)
 5968 4e0e 8D8578FD 		leal	-648(%ebp), %eax
 5968      FFFF
 5969 4e14 890424   		movl	%eax, (%esp)
 5970 4e17 E8000000 		call	_strcat
 5970      00
 5972              	LM309:
 5973 4e1c 8D8570FD 		leal	-656(%ebp), %eax
 5973      FFFF
 5974 4e22 FF00     		incl	(%eax)
 5975 4e24 EB87     		jmp	L138
 5976              	L139:
2086:mtk_resgenerator.cpp ****                     }
2087:mtk_resgenerator.cpp ****                     sprintf(nItemData, "%d};", pCustMenu[i].nOrderMenuItemId[j]);
 5978              	LM310:
 5979 4e26 8B8574FD 		movl	-652(%ebp), %eax
 5979      FFFF
 5980 4e2c 89C3     		movl	%eax, %ebx
 5981 4e2e C1E304   		sall	$4, %ebx
 5982 4e31 8B4DEC   		movl	-20(%ebp), %ecx
 5983 4e34 8B8570FD 		movl	-656(%ebp), %eax
 5983      FFFF
GAS LISTING d:/github/AIOT_WORKSHOP/AIoT_MT2503AVE_SDK/11CW1418SP4_03_CORETEK03AE_11C_V1_GPRS_MMI/plutommi/Customer/ResGenerator/gcctmp/ccmAfaaa.s 			page 115


 5984 4e3a 8D1400   		leal	(%eax,%eax), %edx
 5985 4e3d 8B44190C 		movl	12(%ecx,%ebx), %eax
 5986 4e41 0FB70410 		movzwl	(%eax,%edx), %eax
 5987 4e45 89442408 		movl	%eax, 8(%esp)
 5988 4e49 C7442404 		movl	$LC175, 4(%esp)
 5988      44380000 
 5989 4e51 8D8578FF 		leal	-136(%ebp), %eax
 5989      FFFF
 5990 4e57 890424   		movl	%eax, (%esp)
 5991 4e5a E8000000 		call	_sprintf
 5991      00
2088:mtk_resgenerator.cpp ****                     strcat(MenuItemString, nItemData);
 5993              	LM311:
 5994 4e5f 8D8578FF 		leal	-136(%ebp), %eax
 5994      FFFF
 5995 4e65 89442404 		movl	%eax, 4(%esp)
 5996 4e69 8D8578FD 		leal	-648(%ebp), %eax
 5996      FFFF
 5997 4e6f 890424   		movl	%eax, (%esp)
 5998 4e72 E8000000 		call	_strcat
 5998      00
2089:mtk_resgenerator.cpp ****                     fprintf(pFile, "%s\n", MenuItemString);
 6000              	LM312:
 6001 4e77 8D8578FD 		leal	-648(%ebp), %eax
 6001      FFFF
 6002 4e7d 89442408 		movl	%eax, 8(%esp)
 6003 4e81 C7442404 		movl	$LC176, 4(%esp)
 6003      49380000 
 6004 4e89 8B45F0   		movl	-16(%ebp), %eax
 6005 4e8c 890424   		movl	%eax, (%esp)
 6006 4e8f E8000000 		call	_fprintf
 6006      00
 6008              	LM313:
 6009              	L135:
 6010 4e94 8D8574FD 		leal	-652(%ebp), %eax
 6010      FFFF
 6011 4e9a FF00     		incl	(%eax)
 6012 4e9c E9B7FEFF 		jmp	L133
 6012      FF
 6013              	L134:
2090:mtk_resgenerator.cpp ****                 }
2091:mtk_resgenerator.cpp **** 
2092:mtk_resgenerator.cpp ****             }
2093:mtk_resgenerator.cpp ****             fprintf(pFile, "\n const CUSTOM_MENU		mtk_nCustMenus[]={\n");
 6015              	LM314:
 6016 4ea1 C7442404 		movl	$LC177, 4(%esp)
 6016      60380000 
 6017 4ea9 8B45F0   		movl	-16(%ebp), %eax
 6018 4eac 890424   		movl	%eax, (%esp)
 6019 4eaf E8000000 		call	_fprintf
 6019      00
2094:mtk_resgenerator.cpp ****             /* write a dummy entry at index 0 */
2095:mtk_resgenerator.cpp ****             fprintf(pFile, "{0, 0, 0, 0, 0, 0, (U16 *)0},\n");
 6021              	LM315:
 6022 4eb4 C7442404 		movl	$LC178, 4(%esp)
 6022      A0380000 
 6023 4ebc 8B45F0   		movl	-16(%ebp), %eax
GAS LISTING d:/github/AIOT_WORKSHOP/AIoT_MT2503AVE_SDK/11CW1418SP4_03_CORETEK03AE_11C_V1_GPRS_MMI/plutommi/Customer/ResGenerator/gcctmp/ccmAfaaa.s 			page 116


 6024 4ebf 890424   		movl	%eax, (%esp)
 6025 4ec2 E8000000 		call	_fprintf
 6025      00
2096:mtk_resgenerator.cpp ****             for(i = 0; i < nSize; i++)
 6027              	LM316:
 6028 4ec7 C78574FD 		movl	$0, -652(%ebp)
 6028      FFFF0000 
 6028      0000
 6029              	L142:
 6030 4ed1 0FB745F6 		movzwl	-10(%ebp), %eax
 6031 4ed5 398574FD 		cmpl	%eax, -652(%ebp)
 6031      FFFF
 6032 4edb 7C05     		jl	L145
 6033 4edd E9AA0100 		jmp	L143
 6033      00
 6034              	L145:
2097:mtk_resgenerator.cpp ****             {
2098:mtk_resgenerator.cpp ****                 if(pCustMenu[i].nParentId < MAX_MENU_ITEMS)
 6036              	LM317:
 6037 4ee2 8B8574FD 		movl	-652(%ebp), %eax
 6037      FFFF
 6038 4ee8 89C2     		movl	%eax, %edx
 6039 4eea C1E204   		sall	$4, %edx
 6040 4eed 8B45EC   		movl	-20(%ebp), %eax
 6041 4ef0 66833C10 		cmpw	$-1, (%eax,%edx)
 6041      FF
 6042 4ef5 0F848401 		je	L144
 6042      0000
2099:mtk_resgenerator.cpp ****                 {
2100:mtk_resgenerator.cpp ****                     if(pCustMenu[i].nNumofMenuItem)
 6044              	LM318:
 6045 4efb 8B8574FD 		movl	-652(%ebp), %eax
 6045      FFFF
 6046 4f01 89C2     		movl	%eax, %edx
 6047 4f03 C1E204   		sall	$4, %edx
 6048 4f06 8B45EC   		movl	-20(%ebp), %eax
 6049 4f09 66837C10 		cmpw	$0, 2(%eax,%edx)
 6049      0200
 6050 4f0f 0F84AE00 		je	L147
 6050      0000
2101:mtk_resgenerator.cpp ****                         sprintf(MenuItemString, "{%d,%d,%d,%d,%d,%d,(U16 *)nOrderMenuItem_%d},",  p
 6052              	LM319:
 6053 4f15 8B8574FD 		movl	-652(%ebp), %eax
 6053      FFFF
 6054 4f1b 89442420 		movl	%eax, 32(%esp)
 6055 4f1f 8B8574FD 		movl	-652(%ebp), %eax
 6055      FFFF
 6056 4f25 89C2     		movl	%eax, %edx
 6057 4f27 C1E204   		sall	$4, %edx
 6058 4f2a 8B45EC   		movl	-20(%ebp), %eax
 6059 4f2d 0FB74410 		movzwl	8(%eax,%edx), %eax
 6059      08
 6060 4f32 8944241C 		movl	%eax, 28(%esp)
 6061 4f36 8B8574FD 		movl	-652(%ebp), %eax
 6061      FFFF
 6062 4f3c 89C2     		movl	%eax, %edx
 6063 4f3e C1E204   		sall	$4, %edx
GAS LISTING d:/github/AIOT_WORKSHOP/AIoT_MT2503AVE_SDK/11CW1418SP4_03_CORETEK03AE_11C_V1_GPRS_MMI/plutommi/Customer/ResGenerator/gcctmp/ccmAfaaa.s 			page 117


 6064 4f41 8B45EC   		movl	-20(%ebp), %eax
 6065 4f44 0FB74410 		movzwl	6(%eax,%edx), %eax
 6065      06
 6066 4f49 89442418 		movl	%eax, 24(%esp)
 6067 4f4d 8B8574FD 		movl	-652(%ebp), %eax
 6067      FFFF
 6068 4f53 89C2     		movl	%eax, %edx
 6069 4f55 C1E204   		sall	$4, %edx
 6070 4f58 8B45EC   		movl	-20(%ebp), %eax
 6071 4f5b 0FB64410 		movzbl	5(%eax,%edx), %eax
 6071      05
 6072 4f60 89442414 		movl	%eax, 20(%esp)
 6073 4f64 8B8574FD 		movl	-652(%ebp), %eax
 6073      FFFF
 6074 4f6a 89C2     		movl	%eax, %edx
 6075 4f6c C1E204   		sall	$4, %edx
 6076 4f6f 8B45EC   		movl	-20(%ebp), %eax
 6077 4f72 0FB64410 		movzbl	4(%eax,%edx), %eax
 6077      04
 6078 4f77 89442410 		movl	%eax, 16(%esp)
 6079 4f7b 8B8574FD 		movl	-652(%ebp), %eax
 6079      FFFF
 6080 4f81 89C2     		movl	%eax, %edx
 6081 4f83 C1E204   		sall	$4, %edx
 6082 4f86 8B45EC   		movl	-20(%ebp), %eax
 6083 4f89 0FB74410 		movzwl	2(%eax,%edx), %eax
 6083      02
 6084 4f8e 8944240C 		movl	%eax, 12(%esp)
 6085 4f92 8B8574FD 		movl	-652(%ebp), %eax
 6085      FFFF
 6086 4f98 89C2     		movl	%eax, %edx
 6087 4f9a C1E204   		sall	$4, %edx
 6088 4f9d 8B45EC   		movl	-20(%ebp), %eax
 6089 4fa0 0FB70410 		movzwl	(%eax,%edx), %eax
 6090 4fa4 89442408 		movl	%eax, 8(%esp)
 6091 4fa8 C7442404 		movl	$LC179, 4(%esp)
 6091      C0380000 
 6092 4fb0 8D8578FD 		leal	-648(%ebp), %eax
 6092      FFFF
 6093 4fb6 890424   		movl	%eax, (%esp)
 6094 4fb9 E8000000 		call	_sprintf
 6094      00
 6095 4fbe E99F0000 		jmp	L148
 6095      00
 6096              	L147:
2102:mtk_resgenerator.cpp ****                     else
2103:mtk_resgenerator.cpp ****                         sprintf(MenuItemString, "{%d,%d,%d,%d,%d,%d,(U16 *)0},", pCustMenu[i].nPare
 6098              	LM320:
 6099 4fc3 8B8574FD 		movl	-652(%ebp), %eax
 6099      FFFF
 6100 4fc9 89C2     		movl	%eax, %edx
 6101 4fcb C1E204   		sall	$4, %edx
 6102 4fce 8B45EC   		movl	-20(%ebp), %eax
 6103 4fd1 0FB74410 		movzwl	8(%eax,%edx), %eax
 6103      08
 6104 4fd6 8944241C 		movl	%eax, 28(%esp)
 6105 4fda 8B8574FD 		movl	-652(%ebp), %eax
GAS LISTING d:/github/AIOT_WORKSHOP/AIoT_MT2503AVE_SDK/11CW1418SP4_03_CORETEK03AE_11C_V1_GPRS_MMI/plutommi/Customer/ResGenerator/gcctmp/ccmAfaaa.s 			page 118


 6105      FFFF
 6106 4fe0 89C2     		movl	%eax, %edx
 6107 4fe2 C1E204   		sall	$4, %edx
 6108 4fe5 8B45EC   		movl	-20(%ebp), %eax
 6109 4fe8 0FB74410 		movzwl	6(%eax,%edx), %eax
 6109      06
 6110 4fed 89442418 		movl	%eax, 24(%esp)
 6111 4ff1 8B8574FD 		movl	-652(%ebp), %eax
 6111      FFFF
 6112 4ff7 89C2     		movl	%eax, %edx
 6113 4ff9 C1E204   		sall	$4, %edx
 6114 4ffc 8B45EC   		movl	-20(%ebp), %eax
 6115 4fff 0FB64410 		movzbl	5(%eax,%edx), %eax
 6115      05
 6116 5004 89442414 		movl	%eax, 20(%esp)
 6117 5008 8B8574FD 		movl	-652(%ebp), %eax
 6117      FFFF
 6118 500e 89C2     		movl	%eax, %edx
 6119 5010 C1E204   		sall	$4, %edx
 6120 5013 8B45EC   		movl	-20(%ebp), %eax
 6121 5016 0FB64410 		movzbl	4(%eax,%edx), %eax
 6121      04
 6122 501b 89442410 		movl	%eax, 16(%esp)
 6123 501f 8B8574FD 		movl	-652(%ebp), %eax
 6123      FFFF
 6124 5025 89C2     		movl	%eax, %edx
 6125 5027 C1E204   		sall	$4, %edx
 6126 502a 8B45EC   		movl	-20(%ebp), %eax
 6127 502d 0FB74410 		movzwl	2(%eax,%edx), %eax
 6127      02
 6128 5032 8944240C 		movl	%eax, 12(%esp)
 6129 5036 8B8574FD 		movl	-652(%ebp), %eax
 6129      FFFF
 6130 503c 89C2     		movl	%eax, %edx
 6131 503e C1E204   		sall	$4, %edx
 6132 5041 8B45EC   		movl	-20(%ebp), %eax
 6133 5044 0FB70410 		movzwl	(%eax,%edx), %eax
 6134 5048 89442408 		movl	%eax, 8(%esp)
 6135 504c C7442404 		movl	$LC180, 4(%esp)
 6135      EE380000 
 6136 5054 8D8578FD 		leal	-648(%ebp), %eax
 6136      FFFF
 6137 505a 890424   		movl	%eax, (%esp)
 6138 505d E8000000 		call	_sprintf
 6138      00
 6139              	L148:
2104:mtk_resgenerator.cpp ****                     fprintf(pFile, "%s\n", MenuItemString);
 6141              	LM321:
 6142 5062 8D8578FD 		leal	-648(%ebp), %eax
 6142      FFFF
 6143 5068 89442408 		movl	%eax, 8(%esp)
 6144 506c C7442404 		movl	$LC176, 4(%esp)
 6144      49380000 
 6145 5074 8B45F0   		movl	-16(%ebp), %eax
 6146 5077 890424   		movl	%eax, (%esp)
 6147 507a E8000000 		call	_fprintf
 6147      00
GAS LISTING d:/github/AIOT_WORKSHOP/AIoT_MT2503AVE_SDK/11CW1418SP4_03_CORETEK03AE_11C_V1_GPRS_MMI/plutommi/Customer/ResGenerator/gcctmp/ccmAfaaa.s 			page 119


 6149              	LM322:
 6150              	L144:
 6151 507f 8D8574FD 		leal	-652(%ebp), %eax
 6151      FFFF
 6152 5085 FF00     		incl	(%eax)
 6153 5087 E945FEFF 		jmp	L142
 6153      FF
 6154              	L143:
2105:mtk_resgenerator.cpp ****                 }
2106:mtk_resgenerator.cpp ****             }
2107:mtk_resgenerator.cpp ****             fprintf(pFile, "};\n");
 6156              	LM323:
 6157 508c C7442404 		movl	$LC17, 4(%esp)
 6157      02040000 
 6158 5094 8B45F0   		movl	-16(%ebp), %eax
 6159 5097 890424   		movl	%eax, (%esp)
 6160 509a E8000000 		call	_fprintf
 6160      00
2108:mtk_resgenerator.cpp **** 
2109:mtk_resgenerator.cpp ****             fprintf(pFile, "\n\n#ifdef __MULTIPLE_BINARY_FILES__\n");
 6162              	LM324:
 6163 509f C7442404 		movl	$LC181, 4(%esp)
 6163      20390000 
 6164 50a7 8B45F0   		movl	-16(%ebp), %eax
 6165 50aa 890424   		movl	%eax, (%esp)
 6166 50ad E8000000 		call	_fprintf
 6166      00
2110:mtk_resgenerator.cpp ****             fprintf(pFile, "    /* we give more 50% ram for multiple bin, if Menus more than this, 
 6168              	LM325:
 6169 50b2 C7442404 		movl	$LC182, 4(%esp)
 6169      60390000 
 6170 50ba 8B45F0   		movl	-16(%ebp), %eax
 6171 50bd 890424   		movl	%eax, (%esp)
 6172 50c0 E8000000 		call	_fprintf
 6172      00
2111:mtk_resgenerator.cpp ****             fprintf(pFile, "    #define AV_TOTAL_MENU_ITEM ((sizeof(mtk_nCustMenus)/sizeof(CUSTOM_M
 6174              	LM326:
 6175 50c5 C7442404 		movl	$LC183, 4(%esp)
 6175      C0390000 
 6176 50cd 8B45F0   		movl	-16(%ebp), %eax
 6177 50d0 890424   		movl	%eax, (%esp)
 6178 50d3 E8000000 		call	_fprintf
 6178      00
2112:mtk_resgenerator.cpp ****             fprintf(pFile, "#else\n");
 6180              	LM327:
 6181 50d8 C7442404 		movl	$LC184, 4(%esp)
 6181      133A0000 
 6182 50e0 8B45F0   		movl	-16(%ebp), %eax
 6183 50e3 890424   		movl	%eax, (%esp)
 6184 50e6 E8000000 		call	_fprintf
 6184      00
2113:mtk_resgenerator.cpp ****             fprintf(pFile, "    #define AV_TOTAL_MENU_ITEM (sizeof(mtk_nCustMenus)/sizeof(CUSTOM_ME
 6186              	LM328:
 6187 50eb C7442404 		movl	$LC185, 4(%esp)
 6187      203A0000 
 6188 50f3 8B45F0   		movl	-16(%ebp), %eax
 6189 50f6 890424   		movl	%eax, (%esp)
GAS LISTING d:/github/AIOT_WORKSHOP/AIoT_MT2503AVE_SDK/11CW1418SP4_03_CORETEK03AE_11C_V1_GPRS_MMI/plutommi/Customer/ResGenerator/gcctmp/ccmAfaaa.s 			page 120


 6190 50f9 E8000000 		call	_fprintf
 6190      00
2114:mtk_resgenerator.cpp ****             fprintf(pFile, "#endif\n\n");
 6192              	LM329:
 6193 50fe C7442404 		movl	$LC186, 4(%esp)
 6193      6D3A0000 
 6194 5106 8B45F0   		movl	-16(%ebp), %eax
 6195 5109 890424   		movl	%eax, (%esp)
 6196 510c E8000000 		call	_fprintf
 6196      00
2115:mtk_resgenerator.cpp ****             fprintf(pFile, "const S32 mtk_gAv_total_menuitem = ((U32)AV_TOTAL_MENU_ITEM);\n");
 6198              	LM330:
 6199 5111 C7442404 		movl	$LC187, 4(%esp)
 6199      803A0000 
 6200 5119 8B45F0   		movl	-16(%ebp), %eax
 6201 511c 890424   		movl	%eax, (%esp)
 6202 511f E8000000 		call	_fprintf
 6202      00
2116:mtk_resgenerator.cpp ****             fprintf(pFile, "/* Hide menu item mask */\nU8 MenuItemMask[(((U32)AV_TOTAL_MENU_ITEM) /
 6204              	LM331:
 6205 5124 C7442404 		movl	$LC188, 4(%esp)
 6205      C03A0000 
 6206 512c 8B45F0   		movl	-16(%ebp), %eax
 6207 512f 890424   		movl	%eax, (%esp)
 6208 5132 E8000000 		call	_fprintf
 6208      00
2117:mtk_resgenerator.cpp ****             fprintf(pFile, "/* Disable (dimmed) menu item mask */\nU8 g_menuitem_disable_mask[(((U3
 6210              	LM332:
 6211 5137 C7442404 		movl	$LC189, 4(%esp)
 6211      203B0000 
 6212 513f 8B45F0   		movl	-16(%ebp), %eax
 6213 5142 890424   		movl	%eax, (%esp)
 6214 5145 E8000000 		call	_fprintf
 6214      00
2118:mtk_resgenerator.cpp **** 
2119:mtk_resgenerator.cpp ****             fprintf(pFile, "\n const CUSTOM_MENU_SEARCH_MAP		CustMenuSearchMap[]={\n");
 6216              	LM333:
 6217 514a C7442404 		movl	$LC190, 4(%esp)
 6217      A03B0000 
 6218 5152 8B45F0   		movl	-16(%ebp), %eax
 6219 5155 890424   		movl	%eax, (%esp)
 6220 5158 E8000000 		call	_fprintf
 6220      00
2120:mtk_resgenerator.cpp ****             for(i = 0; i < nSize; i++)
 6222              	LM334:
 6223 515d C78574FD 		movl	$0, -652(%ebp)
 6223      FFFF0000 
 6223      0000
 6224              	L149:
 6225 5167 0FB745F6 		movzwl	-10(%ebp), %eax
 6226 516b 398574FD 		cmpl	%eax, -652(%ebp)
 6226      FFFF
 6227 5171 7C05     		jl	L152
 6228 5173 E9C20000 		jmp	L150
 6228      00
 6229              	L152:
2121:mtk_resgenerator.cpp ****             {
GAS LISTING d:/github/AIOT_WORKSHOP/AIoT_MT2503AVE_SDK/11CW1418SP4_03_CORETEK03AE_11C_V1_GPRS_MMI/plutommi/Customer/ResGenerator/gcctmp/ccmAfaaa.s 			page 121


2122:mtk_resgenerator.cpp ****                 if(pCustMenu[i].nParentId < MAX_MENU_ITEMS)
 6231              	LM335:
 6232 5178 8B8574FD 		movl	-652(%ebp), %eax
 6232      FFFF
 6233 517e 89C2     		movl	%eax, %edx
 6234 5180 C1E204   		sall	$4, %edx
 6235 5183 8B45EC   		movl	-20(%ebp), %eax
 6236 5186 66833C10 		cmpw	$-1, (%eax,%edx)
 6236      FF
 6237 518b 7438     		je	L153
2123:mtk_resgenerator.cpp ****                 {
2124:mtk_resgenerator.cpp ****                     if (!start)
 6239              	LM336:
 6240 518d 83BD6CFD 		cmpl	$0, -660(%ebp)
 6240      FFFF00
 6241 5194 7525     		jne	L154
2125:mtk_resgenerator.cpp ****                     {
2126:mtk_resgenerator.cpp ****                         min_id = max_id = i + 1;
 6243              	LM337:
 6244 5196 8B8574FD 		movl	-652(%ebp), %eax
 6244      FFFF
 6245 519c 40       		incl	%eax
 6246 519d 89855CFD 		movl	%eax, -676(%ebp)
 6246      FFFF
 6247 51a3 8B855CFD 		movl	-676(%ebp), %eax
 6247      FFFF
 6248 51a9 898560FD 		movl	%eax, -672(%ebp)
 6248      FFFF
2127:mtk_resgenerator.cpp ****                         start = 1;
 6250              	LM338:
 6251 51af C7856CFD 		movl	$1, -660(%ebp)
 6251      FFFF0100 
 6251      0000
 6252 51b9 EB72     		jmp	L151
 6253              	L154:
2128:mtk_resgenerator.cpp ****                     }
2129:mtk_resgenerator.cpp ****                     else
2130:mtk_resgenerator.cpp ****                     {
2131:mtk_resgenerator.cpp ****                         max_id++;
 6255              	LM339:
 6256 51bb 8D855CFD 		leal	-676(%ebp), %eax
 6256      FFFF
 6257 51c1 FF00     		incl	(%eax)
 6258 51c3 EB68     		jmp	L151
 6259              	L153:
2132:mtk_resgenerator.cpp ****                     }
2133:mtk_resgenerator.cpp ****                 }
2134:mtk_resgenerator.cpp ****                 else
2135:mtk_resgenerator.cpp ****                 {
2136:mtk_resgenerator.cpp ****                     if (start)
 6261              	LM340:
 6262 51c5 83BD6CFD 		cmpl	$0, -660(%ebp)
 6262      FFFF00
 6263 51cc 745F     		je	L151
2137:mtk_resgenerator.cpp ****                     {
2138:mtk_resgenerator.cpp ****                         fprintf(pFile, "\t{%d, %d, %d},\n", min_id, max_id, index + 1); /* index + 
 6265              	LM341:
GAS LISTING d:/github/AIOT_WORKSHOP/AIoT_MT2503AVE_SDK/11CW1418SP4_03_CORETEK03AE_11C_V1_GPRS_MMI/plutommi/Customer/ResGenerator/gcctmp/ccmAfaaa.s 			page 122


 6266 51ce 8B8568FD 		movl	-664(%ebp), %eax
 6266      FFFF
 6267 51d4 40       		incl	%eax
 6268 51d5 89442410 		movl	%eax, 16(%esp)
 6269 51d9 8B855CFD 		movl	-676(%ebp), %eax
 6269      FFFF
 6270 51df 8944240C 		movl	%eax, 12(%esp)
 6271 51e3 8B8560FD 		movl	-672(%ebp), %eax
 6271      FFFF
 6272 51e9 89442408 		movl	%eax, 8(%esp)
 6273 51ed C7442404 		movl	$LC191, 4(%esp)
 6273      D73B0000 
 6274 51f5 8B45F0   		movl	-16(%ebp), %eax
 6275 51f8 890424   		movl	%eax, (%esp)
 6276 51fb E8000000 		call	_fprintf
 6276      00
2139:mtk_resgenerator.cpp ****                         index += max_id - min_id + 1;
 6278              	LM342:
 6279 5200 8B9560FD 		movl	-672(%ebp), %edx
 6279      FFFF
 6280 5206 8B855CFD 		movl	-676(%ebp), %eax
 6280      FFFF
 6281 520c 29D0     		subl	%edx, %eax
 6282 520e 038568FD 		addl	-664(%ebp), %eax
 6282      FFFF
 6283 5214 40       		incl	%eax
 6284 5215 898568FD 		movl	%eax, -664(%ebp)
 6284      FFFF
2140:mtk_resgenerator.cpp ****                         num_map_search++;
 6286              	LM343:
 6287 521b 8D8564FD 		leal	-668(%ebp), %eax
 6287      FFFF
 6288 5221 FF00     		incl	(%eax)
2141:mtk_resgenerator.cpp ****                         start = 0;
 6290              	LM344:
 6291 5223 C7856CFD 		movl	$0, -660(%ebp)
 6291      FFFF0000 
 6291      0000
 6293              	LM345:
 6294              	L151:
 6295 522d 8D8574FD 		leal	-652(%ebp), %eax
 6295      FFFF
 6296 5233 FF00     		incl	(%eax)
 6297 5235 E92DFFFF 		jmp	L149
 6297      FF
 6298              	L150:
2142:mtk_resgenerator.cpp ****                     }
2143:mtk_resgenerator.cpp ****                 }
2144:mtk_resgenerator.cpp ****             }
2145:mtk_resgenerator.cpp **** 
2146:mtk_resgenerator.cpp ****             fprintf(pFile, "};\n");
 6300              	LM346:
 6301 523a C7442404 		movl	$LC17, 4(%esp)
 6301      02040000 
 6302 5242 8B45F0   		movl	-16(%ebp), %eax
 6303 5245 890424   		movl	%eax, (%esp)
 6304 5248 E8000000 		call	_fprintf
GAS LISTING d:/github/AIOT_WORKSHOP/AIoT_MT2503AVE_SDK/11CW1418SP4_03_CORETEK03AE_11C_V1_GPRS_MMI/plutommi/Customer/ResGenerator/gcctmp/ccmAfaaa.s 			page 123


 6304      00
2147:mtk_resgenerator.cpp ****             fprintf(pFile, "const CUSTOM_MENU_RES_ENTRY mtk_gMenuResEntry = {(CUSTOM_MENU*)mtk_nCus
 6306              	LM347:
 6307 524d 8B8564FD 		movl	-668(%ebp), %eax
 6307      FFFF
 6308 5253 89442408 		movl	%eax, 8(%esp)
 6309 5257 C7442404 		movl	$LC192, 4(%esp)
 6309      003C0000 
 6310 525f 8B45F0   		movl	-16(%ebp), %eax
 6311 5262 890424   		movl	%eax, (%esp)
 6312 5265 E8000000 		call	_fprintf
 6312      00
 6313 526a EB13     		jmp	L158
 6314              	L132:
2148:mtk_resgenerator.cpp ****         }
2149:mtk_resgenerator.cpp ****         else
2150:mtk_resgenerator.cpp ****         {
2151:mtk_resgenerator.cpp ****             fprintf(pFile, "const CUSTOM_MENU		nCustMenus[1];");
 6316              	LM348:
 6317 526c C7442404 		movl	$LC193, 4(%esp)
 6317      A03C0000 
 6318 5274 8B45F0   		movl	-16(%ebp), %eax
 6319 5277 890424   		movl	%eax, (%esp)
 6320 527a E8000000 		call	_fprintf
 6320      00
 6321              	L158:
2152:mtk_resgenerator.cpp ****         }
2153:mtk_resgenerator.cpp ****         fclose(pFile);
 6323              	LM349:
 6324 527f 8B45F0   		movl	-16(%ebp), %eax
 6325 5282 890424   		movl	%eax, (%esp)
 6326 5285 E8000000 		call	_fclose
 6326      00
 6327 528a EB0F     		jmp	L159
 6328              	L131:
2154:mtk_resgenerator.cpp ****     }
2155:mtk_resgenerator.cpp ****     else
2156:mtk_resgenerator.cpp ****     {
2157:mtk_resgenerator.cpp ****         return 0;
 6330              	LM350:
 6331 528c C78558FD 		movl	$0, -680(%ebp)
 6331      FFFF0000 
 6331      0000
 6332 5296 E9590300 		jmp	L130
 6332      00
 6333              	L159:
2158:mtk_resgenerator.cpp ****     }
2159:mtk_resgenerator.cpp **** 
2160:mtk_resgenerator.cpp ****     /* Menuitem reduce memory, move registe hilite handlers to resgen */
2161:mtk_resgenerator.cpp ****     if(pFile = fopen(MENU_HANDLER_FILENAME, "w"))
 6335              	LM351:
 6336 529b C7442404 		movl	$LC2, 4(%esp)
 6336      4F000000 
 6337 52a3 C70424E0 		movl	$LC194, (%esp)
 6337      3C0000
 6338 52aa E8000000 		call	_fopen
 6338      00
GAS LISTING d:/github/AIOT_WORKSHOP/AIoT_MT2503AVE_SDK/11CW1418SP4_03_CORETEK03AE_11C_V1_GPRS_MMI/plutommi/Customer/ResGenerator/gcctmp/ccmAfaaa.s 			page 124


 6339 52af 8945F0   		movl	%eax, -16(%ebp)
 6340 52b2 837DF000 		cmpl	$0, -16(%ebp)
 6341 52b6 0F842203 		je	L160
 6341      0000
2162:mtk_resgenerator.cpp ****     {
2163:mtk_resgenerator.cpp ****         /* Output to head file MENU_HANDLER_FILENAME */
2164:mtk_resgenerator.cpp ****         /* File Header */
2165:mtk_resgenerator.cpp ****         fprintf(pFile, "/**************************************************************************
 6343              	LM352:
 6344 52bc C7442404 		movl	$LC195, 4(%esp)
 6344      203D0000 
 6345 52c4 8B45F0   		movl	-16(%ebp), %eax
 6346 52c7 890424   		movl	%eax, (%esp)
 6347 52ca E8000000 		call	_fprintf
 6347      00
2166:mtk_resgenerator.cpp ****         fprintf(pFile, "/**************************************************************************
 6349              	LM353:
 6350 52cf C7442404 		movl	$LC196, 4(%esp)
 6350      60450000 
 6351 52d7 8B45F0   		movl	-16(%ebp), %eax
 6352 52da 890424   		movl	%eax, (%esp)
 6353 52dd E8000000 		call	_fprintf
 6353      00
2167:mtk_resgenerator.cpp ****         /* Define Extern and Include */
2168:mtk_resgenerator.cpp ****         fprintf(pFile, "\n#ifndef _MENUHANDLER_H\n#define _MENUHANDLER_H\n");
 6355              	LM354:
 6356 52e2 C7442404 		movl	$LC197, 4(%esp)
 6356      00490000 
 6357 52ea 8B45F0   		movl	-16(%ebp), %eax
 6358 52ed 890424   		movl	%eax, (%esp)
 6359 52f0 E8000000 		call	_fprintf
 6359      00
2169:mtk_resgenerator.cpp ****         fprintf(pFile, "\n/* need typedef void (*FuncPtr) (void); before include this file */\n\n")
 6361              	LM355:
 6362 52f5 C7442404 		movl	$LC198, 4(%esp)
 6362      40490000 
 6363 52fd 8B45F0   		movl	-16(%ebp), %eax
 6364 5300 890424   		movl	%eax, (%esp)
 6365 5303 E8000000 		call	_fprintf
 6365      00
2170:mtk_resgenerator.cpp ****         fprintf(pFile, "/* #define MENU_HILITE_HANDLER_COUNT   %d; */\n/* #define MENU_HINT_HANDLER
 6367              	LM356:
 6368 5308 A1000000 		movl	_HintHdlrCount, %eax
 6368      00
 6369 530d 8944240C 		movl	%eax, 12(%esp)
 6370 5311 A1000000 		movl	_HiliteHdlrCount, %eax
 6370      00
 6371 5316 89442408 		movl	%eax, 8(%esp)
 6372 531a C7442404 		movl	$LC199, 4(%esp)
 6372      A0490000 
 6373 5322 8B45F0   		movl	-16(%ebp), %eax
 6374 5325 890424   		movl	%eax, (%esp)
 6375 5328 E8000000 		call	_fprintf
 6375      00
2171:mtk_resgenerator.cpp **** 
2172:mtk_resgenerator.cpp ****         fprintf(pFile, "#include \"mmi_rp_all_defs.h\"\n");
 6377              	LM357:
GAS LISTING d:/github/AIOT_WORKSHOP/AIoT_MT2503AVE_SDK/11CW1418SP4_03_CORETEK03AE_11C_V1_GPRS_MMI/plutommi/Customer/ResGenerator/gcctmp/ccmAfaaa.s 			page 125


 6378 532d C7442404 		movl	$LC200, 4(%esp)
 6378      FE490000 
 6379 5335 8B45F0   		movl	-16(%ebp), %eax
 6380 5338 890424   		movl	%eax, (%esp)
 6381 533b E8000000 		call	_fprintf
 6381      00
2173:mtk_resgenerator.cpp ****         /* Extern of handler functions */
2174:mtk_resgenerator.cpp ****         fprintf(pFile, "/* Extern functions of Hilite Handler */\n");
 6383              	LM358:
 6384 5340 C7442404 		movl	$LC201, 4(%esp)
 6384      204A0000 
 6385 5348 8B45F0   		movl	-16(%ebp), %eax
 6386 534b 890424   		movl	%eax, (%esp)
 6387 534e E8000000 		call	_fprintf
 6387      00
2175:mtk_resgenerator.cpp ****         for (i=0; i<MAX_MENU_ITEMS; i++)
 6389              	LM359:
 6390 5353 C78574FD 		movl	$0, -652(%ebp)
 6390      FFFF0000 
 6390      0000
 6391              	L161:
 6392 535d 81BD74FD 		cmpl	$65534, -652(%ebp)
 6392      FFFFFEFF 
 6392      0000
 6393 5367 7E02     		jle	L164
 6394 5369 EB4E     		jmp	L162
 6395              	L164:
2176:mtk_resgenerator.cpp ****         {
2177:mtk_resgenerator.cpp ****             if (nMenuHiliteHandlers[i].nMenuItemId != 0)
 6397              	LM360:
 6398 536b 8B9574FD 		movl	-652(%ebp), %edx
 6398      FFFF
 6399 5371 89D0     		movl	%edx, %eax
 6400 5373 C1E007   		sall	$7, %eax
 6401 5376 01D0     		addl	%edx, %eax
 6402 5378 01C0     		addl	%eax, %eax
 6403 537a 6683B800 		cmpw	$0, _nMenuHiliteHandlers(%eax)
 6403      00000000 
 6404 5382 742B     		je	L163
2178:mtk_resgenerator.cpp ****             {
2179:mtk_resgenerator.cpp ****                 fprintf(pFile, "extern void %s(void);\n", nMenuHiliteHandlers[i].HiliteFuncName);
 6406              	LM361:
 6407 5384 8B9574FD 		movl	-652(%ebp), %edx
 6407      FFFF
 6408 538a 89D0     		movl	%edx, %eax
 6409 538c C1E007   		sall	$7, %eax
 6410 538f 01D0     		addl	%edx, %eax
 6411 5391 01C0     		addl	%eax, %eax
 6412 5393 05820000 		addl	$_nMenuHiliteHandlers+130, %eax
 6412      00
 6413 5398 89442408 		movl	%eax, 8(%esp)
 6414 539c C7442404 		movl	$LC202, 4(%esp)
 6414      4A4A0000 
 6415 53a4 8B45F0   		movl	-16(%ebp), %eax
 6416 53a7 890424   		movl	%eax, (%esp)
 6417 53aa E8000000 		call	_fprintf
 6417      00
GAS LISTING d:/github/AIOT_WORKSHOP/AIoT_MT2503AVE_SDK/11CW1418SP4_03_CORETEK03AE_11C_V1_GPRS_MMI/plutommi/Customer/ResGenerator/gcctmp/ccmAfaaa.s 			page 126


 6419              	LM362:
 6420              	L163:
 6421 53af 8D8574FD 		leal	-652(%ebp), %eax
 6421      FFFF
 6422 53b5 FF00     		incl	(%eax)
 6423 53b7 EBA4     		jmp	L161
 6424              	L162:
2180:mtk_resgenerator.cpp ****             }
2181:mtk_resgenerator.cpp ****         }
2182:mtk_resgenerator.cpp ****         fprintf(pFile, "\n\n/* Extern functions of Hint Handler */\n");
 6426              	LM363:
 6427 53b9 C7442404 		movl	$LC203, 4(%esp)
 6427      804A0000 
 6428 53c1 8B45F0   		movl	-16(%ebp), %eax
 6429 53c4 890424   		movl	%eax, (%esp)
 6430 53c7 E8000000 		call	_fprintf
 6430      00
2183:mtk_resgenerator.cpp ****         for (i=0; i<MAX_MENU_ITEMS; i++)
 6432              	LM364:
 6433 53cc C78574FD 		movl	$0, -652(%ebp)
 6433      FFFF0000 
 6433      0000
 6434              	L166:
 6435 53d6 81BD74FD 		cmpl	$65534, -652(%ebp)
 6435      FFFFFEFF 
 6435      0000
 6436 53e0 7E02     		jle	L169
 6437 53e2 EB4E     		jmp	L167
 6438              	L169:
2184:mtk_resgenerator.cpp ****         {
2185:mtk_resgenerator.cpp ****             if (nMenuHintHandlers[i].nMenuItemId != 0)
 6440              	LM365:
 6441 53e4 8B9574FD 		movl	-652(%ebp), %edx
 6441      FFFF
 6442 53ea 89D0     		movl	%edx, %eax
 6443 53ec C1E007   		sall	$7, %eax
 6444 53ef 01D0     		addl	%edx, %eax
 6445 53f1 01C0     		addl	%eax, %eax
 6446 53f3 6683B800 		cmpw	$0, _nMenuHintHandlers(%eax)
 6446      00000000 
 6447 53fb 742B     		je	L168
2186:mtk_resgenerator.cpp ****             {
2187:mtk_resgenerator.cpp ****                 fprintf(pFile, "extern void %s(U16);\n", nMenuHintHandlers[i].HintFuncName);
 6449              	LM366:
 6450 53fd 8B9574FD 		movl	-652(%ebp), %edx
 6450      FFFF
 6451 5403 89D0     		movl	%edx, %eax
 6452 5405 C1E007   		sall	$7, %eax
 6453 5408 01D0     		addl	%edx, %eax
 6454 540a 01C0     		addl	%eax, %eax
 6455 540c 05820000 		addl	$_nMenuHintHandlers+130, %eax
 6455      00
 6456 5411 89442408 		movl	%eax, 8(%esp)
 6457 5415 C7442404 		movl	$LC204, 4(%esp)
 6457      AA4A0000 
 6458 541d 8B45F0   		movl	-16(%ebp), %eax
 6459 5420 890424   		movl	%eax, (%esp)
GAS LISTING d:/github/AIOT_WORKSHOP/AIoT_MT2503AVE_SDK/11CW1418SP4_03_CORETEK03AE_11C_V1_GPRS_MMI/plutommi/Customer/ResGenerator/gcctmp/ccmAfaaa.s 			page 127


 6460 5423 E8000000 		call	_fprintf
 6460      00
 6462              	LM367:
 6463              	L168:
 6464 5428 8D8574FD 		leal	-652(%ebp), %eax
 6464      FFFF
 6465 542e FF00     		incl	(%eax)
 6466 5430 EBA4     		jmp	L166
 6467              	L167:
2188:mtk_resgenerator.cpp ****             }
2189:mtk_resgenerator.cpp ****         }
2190:mtk_resgenerator.cpp ****         /* MenuHiliteHandlers Array */
2191:mtk_resgenerator.cpp ****         if (HiliteHdlrCount != 0)
 6469              	LM368:
 6470 5432 833D0000 		cmpl	$0, _HiliteHdlrCount
 6470      000000
 6471 5439 0F84A600 		je	L171
 6471      0000
2192:mtk_resgenerator.cpp ****         {
2193:mtk_resgenerator.cpp ****             fprintf(pFile, "\nconst mmi_frm_hilite_hdlr_struct mmi_frm_const_hilite_hdlr_table[] = 
 6473              	LM369:
 6474 543f C7442404 		movl	$LC205, 4(%esp)
 6474      C04A0000 
 6475 5447 8B45F0   		movl	-16(%ebp), %eax
 6476 544a 890424   		movl	%eax, (%esp)
 6477 544d E8000000 		call	_fprintf
 6477      00
2194:mtk_resgenerator.cpp ****             for (i=0; i<MAX_MENU_ITEMS; i++)
 6479              	LM370:
 6480 5452 C78574FD 		movl	$0, -652(%ebp)
 6480      FFFF0000 
 6480      0000
 6481              	L172:
 6482 545c 81BD74FD 		cmpl	$65534, -652(%ebp)
 6482      FFFFFEFF 
 6482      0000
 6483 5466 7E02     		jle	L175
 6484 5468 EB66     		jmp	L173
 6485              	L175:
2195:mtk_resgenerator.cpp ****             {
2196:mtk_resgenerator.cpp ****                 if (nMenuHiliteHandlers[i].nMenuItemId != 0)
 6487              	LM371:
 6488 546a 8B9574FD 		movl	-652(%ebp), %edx
 6488      FFFF
 6489 5470 89D0     		movl	%edx, %eax
 6490 5472 C1E007   		sall	$7, %eax
 6491 5475 01D0     		addl	%edx, %eax
 6492 5477 01C0     		addl	%eax, %eax
 6493 5479 6683B800 		cmpw	$0, _nMenuHiliteHandlers(%eax)
 6493      00000000 
 6494 5481 7443     		je	L174
2197:mtk_resgenerator.cpp ****                 {
2198:mtk_resgenerator.cpp ****                     fprintf(pFile, "    {%s, %s},\n", nMenuHiliteHandlers[i].MenuItemIdEnum, nMenuH
 6496              	LM372:
 6497 5483 8B9574FD 		movl	-652(%ebp), %edx
 6497      FFFF
 6498 5489 89D0     		movl	%edx, %eax
GAS LISTING d:/github/AIOT_WORKSHOP/AIoT_MT2503AVE_SDK/11CW1418SP4_03_CORETEK03AE_11C_V1_GPRS_MMI/plutommi/Customer/ResGenerator/gcctmp/ccmAfaaa.s 			page 128


 6499 548b C1E007   		sall	$7, %eax
 6500 548e 01D0     		addl	%edx, %eax
 6501 5490 01C0     		addl	%eax, %eax
 6502 5492 05820000 		addl	$_nMenuHiliteHandlers+130, %eax
 6502      00
 6503 5497 8944240C 		movl	%eax, 12(%esp)
 6504 549b 8B9574FD 		movl	-652(%ebp), %edx
 6504      FFFF
 6505 54a1 89D0     		movl	%edx, %eax
 6506 54a3 C1E007   		sall	$7, %eax
 6507 54a6 01D0     		addl	%edx, %eax
 6508 54a8 01C0     		addl	%eax, %eax
 6509 54aa 05020000 		addl	$_nMenuHiliteHandlers+2, %eax
 6509      00
 6510 54af 89442408 		movl	%eax, 8(%esp)
 6511 54b3 C7442404 		movl	$LC206, 4(%esp)
 6511      094B0000 
 6512 54bb 8B45F0   		movl	-16(%ebp), %eax
 6513 54be 890424   		movl	%eax, (%esp)
 6514 54c1 E8000000 		call	_fprintf
 6514      00
 6516              	LM373:
 6517              	L174:
 6518 54c6 8D8574FD 		leal	-652(%ebp), %eax
 6518      FFFF
 6519 54cc FF00     		incl	(%eax)
 6520 54ce EB8C     		jmp	L172
 6521              	L173:
2199:mtk_resgenerator.cpp ****                 }
2200:mtk_resgenerator.cpp ****             }
2201:mtk_resgenerator.cpp ****             fprintf(pFile, "};\n");
 6523              	LM374:
 6524 54d0 C7442404 		movl	$LC17, 4(%esp)
 6524      02040000 
 6525 54d8 8B45F0   		movl	-16(%ebp), %eax
 6526 54db 890424   		movl	%eax, (%esp)
 6527 54de E8000000 		call	_fprintf
 6527      00
 6528 54e3 EB13     		jmp	L177
 6529              	L171:
2202:mtk_resgenerator.cpp ****         }
2203:mtk_resgenerator.cpp ****         else
2204:mtk_resgenerator.cpp ****         {
2205:mtk_resgenerator.cpp ****             fprintf(pFile, "\nconst mmi_frm_hilite_hdlr_struct mmi_frm_const_hilite_hdlr_table[1] =
 6531              	LM375:
 6532 54e5 C7442404 		movl	$LC207, 4(%esp)
 6532      204B0000 
 6533 54ed 8B45F0   		movl	-16(%ebp), %eax
 6534 54f0 890424   		movl	%eax, (%esp)
 6535 54f3 E8000000 		call	_fprintf
 6535      00
 6536              	L177:
2206:mtk_resgenerator.cpp ****         }
2207:mtk_resgenerator.cpp **** 
2208:mtk_resgenerator.cpp ****         /* MenuHintHandlers Array */
2209:mtk_resgenerator.cpp ****         if (HintHdlrCount != 0)
 6538              	LM376:
GAS LISTING d:/github/AIOT_WORKSHOP/AIoT_MT2503AVE_SDK/11CW1418SP4_03_CORETEK03AE_11C_V1_GPRS_MMI/plutommi/Customer/ResGenerator/gcctmp/ccmAfaaa.s 			page 129


 6539 54f8 833D0000 		cmpl	$0, _HintHdlrCount
 6539      000000
 6540 54ff 0F84A600 		je	L178
 6540      0000
2210:mtk_resgenerator.cpp ****         {
2211:mtk_resgenerator.cpp ****             fprintf(pFile, "\nconst mmi_frm_hint_hdlr_struct mmi_frm_const_hint_hdlr_table[] = {\n"
 6542              	LM377:
 6543 5505 C7442404 		movl	$LC208, 4(%esp)
 6543      804B0000 
 6544 550d 8B45F0   		movl	-16(%ebp), %eax
 6545 5510 890424   		movl	%eax, (%esp)
 6546 5513 E8000000 		call	_fprintf
 6546      00
2212:mtk_resgenerator.cpp ****             for (i=0; i<MAX_MENU_ITEMS; i++)
 6548              	LM378:
 6549 5518 C78574FD 		movl	$0, -652(%ebp)
 6549      FFFF0000 
 6549      0000
 6550              	L179:
 6551 5522 81BD74FD 		cmpl	$65534, -652(%ebp)
 6551      FFFFFEFF 
 6551      0000
 6552 552c 7E02     		jle	L182
 6553 552e EB66     		jmp	L180
 6554              	L182:
2213:mtk_resgenerator.cpp ****             {
2214:mtk_resgenerator.cpp ****                 if (nMenuHintHandlers[i].nMenuItemId != 0)
 6556              	LM379:
 6557 5530 8B9574FD 		movl	-652(%ebp), %edx
 6557      FFFF
 6558 5536 89D0     		movl	%edx, %eax
 6559 5538 C1E007   		sall	$7, %eax
 6560 553b 01D0     		addl	%edx, %eax
 6561 553d 01C0     		addl	%eax, %eax
 6562 553f 6683B800 		cmpw	$0, _nMenuHintHandlers(%eax)
 6562      00000000 
 6563 5547 7443     		je	L181
2215:mtk_resgenerator.cpp ****                 {
2216:mtk_resgenerator.cpp ****                     fprintf(pFile, "    {%s, %s},\n", nMenuHintHandlers[i].MenuItemIdEnum, nMenuHin
 6565              	LM380:
 6566 5549 8B9574FD 		movl	-652(%ebp), %edx
 6566      FFFF
 6567 554f 89D0     		movl	%edx, %eax
 6568 5551 C1E007   		sall	$7, %eax
 6569 5554 01D0     		addl	%edx, %eax
 6570 5556 01C0     		addl	%eax, %eax
 6571 5558 05820000 		addl	$_nMenuHintHandlers+130, %eax
 6571      00
 6572 555d 8944240C 		movl	%eax, 12(%esp)
 6573 5561 8B9574FD 		movl	-652(%ebp), %edx
 6573      FFFF
 6574 5567 89D0     		movl	%edx, %eax
 6575 5569 C1E007   		sall	$7, %eax
 6576 556c 01D0     		addl	%edx, %eax
 6577 556e 01C0     		addl	%eax, %eax
 6578 5570 05020000 		addl	$_nMenuHintHandlers+2, %eax
 6578      00
GAS LISTING d:/github/AIOT_WORKSHOP/AIoT_MT2503AVE_SDK/11CW1418SP4_03_CORETEK03AE_11C_V1_GPRS_MMI/plutommi/Customer/ResGenerator/gcctmp/ccmAfaaa.s 			page 130


 6579 5575 89442408 		movl	%eax, 8(%esp)
 6580 5579 C7442404 		movl	$LC206, 4(%esp)
 6580      094B0000 
 6581 5581 8B45F0   		movl	-16(%ebp), %eax
 6582 5584 890424   		movl	%eax, (%esp)
 6583 5587 E8000000 		call	_fprintf
 6583      00
 6585              	LM381:
 6586              	L181:
 6587 558c 8D8574FD 		leal	-652(%ebp), %eax
 6587      FFFF
 6588 5592 FF00     		incl	(%eax)
 6589 5594 EB8C     		jmp	L179
 6590              	L180:
2217:mtk_resgenerator.cpp ****                 }
2218:mtk_resgenerator.cpp ****             }
2219:mtk_resgenerator.cpp ****             fprintf(pFile, "};\n");
 6592              	LM382:
 6593 5596 C7442404 		movl	$LC17, 4(%esp)
 6593      02040000 
 6594 559e 8B45F0   		movl	-16(%ebp), %eax
 6595 55a1 890424   		movl	%eax, (%esp)
 6596 55a4 E8000000 		call	_fprintf
 6596      00
 6597 55a9 EB13     		jmp	L184
 6598              	L178:
2220:mtk_resgenerator.cpp ****         }
2221:mtk_resgenerator.cpp ****         else
2222:mtk_resgenerator.cpp ****         {
2223:mtk_resgenerator.cpp ****             fprintf(pFile, "\nconst mmi_frm_hint_hdlr_struct mmi_frm_const_hint_hdlr_table[1] = {{0
 6600              	LM383:
 6601 55ab C7442404 		movl	$LC209, 4(%esp)
 6601      E04B0000 
 6602 55b3 8B45F0   		movl	-16(%ebp), %eax
 6603 55b6 890424   		movl	%eax, (%esp)
 6604 55b9 E8000000 		call	_fprintf
 6604      00
 6605              	L184:
2224:mtk_resgenerator.cpp ****         }
2225:mtk_resgenerator.cpp ****         /* endif */
2226:mtk_resgenerator.cpp ****         fprintf(pFile, "\n#endif /* _MENUHANDLER_H */ \n");
 6607              	LM384:
 6608 55be C7442404 		movl	$LC210, 4(%esp)
 6608      404C0000 
 6609 55c6 8B45F0   		movl	-16(%ebp), %eax
 6610 55c9 890424   		movl	%eax, (%esp)
 6611 55cc E8000000 		call	_fprintf
 6611      00
2227:mtk_resgenerator.cpp **** 
2228:mtk_resgenerator.cpp ****         fclose(pFile);
 6613              	LM385:
 6614 55d1 8B45F0   		movl	-16(%ebp), %eax
 6615 55d4 890424   		movl	%eax, (%esp)
 6616 55d7 E8000000 		call	_fclose
 6616      00
 6617 55dc EB0C     		jmp	L185
 6618              	L160:
GAS LISTING d:/github/AIOT_WORKSHOP/AIoT_MT2503AVE_SDK/11CW1418SP4_03_CORETEK03AE_11C_V1_GPRS_MMI/plutommi/Customer/ResGenerator/gcctmp/ccmAfaaa.s 			page 131


2229:mtk_resgenerator.cpp ****     }
2230:mtk_resgenerator.cpp ****     else
2231:mtk_resgenerator.cpp ****     {
2232:mtk_resgenerator.cpp ****         return 0;
 6620              	LM386:
 6621 55de C78558FD 		movl	$0, -680(%ebp)
 6621      FFFF0000 
 6621      0000
 6622 55e8 EB0A     		jmp	L130
 6623              	L185:
2233:mtk_resgenerator.cpp ****     }
2234:mtk_resgenerator.cpp ****     return 1;
 6625              	LM387:
 6626 55ea C78558FD 		movl	$1, -680(%ebp)
 6626      FFFF0100 
 6626      0000
2235:mtk_resgenerator.cpp **** }
 6628              	LM388:
 6629              	L130:
 6630              	LBE39:
 6631 55f4 8B8558FD 		movl	-680(%ebp), %eax
 6631      FFFF
 6632 55fa 81C4D402 		addl	$724, %esp
 6632      0000
 6633 5600 5B       		popl	%ebx
 6634 5601 5D       		popl	%ebp
 6635 5602 C3       		ret
 6650              	Lscope20:
 6652 5603 90909090 		.align 32
 6652      90909090 
 6652      90909090 
 6652      90909090 
 6652      90909090 
 6653              	LC211:
 6654 5620 2E2E5C2E 		.ascii "..\\..\\customer\\custresource\\CustImgDataRes_0.c\0"
 6654      2E5C6375 
 6654      73746F6D 
 6654      65725C63 
 6654      75737472 
 6655 564f 90909090 		.align 32
 6655      90909090 
 6655      90909090 
 6655      90909090 
 6655      90
 6656              	LC212:
 6657 5660 2E2E5C2E 		.ascii "..\\..\\customer\\custresource\\CustImgDataRes_1.c\0"
 6657      2E5C6375 
 6657      73746F6D 
 6657      65725C63 
 6657      75737472 
 6658 568f 90909090 		.align 32
 6658      90909090 
 6658      90909090 
 6658      90909090 
 6658      90
 6659              	LC213:
 6660 56a0 2E2E5C2E 		.ascii "..\\..\\customer\\custresource\\CustImgDataRes_2.c\0"
GAS LISTING d:/github/AIOT_WORKSHOP/AIoT_MT2503AVE_SDK/11CW1418SP4_03_CORETEK03AE_11C_V1_GPRS_MMI/plutommi/Customer/ResGenerator/gcctmp/ccmAfaaa.s 			page 132


 6660      2E5C6375 
 6660      73746F6D 
 6660      65725C63 
 6660      75737472 
 6661 56cf 90909090 		.align 32
 6661      90909090 
 6661      90909090 
 6661      90909090 
 6661      90
 6662              	LC214:
 6663 56e0 2E2E5C2E 		.ascii "..\\..\\customer\\custresource\\CustImgDataRes_3.c\0"
 6663      2E5C6375 
 6663      73746F6D 
 6663      65725C63 
 6663      75737472 
 6664              	.globl _output_file_name
 6665              		.data
 6666              		.align 4
 6667              	_output_file_name:
 6668 0000 20560000 		.long	LC211
 6669 0004 60560000 		.long	LC212
 6670 0008 A0560000 		.long	LC213
 6671 000c E0560000 		.long	LC214
 6673              	.lcomm _ZZ19process_line_bufferPcE5bjump,16
 6674              		.text
 6675 570f 90       		.align 2
 6678              	.globl __Z19process_line_bufferPc
 6680              	__Z19process_line_bufferPc:
2236:mtk_resgenerator.cpp **** 
2237:mtk_resgenerator.cpp **** #if 0
2238:mtk_resgenerator.cpp **** /* under construction !*/
2239:mtk_resgenerator.cpp **** /* under construction !*/
2240:mtk_resgenerator.cpp **** /* under construction !*/
2241:mtk_resgenerator.cpp **** /* under construction !*/
2242:mtk_resgenerator.cpp **** /* under construction !*/
2243:mtk_resgenerator.cpp **** /* under construction !*/
2244:mtk_resgenerator.cpp **** /* under construction !*/
2245:mtk_resgenerator.cpp **** /* under construction !*/
2246:mtk_resgenerator.cpp **** /* under construction !*/
2247:mtk_resgenerator.cpp **** /* under construction !*/
2248:mtk_resgenerator.cpp **** /* under construction !*/
2249:mtk_resgenerator.cpp **** /* under construction !*/
2250:mtk_resgenerator.cpp **** /* under construction !*/
2251:mtk_resgenerator.cpp **** /* under construction !*/
2252:mtk_resgenerator.cpp **** /* under construction !*/
2253:mtk_resgenerator.cpp **** /* under construction !*/
2254:mtk_resgenerator.cpp **** /* under construction !*/
2255:mtk_resgenerator.cpp **** /* under construction !*/
2256:mtk_resgenerator.cpp **** /* under construction !*/
2257:mtk_resgenerator.cpp **** /* under construction !*/
2258:mtk_resgenerator.cpp **** /* under construction !*/
2259:mtk_resgenerator.cpp **** /* under construction !*/
2260:mtk_resgenerator.cpp **** /* under construction !*/
2261:mtk_resgenerator.cpp **** /* under construction !*/
2262:mtk_resgenerator.cpp **** /* under construction !*/
2263:mtk_resgenerator.cpp **** /* under construction !*/
2264:mtk_resgenerator.cpp **** /* under construction !*/
GAS LISTING d:/github/AIOT_WORKSHOP/AIoT_MT2503AVE_SDK/11CW1418SP4_03_CORETEK03AE_11C_V1_GPRS_MMI/plutommi/Customer/ResGenerator/gcctmp/ccmAfaaa.s 			page 133


2265:mtk_resgenerator.cpp **** /* under construction !*/
2266:mtk_resgenerator.cpp **** /* under construction !*/
2267:mtk_resgenerator.cpp **** /* under construction !*/
2268:mtk_resgenerator.cpp **** /* under construction !*/
2269:mtk_resgenerator.cpp **** /* under construction !*/
2270:mtk_resgenerator.cpp **** /* under construction !*/
2271:mtk_resgenerator.cpp **** /* under construction !*/
2272:mtk_resgenerator.cpp **** #endif
2273:mtk_resgenerator.cpp **** /* start split image data */
2274:mtk_resgenerator.cpp **** 
2275:mtk_resgenerator.cpp **** const char HEADER[] = "__align(4)";
2276:mtk_resgenerator.cpp **** const char REP_HEADER[] =  ("extern ");
2277:mtk_resgenerator.cpp **** #define START_FLAG    ('{')
2278:mtk_resgenerator.cpp **** #define END_FLAG      ('}')
2279:mtk_resgenerator.cpp **** #define AVERAGE_IMG_NUMBER    (2000)
2280:mtk_resgenerator.cpp **** 
2281:mtk_resgenerator.cpp **** #define CUST_RES_FILE_COUNT    (4)
2282:mtk_resgenerator.cpp **** const char *output_file_name[CUST_RES_FILE_COUNT] = {
2283:mtk_resgenerator.cpp ****     "..\\..\\customer\\custresource\\CustImgDataRes_0.c",
2284:mtk_resgenerator.cpp ****     "..\\..\\customer\\custresource\\CustImgDataRes_1.c",
2285:mtk_resgenerator.cpp ****     "..\\..\\customer\\custresource\\CustImgDataRes_2.c",
2286:mtk_resgenerator.cpp ****     "..\\..\\customer\\custresource\\CustImgDataRes_3.c",
2287:mtk_resgenerator.cpp **** };
2288:mtk_resgenerator.cpp **** 
2289:mtk_resgenerator.cpp **** #ifdef __RESOURCE_GEN_
2290:mtk_resgenerator.cpp **** #define CUST_IMG_DATA_PATH    "..\\..\\customer\\custresource"
2291:mtk_resgenerator.cpp **** #define CUST_IMG_DATA_FILE    "..\\..\\customer\\custresource\\custimgdatahw.h"
2292:mtk_resgenerator.cpp **** #define CUST_IMG_DATA_O_FILE    "..\\..\\customer\\custresource\\custimgdatahwBak.h"
2293:mtk_resgenerator.cpp **** #define CUST_IMG_HEADER_FILE  "..\\..\\customer\\custresource\\tmp_imgdata.h"
2294:mtk_resgenerator.cpp **** #else
2295:mtk_resgenerator.cpp **** #define CUST_IMG_DATA_PATH    ".\\"
2296:mtk_resgenerator.cpp **** #define CUST_IMG_DATA_FILE    ".\\custimgdatahw.h"
2297:mtk_resgenerator.cpp **** #endif
2298:mtk_resgenerator.cpp **** 
2299:mtk_resgenerator.cpp **** typedef char(* BUFFER_HEADER)[1024];
2300:mtk_resgenerator.cpp **** 
2301:mtk_resgenerator.cpp **** 
2302:mtk_resgenerator.cpp **** /*
2303:mtk_resgenerator.cpp **** * here we supporse the line content as following three lines:
2304:mtk_resgenerator.cpp **** * __align(4) const U8 __MAINLCD__ACTIVE__POWERONOFF__LOGO_BMP_[] =
2305:mtk_resgenerator.cpp **** * const U8 __MAINLCD__ACTIVE__POWERONOFF__LOGO_BMP_[] =
2306:mtk_resgenerator.cpp **** * other content without '=' and "__align(4)"
2307:mtk_resgenerator.cpp **** */
2308:mtk_resgenerator.cpp **** char *process_line_buffer(char *buffer)
2309:mtk_resgenerator.cpp **** {
 6682              	LM389:
 6683 5710 55       		pushl	%ebp
 6684 5711 89E5     		movl	%esp, %ebp
 6685 5713 83EC18   		subl	$24, %esp
2310:mtk_resgenerator.cpp ****     char *tmp_buff = NULL;
 6687              	LM390:
 6688              	LBB40:
 6689 5716 C745FC00 		movl	$0, -4(%ebp)
 6689      000000
2311:mtk_resgenerator.cpp ****     static bool bjump = false;
2312:mtk_resgenerator.cpp ****     int len = strlen(REP_HEADER);
 6691              	LM391:
GAS LISTING d:/github/AIOT_WORKSHOP/AIoT_MT2503AVE_SDK/11CW1418SP4_03_CORETEK03AE_11C_V1_GPRS_MMI/plutommi/Customer/ResGenerator/gcctmp/ccmAfaaa.s 			page 134


 6692 571d C7042473 		movl	$_REP_HEADER, (%esp)
 6692      890000
 6693 5724 E8000000 		call	_strlen
 6693      00
 6694 5729 8945F8   		movl	%eax, -8(%ebp)
2313:mtk_resgenerator.cpp **** 
2314:mtk_resgenerator.cpp ****     if(buffer != NULL)
 6696              	LM392:
 6697              	LBB41:
 6698 572c 837D0800 		cmpl	$0, 8(%ebp)
 6699 5730 0F84F200 		je	L187
 6699      0000
2315:mtk_resgenerator.cpp ****     {
2316:mtk_resgenerator.cpp ****         if(!bjump)
 6701              	LM393:
 6702              	LBB42:
 6703              	LBB43:
 6704 5736 803D1800 		cmpb	$0, _ZZ19process_line_bufferPcE5bjump
 6704      000000
 6705 573d 0F85C700 		jne	L188
 6705      0000
2317:mtk_resgenerator.cpp ****         {
2318:mtk_resgenerator.cpp ****             if(strchr(buffer, START_FLAG) != NULL)
 6707              	LM394:
 6708              	LBB44:
 6709 5743 C7442404 		movl	$123, 4(%esp)
 6709      7B000000 
 6710 574b 8B4508   		movl	8(%ebp), %eax
 6711 574e 890424   		movl	%eax, (%esp)
 6712 5751 E8000000 		call	__ZSt6strchrPci
 6712      00
 6713 5756 85C0     		testl	%eax, %eax
 6714 5758 7407     		je	L189
2319:mtk_resgenerator.cpp ****             {
2320:mtk_resgenerator.cpp ****                 bjump = true;
 6716              	LM395:
 6717 575a C6051800 		movb	$1, _ZZ19process_line_bufferPcE5bjump
 6717      000001
 6718              	L189:
2321:mtk_resgenerator.cpp ****             }
2322:mtk_resgenerator.cpp ****             if(!bjump)
 6720              	LM396:
 6721              	LBB45:
 6722 5761 803D1800 		cmpb	$0, _ZZ19process_line_bufferPcE5bjump
 6722      000000
 6723 5768 0F85BA00 		jne	L187
 6723      0000
2323:mtk_resgenerator.cpp ****             {
2324:mtk_resgenerator.cpp ****                 tmp_buff = strchr(buffer, '=');
 6725              	LM397:
 6726              	LBB46:
 6727 576e C7442404 		movl	$61, 4(%esp)
 6727      3D000000 
 6728 5776 8B4508   		movl	8(%ebp), %eax
 6729 5779 890424   		movl	%eax, (%esp)
 6730 577c E8000000 		call	__ZSt6strchrPci
 6730      00
GAS LISTING d:/github/AIOT_WORKSHOP/AIoT_MT2503AVE_SDK/11CW1418SP4_03_CORETEK03AE_11C_V1_GPRS_MMI/plutommi/Customer/ResGenerator/gcctmp/ccmAfaaa.s 			page 135


 6731 5781 8945FC   		movl	%eax, -4(%ebp)
2325:mtk_resgenerator.cpp ****                 if(tmp_buff != NULL) /* this line have '=', and we will change '=' to ';' */
 6733              	LM398:
 6734              	LBB47:
 6735 5784 837DFC00 		cmpl	$0, -4(%ebp)
 6736 5788 7472     		je	L191
2326:mtk_resgenerator.cpp ****                 {
2327:mtk_resgenerator.cpp ****                     *tmp_buff = ';';
 6738              	LM399:
 6739              	LBB48:
 6740 578a 8B45FC   		movl	-4(%ebp), %eax
 6741 578d C6003B   		movb	$59, (%eax)
2328:mtk_resgenerator.cpp **** 
2329:mtk_resgenerator.cpp ****                     /* in this line maybe have "__align(4)", so we will check it at the following p
2330:mtk_resgenerator.cpp ****                     tmp_buff = strstr(buffer, HEADER);
 6743              	LM400:
 6744 5790 C7442404 		movl	$_HEADER, 4(%esp)
 6744      68890000 
 6745 5798 8B4508   		movl	8(%ebp), %eax
 6746 579b 890424   		movl	%eax, (%esp)
 6747 579e E8000000 		call	__ZSt6strstrPcPKc
 6747      00
 6748 57a3 8945FC   		movl	%eax, -4(%ebp)
2331:mtk_resgenerator.cpp ****                     if(tmp_buff == NULL) /* this line do not have "__align(4)" */
 6750              	LM401:
 6751 57a6 837DFC00 		cmpl	$0, -4(%ebp)
 6752 57aa 7508     		jne	L192
2332:mtk_resgenerator.cpp ****                         tmp_buff = buffer;
 6754              	LM402:
 6755 57ac 8B4508   		movl	8(%ebp), %eax
 6756 57af 8945FC   		movl	%eax, -4(%ebp)
 6757 57b2 EB13     		jmp	L193
 6758              	L192:
2333:mtk_resgenerator.cpp ****                     else /* remove header: "__align(4)" */
2334:mtk_resgenerator.cpp ****                         tmp_buff = tmp_buff + strlen(HEADER) + 1;
 6760              	LM403:
 6761 57b4 C7042468 		movl	$_HEADER, (%esp)
 6761      890000
 6762 57bb E8000000 		call	_strlen
 6762      00
 6763 57c0 0345FC   		addl	-4(%ebp), %eax
 6764 57c3 40       		incl	%eax
 6765 57c4 8945FC   		movl	%eax, -4(%ebp)
 6766              	L193:
2335:mtk_resgenerator.cpp **** 
2336:mtk_resgenerator.cpp ****                     tmp_buff = tmp_buff - len;
 6768              	LM404:
 6769 57c7 8B55F8   		movl	-8(%ebp), %edx
 6770 57ca 8D45FC   		leal	-4(%ebp), %eax
 6771 57cd 2910     		subl	%edx, (%eax)
2337:mtk_resgenerator.cpp ****                     for(int i = 0; i < len; ++i)
 6773              	LM405:
 6774              	LBB49:
 6775 57cf C745F400 		movl	$0, -12(%ebp)
 6775      000000
 6776              	L194:
 6777 57d6 8B45F4   		movl	-12(%ebp), %eax
GAS LISTING d:/github/AIOT_WORKSHOP/AIoT_MT2503AVE_SDK/11CW1418SP4_03_CORETEK03AE_11C_V1_GPRS_MMI/plutommi/Customer/ResGenerator/gcctmp/ccmAfaaa.s 			page 136


 6778 57d9 3B45F8   		cmpl	-8(%ebp), %eax
 6779 57dc 7C02     		jl	L197
 6780 57de EB22     		jmp	L198
 6781              	L197:
2338:mtk_resgenerator.cpp ****                     {
2339:mtk_resgenerator.cpp ****                         tmp_buff[i] = REP_HEADER[i];
 6783              	LM406:
 6784 57e0 8B45F4   		movl	-12(%ebp), %eax
 6785 57e3 8B55FC   		movl	-4(%ebp), %edx
 6786 57e6 01C2     		addl	%eax, %edx
 6787 57e8 8B45F4   		movl	-12(%ebp), %eax
 6788 57eb 05738900 		addl	$_REP_HEADER, %eax
 6788      00
 6789 57f0 0FB600   		movzbl	(%eax), %eax
 6790 57f3 8802     		movb	%al, (%edx)
 6792              	LM407:
 6793 57f5 8D45F4   		leal	-12(%ebp), %eax
 6794 57f8 FF00     		incl	(%eax)
 6795 57fa EBDA     		jmp	L194
 6796              	L191:
2340:mtk_resgenerator.cpp ****                     }
2341:mtk_resgenerator.cpp ****                 }
2342:mtk_resgenerator.cpp ****                 else
2343:mtk_resgenerator.cpp ****                 {
2344:mtk_resgenerator.cpp ****                     tmp_buff = buffer;
 6798              	LM408:
 6799              	LBE49:
 6800              	LBE48:
 6801 57fc 8B4508   		movl	8(%ebp), %eax
 6802 57ff 8945FC   		movl	%eax, -4(%ebp)
 6803              	L198:
2345:mtk_resgenerator.cpp ****                 }
2346:mtk_resgenerator.cpp **** 
2347:mtk_resgenerator.cpp ****                 /* we will return buffer pointer after this line is processed */
2348:mtk_resgenerator.cpp ****                 return tmp_buff;
 6805              	LM409:
 6806              	LBE47:
 6807 5802 8B45FC   		movl	-4(%ebp), %eax
 6808 5805 8945F0   		movl	%eax, -16(%ebp)
 6809 5808 EB25     		jmp	L186
 6810              	L188:
2349:mtk_resgenerator.cpp ****             }
2350:mtk_resgenerator.cpp ****         }
2351:mtk_resgenerator.cpp ****         else
2352:mtk_resgenerator.cpp ****         {
2353:mtk_resgenerator.cpp ****             if(strchr(buffer, END_FLAG) != NULL)
 6812              	LM410:
 6813              	LBE46:
 6814              	LBE45:
 6815              	LBE44:
 6816 580a C7442404 		movl	$125, 4(%esp)
 6816      7D000000 
 6817 5812 8B4508   		movl	8(%ebp), %eax
 6818 5815 890424   		movl	%eax, (%esp)
 6819 5818 E8000000 		call	__ZSt6strchrPci
 6819      00
 6820 581d 85C0     		testl	%eax, %eax
GAS LISTING d:/github/AIOT_WORKSHOP/AIoT_MT2503AVE_SDK/11CW1418SP4_03_CORETEK03AE_11C_V1_GPRS_MMI/plutommi/Customer/ResGenerator/gcctmp/ccmAfaaa.s 			page 137


 6821 581f 7407     		je	L187
2354:mtk_resgenerator.cpp ****             {
2355:mtk_resgenerator.cpp ****                 bjump = false;
 6823              	LM411:
 6824 5821 C6051800 		movb	$0, _ZZ19process_line_bufferPcE5bjump
 6824      000000
 6825              	L187:
2356:mtk_resgenerator.cpp ****             }
2357:mtk_resgenerator.cpp ****         }
2358:mtk_resgenerator.cpp ****     }
2359:mtk_resgenerator.cpp ****     return NULL;
 6827              	LM412:
 6828              	LBE43:
 6829              	LBE42:
 6830              	LBE41:
 6831 5828 C745F000 		movl	$0, -16(%ebp)
 6831      000000
2360:mtk_resgenerator.cpp **** }
 6833              	LM413:
 6834              	L186:
 6835              	LBE40:
 6836 582f 8B45F0   		movl	-16(%ebp), %eax
 6837 5832 C9       		leave
 6838 5833 C3       		ret
 6847              	Lscope21:
 6849              	.lcomm _ZZ16get_file_headersPcPPA1024_cPiE5bjump,16
 6850              	LC215:
 6851 5834 553800   		.ascii "U8\0"
 6852 5837 90       		.align 2
 6857              	.globl __Z16get_file_headersPcPPA1024_cPi
 6859              	__Z16get_file_headersPcPPA1024_cPi:
2361:mtk_resgenerator.cpp **** 
2362:mtk_resgenerator.cpp **** 
2363:mtk_resgenerator.cpp **** /*************************************************************************
2364:mtk_resgenerator.cpp **** * FUNCTION
2365:mtk_resgenerator.cpp **** *  get_file_headers
2366:mtk_resgenerator.cpp **** *
2367:mtk_resgenerator.cpp **** * DESCRIPTION
2368:mtk_resgenerator.cpp **** *   get file header of data.h, we supporse that before "U8" line will be the
2369:mtk_resgenerator.cpp **** *   header line
2370:mtk_resgenerator.cpp **** *
2371:mtk_resgenerator.cpp **** * PARAMETERS
2372:mtk_resgenerator.cpp **** *   sourc           :[IN]      one line data of data.h
2373:mtk_resgenerator.cpp **** *   dest            :[OTU]     we will put the header data in this array
2374:mtk_resgenerator.cpp **** *   num             :[IN/OUT]  this if total line numbers of header 
2375:mtk_resgenerator.cpp **** *
2376:mtk_resgenerator.cpp **** * RETURNS
2377:mtk_resgenerator.cpp **** *   TRUE means current line is header line, FALSE means current line is not header line
2378:mtk_resgenerator.cpp **** *
2379:mtk_resgenerator.cpp **** *************************************************************************/
2380:mtk_resgenerator.cpp **** bool get_file_headers(char *sourc, BUFFER_HEADER *dest, int *num)
2381:mtk_resgenerator.cpp **** {
 6861              	LM414:
 6862 5838 55       		pushl	%ebp
 6863 5839 89E5     		movl	%esp, %ebp
 6864 583b 83EC08   		subl	$8, %esp
2382:mtk_resgenerator.cpp ****     static bool bjump = false;
GAS LISTING d:/github/AIOT_WORKSHOP/AIoT_MT2503AVE_SDK/11CW1418SP4_03_CORETEK03AE_11C_V1_GPRS_MMI/plutommi/Customer/ResGenerator/gcctmp/ccmAfaaa.s 			page 138


2383:mtk_resgenerator.cpp **** 
2384:mtk_resgenerator.cpp ****     if(!bjump)
 6866              	LM415:
 6867              	LBB50:
 6868 583e 803D2800 		cmpb	$0, _ZZ16get_file_headersPcPPA1024_cPiE5bjump
 6868      000000
 6869 5845 7555     		jne	L202
2385:mtk_resgenerator.cpp ****     {
2386:mtk_resgenerator.cpp ****         if(sourc != NULL)
 6871              	LM416:
 6872 5847 837D0800 		cmpl	$0, 8(%ebp)
 6873 584b 744F     		je	L202
2387:mtk_resgenerator.cpp ****         {
2388:mtk_resgenerator.cpp ****             if(strstr(sourc, "U8") != NULL)
 6875              	LM417:
 6876 584d C7442404 		movl	$LC215, 4(%esp)
 6876      34580000 
 6877 5855 8B4508   		movl	8(%ebp), %eax
 6878 5858 890424   		movl	%eax, (%esp)
 6879 585b E8000000 		call	__ZSt6strstrPcPKc
 6879      00
 6880 5860 85C0     		testl	%eax, %eax
 6881 5862 7409     		je	L204
2389:mtk_resgenerator.cpp ****             {
2390:mtk_resgenerator.cpp ****                 bjump = true;
 6883              	LM418:
 6884 5864 C6052800 		movb	$1, _ZZ16get_file_headersPcPPA1024_cPiE5bjump
 6884      000001
 6885 586b EB2F     		jmp	L202
 6886              	L204:
2391:mtk_resgenerator.cpp ****             }
2392:mtk_resgenerator.cpp ****             else
2393:mtk_resgenerator.cpp ****             {
2394:mtk_resgenerator.cpp ****                 if(*num < 32)
 6888              	LM419:
 6889 586d 8B4510   		movl	16(%ebp), %eax
 6890 5870 83381F   		cmpl	$31, (%eax)
 6891 5873 7F27     		jg	L202
2395:mtk_resgenerator.cpp ****                 {
2396:mtk_resgenerator.cpp ****                     strcpy((*dest)[*num], sourc);
 6893              	LM420:
 6894 5875 8B4508   		movl	8(%ebp), %eax
 6895 5878 89442404 		movl	%eax, 4(%esp)
 6896 587c 8B550C   		movl	12(%ebp), %edx
 6897 587f 8B4510   		movl	16(%ebp), %eax
 6898 5882 8B00     		movl	(%eax), %eax
 6899 5884 C1E00A   		sall	$10, %eax
 6900 5887 0302     		addl	(%edx), %eax
 6901 5889 890424   		movl	%eax, (%esp)
 6902 588c E8000000 		call	_strcpy
 6902      00
2397:mtk_resgenerator.cpp ****                     *num += 1;
 6904              	LM421:
 6905 5891 8B5510   		movl	16(%ebp), %edx
 6906 5894 8B4510   		movl	16(%ebp), %eax
 6907 5897 8B00     		movl	(%eax), %eax
 6908 5899 40       		incl	%eax
GAS LISTING d:/github/AIOT_WORKSHOP/AIoT_MT2503AVE_SDK/11CW1418SP4_03_CORETEK03AE_11C_V1_GPRS_MMI/plutommi/Customer/ResGenerator/gcctmp/ccmAfaaa.s 			page 139


 6909 589a 8902     		movl	%eax, (%edx)
 6910              	L202:
2398:mtk_resgenerator.cpp ****                 }
2399:mtk_resgenerator.cpp ****             }
2400:mtk_resgenerator.cpp ****         }
2401:mtk_resgenerator.cpp ****     }
2402:mtk_resgenerator.cpp **** 
2403:mtk_resgenerator.cpp ****     return bjump;
 6912              	LM422:
 6913 589c 0FB60528 		movzbl	_ZZ16get_file_headersPcPPA1024_cPiE5bjump, %eax
 6913      000000
2404:mtk_resgenerator.cpp **** }
 6915              	LM423:
 6916 58a3 C9       		leave
 6917 58a4 C3       		ret
 6918              	LBE50:
 6922              	Lscope22:
 6924              	.lcomm _ZZ22generate_img_data_fileP6_iobufPA1024_ciiE5count,16
 6925              	LC216:
 6926 58a5 67656E65 		.ascii "generate file failed.\0"
 6926      72617465 
 6926      2066696C 
 6926      65206661 
 6926      696C6564 
 6927              	LC217:
 6928 58bb 63726561 		.ascii "create data file \"%s\" failed.\0"
 6928      74652064 
 6928      61746120 
 6928      66696C65 
 6928      20222573 
 6929              	LC218:
 6930 58d9 7D00     		.ascii "}\0"
 6931              	LC219:
 6932 58db 72656164 		.ascii "read source file error.\0"
 6932      20736F75 
 6932      72636520 
 6932      66696C65 
 6932      20657272 
 6933 58f3 8DB60000 		.align 32
 6933      00008DBC 
 6933      27000000 
 6933      00
 6934              	LC220:
 6935 5900 23656E64 		.ascii "#endif //!defined(__MMI_RESOURCE_IMAGE_GROUP_COMPRESS__) || defined(__MMI_RESOURCE_UT_UNCO
 6935      6966202F 
 6935      2F216465 
 6935      66696E65 
 6935      64285F5F 
 6936              		.align 2
 6942              	.globl __Z22generate_img_data_fileP6_iobufPA1024_cii
 6944              	__Z22generate_img_data_fileP6_iobufPA1024_cii:
2405:mtk_resgenerator.cpp **** 
2406:mtk_resgenerator.cpp **** /*************************************************************************
2407:mtk_resgenerator.cpp **** * FUNCTION
2408:mtk_resgenerator.cpp **** *  generate_img_data_file
2409:mtk_resgenerator.cpp **** *
2410:mtk_resgenerator.cpp **** * DESCRIPTION
GAS LISTING d:/github/AIOT_WORKSHOP/AIoT_MT2503AVE_SDK/11CW1418SP4_03_CORETEK03AE_11C_V1_GPRS_MMI/plutommi/Customer/ResGenerator/gcctmp/ccmAfaaa.s 			page 140


2411:mtk_resgenerator.cpp **** *   get file header of data.h, we supporse that before "U8" line will be the
2412:mtk_resgenerator.cpp **** *   header line
2413:mtk_resgenerator.cpp **** *
2414:mtk_resgenerator.cpp **** * PARAMETERS
2415:mtk_resgenerator.cpp **** *   fp             :[IN]  one line data of data.h
2416:mtk_resgenerator.cpp **** *   header         :[IN]  we will put the header data in this array
2417:mtk_resgenerator.cpp **** *   header_count   :[IN]  this if total line numbers of header 
2418:mtk_resgenerator.cpp **** *   img_count      :[IN]  this if total line numbers of header 
2419:mtk_resgenerator.cpp **** *
2420:mtk_resgenerator.cpp **** * RETURNS
2421:mtk_resgenerator.cpp **** *   TRUE means current line is header line, FALSE means current line is not header line
2422:mtk_resgenerator.cpp **** *
2423:mtk_resgenerator.cpp **** *************************************************************************/
2424:mtk_resgenerator.cpp **** #ifndef RESGEN_IMG_SPLIT_OUTPUT_ROUND_ROBIN
2425:mtk_resgenerator.cpp **** bool generate_img_data_file(FILE* fp, BUFFER_HEADER header, int header_count, int img_count)
2426:mtk_resgenerator.cpp **** {
2427:mtk_resgenerator.cpp ****     static int count = 0;
2428:mtk_resgenerator.cpp ****     char buffer[2048];
2429:mtk_resgenerator.cpp ****     char *tmp_buff = NULL;
2430:mtk_resgenerator.cpp ****     FILE *out_fp = NULL;
2431:mtk_resgenerator.cpp ****     int fc = img_count/CUST_RES_FILE_COUNT + 1;
2432:mtk_resgenerator.cpp **** 
2433:mtk_resgenerator.cpp ****     if(fp == NULL)
2434:mtk_resgenerator.cpp ****     {
2435:mtk_resgenerator.cpp ****         return false;
2436:mtk_resgenerator.cpp ****     }
2437:mtk_resgenerator.cpp **** 
2438:mtk_resgenerator.cpp ****     for(int i = 0; i < header_count; ++i)
2439:mtk_resgenerator.cpp ****     {
2440:mtk_resgenerator.cpp ****         if(fgets(buffer, 2048, fp) == NULL)
2441:mtk_resgenerator.cpp ****         {
2442:mtk_resgenerator.cpp ****             RESGEN_LOG_E("generate file failed.");
2443:mtk_resgenerator.cpp ****             return false;
2444:mtk_resgenerator.cpp ****         }
2445:mtk_resgenerator.cpp ****     }
2446:mtk_resgenerator.cpp **** 
2447:mtk_resgenerator.cpp ****     while(!feof(fp))
2448:mtk_resgenerator.cpp ****     {
2449:mtk_resgenerator.cpp **** 
2450:mtk_resgenerator.cpp ****         if(fgets(buffer, 2048, fp) != NULL)
2451:mtk_resgenerator.cpp ****         {
2452:mtk_resgenerator.cpp ****             if(count % fc/*AVERAGE_IMG_NUMBER*/ == 0 && out_fp == NULL)
2453:mtk_resgenerator.cpp ****             {
2454:mtk_resgenerator.cpp ****                 /* 
2455:mtk_resgenerator.cpp ****                 * create output file, if create failed,
2456:mtk_resgenerator.cpp ****                 * we will return directly else we will write data into it
2457:mtk_resgenerator.cpp ****                 */
2458:mtk_resgenerator.cpp ****                 out_fp = fopen(output_file_name[count/fc/*AVERAGE_IMG_NUMBER*/], "w");
2459:mtk_resgenerator.cpp ****                 if(out_fp == NULL)
2460:mtk_resgenerator.cpp ****                 {
2461:mtk_resgenerator.cpp ****                     RESGEN_LOG_E("create data file \"%s\" failed.", output_file_name[count/fc/*AVER
2462:mtk_resgenerator.cpp ****                     return false;
2463:mtk_resgenerator.cpp ****                 }
2464:mtk_resgenerator.cpp **** 
2465:mtk_resgenerator.cpp ****                 fputs("#include \"CustDataRes.h\"\n", out_fp);
2466:mtk_resgenerator.cpp ****                 fputs("n#include \"ResCompressConfig.h\"\n\n", out_fp);
2467:mtk_resgenerator.cpp ****                 fputs("#if !defined(__MMI_RESOURCE_IMAGE_GROUP_COMPRESS__) || defined(__MMI_RESOURC
GAS LISTING d:/github/AIOT_WORKSHOP/AIoT_MT2503AVE_SDK/11CW1418SP4_03_CORETEK03AE_11C_V1_GPRS_MMI/plutommi/Customer/ResGenerator/gcctmp/ccmAfaaa.s 			page 141


2468:mtk_resgenerator.cpp ****                 /* write header information to new file */
2469:mtk_resgenerator.cpp ****                 for(int i = 0; i < header_count; ++i)
2470:mtk_resgenerator.cpp ****                 {
2471:mtk_resgenerator.cpp ****                     fputs(header[i], out_fp);
2472:mtk_resgenerator.cpp ****                 }
2473:mtk_resgenerator.cpp ****             }
2474:mtk_resgenerator.cpp ****             /* write data into dest file */
2475:mtk_resgenerator.cpp ****             fputs(buffer, out_fp);
2476:mtk_resgenerator.cpp **** 
2477:mtk_resgenerator.cpp ****             /* get count of image data*/
2478:mtk_resgenerator.cpp ****             if(strstr(buffer, "}") != NULL)
2479:mtk_resgenerator.cpp ****             {
2480:mtk_resgenerator.cpp ****                 count++;
2481:mtk_resgenerator.cpp ****                 if(count % fc/*AVERAGE_IMG_NUMBER*/ == 0)
2482:mtk_resgenerator.cpp ****                 {
2483:mtk_resgenerator.cpp ****                     /* reset the file handler */
2484:mtk_resgenerator.cpp ****                     if(out_fp != NULL)
2485:mtk_resgenerator.cpp ****                     {
2486:mtk_resgenerator.cpp ****                         fclose(out_fp);
2487:mtk_resgenerator.cpp ****                         out_fp = NULL;
2488:mtk_resgenerator.cpp ****                     }
2489:mtk_resgenerator.cpp **** 
2490:mtk_resgenerator.cpp ****                 }
2491:mtk_resgenerator.cpp ****             }
2492:mtk_resgenerator.cpp ****         }
2493:mtk_resgenerator.cpp ****         else
2494:mtk_resgenerator.cpp ****         {
2495:mtk_resgenerator.cpp ****             if(!feof(fp))
2496:mtk_resgenerator.cpp ****             {
2497:mtk_resgenerator.cpp ****                 RESGEN_LOG_E("read source file error.");
2498:mtk_resgenerator.cpp ****                 if(out_fp != NULL)
2499:mtk_resgenerator.cpp ****                 {
2500:mtk_resgenerator.cpp ****                     fclose(out_fp);
2501:mtk_resgenerator.cpp ****                     out_fp = NULL;
2502:mtk_resgenerator.cpp ****                 }
2503:mtk_resgenerator.cpp ****                 return false;
2504:mtk_resgenerator.cpp ****             }
2505:mtk_resgenerator.cpp ****         }
2506:mtk_resgenerator.cpp ****     }
2507:mtk_resgenerator.cpp **** 
2508:mtk_resgenerator.cpp ****     /* close the last file */
2509:mtk_resgenerator.cpp ****     if(out_fp != NULL)
2510:mtk_resgenerator.cpp ****     {
2511:mtk_resgenerator.cpp ****         fputs("#endif //!defined(__MMI_RESOURCE_IMAGE_GROUP_COMPRESS__) || defined(__MMI_RESOURCE_U
2512:mtk_resgenerator.cpp ****         fclose(out_fp);
2513:mtk_resgenerator.cpp ****         out_fp = NULL;
2514:mtk_resgenerator.cpp ****     }
2515:mtk_resgenerator.cpp **** 
2516:mtk_resgenerator.cpp ****     return true;
2517:mtk_resgenerator.cpp **** }
2518:mtk_resgenerator.cpp **** #else //RESGEN_IMG_SPLIT_OUTPUT_ROUND_ROBIN
2519:mtk_resgenerator.cpp **** bool generate_img_data_file(FILE* fp, BUFFER_HEADER header, int header_count, int img_count)
2520:mtk_resgenerator.cpp **** {
 6946              	LM424:
 6947 5976 55       		pushl	%ebp
 6948 5977 89E5     		movl	%esp, %ebp
 6949 5979 81EC6808 		subl	$2152, %esp
GAS LISTING d:/github/AIOT_WORKSHOP/AIoT_MT2503AVE_SDK/11CW1418SP4_03_CORETEK03AE_11C_V1_GPRS_MMI/plutommi/Customer/ResGenerator/gcctmp/ccmAfaaa.s 			page 142


 6949      0000
2521:mtk_resgenerator.cpp ****     static int count = 0;
2522:mtk_resgenerator.cpp ****     char buffer[2048];
2523:mtk_resgenerator.cpp ****     char *tmp_buff = NULL;
 6951              	LM425:
 6952              	LBB51:
 6953 597f C785F4F7 		movl	$0, -2060(%ebp)
 6953      FFFF0000 
 6953      0000
2524:mtk_resgenerator.cpp ****     FILE * out_file[CUST_RES_FILE_COUNT];
2525:mtk_resgenerator.cpp ****     FILE *out_fp = NULL;
 6955              	LM426:
 6956 5989 C785D4F7 		movl	$0, -2092(%ebp)
 6956      FFFF0000 
 6956      0000
2526:mtk_resgenerator.cpp ****     int fc = img_count/CUST_RES_FILE_COUNT + 1;
 6958              	LM427:
 6959 5993 8B4514   		movl	20(%ebp), %eax
 6960 5996 8985BCF7 		movl	%eax, -2116(%ebp)
 6960      FFFF
 6961 599c 83BDBCF7 		cmpl	$0, -2116(%ebp)
 6961      FFFF00
 6962 59a3 7907     		jns	L208
 6963 59a5 8385BCF7 		addl	$3, -2116(%ebp)
 6963      FFFF03
 6964              	L208:
 6965 59ac 8B85BCF7 		movl	-2116(%ebp), %eax
 6965      FFFF
 6966 59b2 C1F802   		sarl	$2, %eax
 6967 59b5 40       		incl	%eax
 6968 59b6 8985D0F7 		movl	%eax, -2096(%ebp)
 6968      FFFF
2527:mtk_resgenerator.cpp ****     bool result = true;
 6970              	LM428:
 6971 59bc C685CFF7 		movb	$1, -2097(%ebp)
 6971      FFFF01
2528:mtk_resgenerator.cpp **** 
2529:mtk_resgenerator.cpp ****     if(fp == NULL)
 6973              	LM429:
 6974 59c3 837D0800 		cmpl	$0, 8(%ebp)
 6975 59c7 750F     		jne	L209
2530:mtk_resgenerator.cpp ****     {
2531:mtk_resgenerator.cpp ****         return false;
 6977              	LM430:
 6978 59c9 C785C0F7 		movl	$0, -2112(%ebp)
 6978      FFFF0000 
 6978      0000
 6979 59d3 E9F90200 		jmp	L207
 6979      00
 6980              	L209:
2532:mtk_resgenerator.cpp ****     }
2533:mtk_resgenerator.cpp **** 
2534:mtk_resgenerator.cpp ****     // Check Header
2535:mtk_resgenerator.cpp ****     for(int i = 0; i < header_count; ++i)
 6982              	LM431:
 6983              	LBB52:
 6984 59d8 C785C8F7 		movl	$0, -2104(%ebp)
GAS LISTING d:/github/AIOT_WORKSHOP/AIoT_MT2503AVE_SDK/11CW1418SP4_03_CORETEK03AE_11C_V1_GPRS_MMI/plutommi/Customer/ResGenerator/gcctmp/ccmAfaaa.s 			page 143


 6984      FFFF0000 
 6984      0000
 6985              	L210:
 6986 59e2 8B85C8F7 		movl	-2104(%ebp), %eax
 6986      FFFF
 6987 59e8 3B4510   		cmpl	16(%ebp), %eax
 6988 59eb 7C02     		jl	L213
 6989 59ed EB56     		jmp	L211
 6990              	L213:
2536:mtk_resgenerator.cpp ****     {
2537:mtk_resgenerator.cpp ****         if(fgets(buffer, 2048, fp) == NULL)
 6992              	LM432:
 6993 59ef 8B4508   		movl	8(%ebp), %eax
 6994 59f2 89442408 		movl	%eax, 8(%esp)
 6995 59f6 C7442404 		movl	$2048, 4(%esp)
 6995      00080000 
 6996 59fe 8D85F8F7 		leal	-2056(%ebp), %eax
 6996      FFFF
 6997 5a04 890424   		movl	%eax, (%esp)
 6998 5a07 E8000000 		call	_fgets
 6998      00
 6999 5a0c 85C0     		testl	%eax, %eax
 7000 5a0e 752B     		jne	L212
2538:mtk_resgenerator.cpp ****         {
2539:mtk_resgenerator.cpp ****             RESGEN_LOG_E("generate file failed.");
 7002              	LM433:
 7003 5a10 C7442408 		movl	$LC216, 8(%esp)
 7003      A5580000 
 7004 5a18 C7442404 		movl	$LC1, 4(%esp)
 7004      3E000000 
 7005 5a20 C7042403 		movl	$3, (%esp)
 7005      000000
 7006 5a27 E8000000 		call	_reslog_adaptor_log
 7006      00
2540:mtk_resgenerator.cpp ****             return false;
 7008              	LM434:
 7009 5a2c C785C0F7 		movl	$0, -2112(%ebp)
 7009      FFFF0000 
 7009      0000
 7010 5a36 E9960200 		jmp	L207
 7010      00
 7012              	LM435:
 7013              	L212:
 7014 5a3b 8D85C8F7 		leal	-2104(%ebp), %eax
 7014      FFFF
 7015 5a41 FF00     		incl	(%eax)
 7016 5a43 EB9D     		jmp	L210
 7017              	L211:
2541:mtk_resgenerator.cpp ****         }
2542:mtk_resgenerator.cpp ****     }
2543:mtk_resgenerator.cpp **** 
2544:mtk_resgenerator.cpp ****     // Write Header if this is the first input for this file.
2545:mtk_resgenerator.cpp ****     for(int i = 0 ;i < CUST_RES_FILE_COUNT ;i++){
 7019              	LM436:
 7020              	LBE52:
 7021              	LBB53:
 7022 5a45 C785C8F7 		movl	$0, -2104(%ebp)
GAS LISTING d:/github/AIOT_WORKSHOP/AIoT_MT2503AVE_SDK/11CW1418SP4_03_CORETEK03AE_11C_V1_GPRS_MMI/plutommi/Customer/ResGenerator/gcctmp/ccmAfaaa.s 			page 144


 7022      FFFF0000 
 7022      0000
 7023              	L215:
 7024 5a4f 83BDC8F7 		cmpl	$3, -2104(%ebp)
 7024      FFFF03
 7025 5a56 7E05     		jle	L218
 7026 5a58 E9030100 		jmp	L225
 7026      00
 7027              	L218:
2546:mtk_resgenerator.cpp ****         out_fp = fopen(output_file_name[i], "w");
 7029              	LM437:
 7030              	LBB54:
 7031              	LBB55:
 7032 5a5d C7442404 		movl	$LC2, 4(%esp)
 7032      4F000000 
 7033 5a65 8B85C8F7 		movl	-2104(%ebp), %eax
 7033      FFFF
 7034 5a6b 8B048500 		movl	_output_file_name(,%eax,4), %eax
 7034      000000
 7035 5a72 890424   		movl	%eax, (%esp)
 7036 5a75 E8000000 		call	_fopen
 7036      00
 7037 5a7a 8985D4F7 		movl	%eax, -2092(%ebp)
 7037      FFFF
2547:mtk_resgenerator.cpp ****         fputs("#include \"CustDataRes.h\"\n", out_fp);
 7039              	LM438:
 7040 5a80 8B85D4F7 		movl	-2092(%ebp), %eax
 7040      FFFF
 7041 5a86 89442404 		movl	%eax, 4(%esp)
 7042 5a8a C704242A 		movl	$LC51, (%esp)
 7042      180000
 7043 5a91 E8000000 		call	_fputs
 7043      00
2548:mtk_resgenerator.cpp ****         fputs("\n#include \"ResCompressConfig.h\"\n\n", out_fp);
 7045              	LM439:
 7046 5a96 8B85D4F7 		movl	-2092(%ebp), %eax
 7046      FFFF
 7047 5a9c 89442404 		movl	%eax, 4(%esp)
 7048 5aa0 C7042440 		movl	$LC61, (%esp)
 7048      1A0000
 7049 5aa7 E8000000 		call	_fputs
 7049      00
2549:mtk_resgenerator.cpp ****         fputs("#if !defined(__MMI_RESOURCE_IMAGE_GROUP_COMPRESS__) || defined(__MMI_RESOURCE_UT_UNC
 7051              	LM440:
 7052 5aac 8B85D4F7 		movl	-2092(%ebp), %eax
 7052      FFFF
 7053 5ab2 89442404 		movl	%eax, 4(%esp)
 7054 5ab6 C7042480 		movl	$LC63, (%esp)
 7054      1A0000
 7055 5abd E8000000 		call	_fputs
 7055      00
2550:mtk_resgenerator.cpp **** 
2551:mtk_resgenerator.cpp ****         if(out_fp != NULL){
 7057              	LM441:
 7058              	LBB56:
 7059 5ac2 83BDD4F7 		cmpl	$0, -2092(%ebp)
 7059      FFFF00
GAS LISTING d:/github/AIOT_WORKSHOP/AIoT_MT2503AVE_SDK/11CW1418SP4_03_CORETEK03AE_11C_V1_GPRS_MMI/plutommi/Customer/ResGenerator/gcctmp/ccmAfaaa.s 			page 145


 7060 5ac9 7454     		je	L219
2552:mtk_resgenerator.cpp ****             for(int j = 0; j < header_count; j++){
 7062              	LM442:
 7063              	LBB57:
 7064              	LBB58:
 7065 5acb C785C4F7 		movl	$0, -2108(%ebp)
 7065      FFFF0000 
 7065      0000
 7066              	L220:
 7067 5ad5 8B85C4F7 		movl	-2108(%ebp), %eax
 7067      FFFF
 7068 5adb 3B4510   		cmpl	16(%ebp), %eax
 7069 5ade 7C02     		jl	L223
 7070 5ae0 EB28     		jmp	L221
 7071              	L223:
2553:mtk_resgenerator.cpp ****                 fputs(header[j], out_fp);
 7073              	LM443:
 7074 5ae2 8B85D4F7 		movl	-2092(%ebp), %eax
 7074      FFFF
 7075 5ae8 89442404 		movl	%eax, 4(%esp)
 7076 5aec 8B85C4F7 		movl	-2108(%ebp), %eax
 7076      FFFF
 7077 5af2 C1E00A   		sall	$10, %eax
 7078 5af5 03450C   		addl	12(%ebp), %eax
 7079 5af8 890424   		movl	%eax, (%esp)
 7080 5afb E8000000 		call	_fputs
 7080      00
 7082              	LM444:
 7083 5b00 8D85C4F7 		leal	-2108(%ebp), %eax
 7083      FFFF
 7084 5b06 FF00     		incl	(%eax)
 7085 5b08 EBCB     		jmp	L220
 7086              	L221:
2554:mtk_resgenerator.cpp ****             }
2555:mtk_resgenerator.cpp ****             // Save the file descriptor 
2556:mtk_resgenerator.cpp ****             out_file[i] = out_fp; 
 7088              	LM445:
 7089              	LBE58:
 7090 5b0a 8B95C8F7 		movl	-2104(%ebp), %edx
 7090      FFFF
 7091 5b10 8B85D4F7 		movl	-2092(%ebp), %eax
 7091      FFFF
 7092 5b16 898495D8 		movl	%eax, -2088(%ebp,%edx,4)
 7092      F7FFFF
 7093              	LBE57:
 7094 5b1d EB34     		jmp	L217
 7095              	L219:
2557:mtk_resgenerator.cpp ****         }else{
2558:mtk_resgenerator.cpp ****             RESGEN_LOG_E("create data file \"%s\" failed.", output_file_name[i]);
 7097              	LM446:
 7098 5b1f 8B85C8F7 		movl	-2104(%ebp), %eax
 7098      FFFF
 7099 5b25 8B048500 		movl	_output_file_name(,%eax,4), %eax
 7099      000000
 7100 5b2c 8944240C 		movl	%eax, 12(%esp)
 7101 5b30 C7442408 		movl	$LC217, 8(%esp)
 7101      BB580000 
GAS LISTING d:/github/AIOT_WORKSHOP/AIoT_MT2503AVE_SDK/11CW1418SP4_03_CORETEK03AE_11C_V1_GPRS_MMI/plutommi/Customer/ResGenerator/gcctmp/ccmAfaaa.s 			page 146


 7102 5b38 C7442404 		movl	$LC1, 4(%esp)
 7102      3E000000 
 7103 5b40 C7042403 		movl	$3, (%esp)
 7103      000000
 7104 5b47 E8000000 		call	_reslog_adaptor_log
 7104      00
2559:mtk_resgenerator.cpp ****             result = false;
 7106              	LM447:
 7107 5b4c C685CFF7 		movb	$0, -2097(%ebp)
 7107      FFFF00
 7109              	LM448:
 7110              	L217:
 7111 5b53 8D85C8F7 		leal	-2104(%ebp), %eax
 7111      FFFF
 7112              	LBE56:
 7113              	LBE55:
 7114              	LBE54:
 7115 5b59 FF00     		incl	(%eax)
 7116 5b5b E9EFFEFF 		jmp	L215
 7116      FF
2560:mtk_resgenerator.cpp ****         }
2561:mtk_resgenerator.cpp ****     }
2562:mtk_resgenerator.cpp **** 
2563:mtk_resgenerator.cpp ****     while(!feof(fp) && result != false)
 7118              	LM449:
 7119              	L225:
 7120              	LBE53:
 7121 5b60 8B4508   		movl	8(%ebp), %eax
 7122 5b63 890424   		movl	%eax, (%esp)
 7123 5b66 E8000000 		call	_feof
 7123      00
 7124 5b6b 85C0     		testl	%eax, %eax
 7125 5b6d 0F85F000 		jne	L226
 7125      0000
 7126 5b73 80BDCFF7 		cmpb	$0, -2097(%ebp)
 7126      FFFF00
 7127 5b7a 7505     		jne	L227
 7128 5b7c E9E20000 		jmp	L226
 7128      00
 7129              	L227:
2564:mtk_resgenerator.cpp ****     {
2565:mtk_resgenerator.cpp ****         out_fp = out_file[count % CUST_RES_FILE_COUNT];
 7131              	LM450:
 7132 5b81 A1380000 		movl	_ZZ22generate_img_data_fileP6_iobufPA1024_ciiE5count, %eax
 7132      00
 7133 5b86 8985B8F7 		movl	%eax, -2120(%ebp)
 7133      FFFF
 7134 5b8c 8B95B8F7 		movl	-2120(%ebp), %edx
 7134      FFFF
 7135 5b92 8995B4F7 		movl	%edx, -2124(%ebp)
 7135      FFFF
 7136 5b98 83BDB4F7 		cmpl	$0, -2124(%ebp)
 7136      FFFF00
 7137 5b9f 7907     		jns	L229
 7138 5ba1 8385B4F7 		addl	$3, -2124(%ebp)
 7138      FFFF03
 7139              	L229:
GAS LISTING d:/github/AIOT_WORKSHOP/AIoT_MT2503AVE_SDK/11CW1418SP4_03_CORETEK03AE_11C_V1_GPRS_MMI/plutommi/Customer/ResGenerator/gcctmp/ccmAfaaa.s 			page 147


 7140 5ba8 8B85B4F7 		movl	-2124(%ebp), %eax
 7140      FFFF
 7141 5bae C1F802   		sarl	$2, %eax
 7142 5bb1 C1E002   		sall	$2, %eax
 7143 5bb4 8B95B8F7 		movl	-2120(%ebp), %edx
 7143      FFFF
 7144 5bba 29C2     		subl	%eax, %edx
 7145 5bbc 89D0     		movl	%edx, %eax
 7146 5bbe 8B8485D8 		movl	-2088(%ebp,%eax,4), %eax
 7146      F7FFFF
 7147 5bc5 8985D4F7 		movl	%eax, -2092(%ebp)
 7147      FFFF
2566:mtk_resgenerator.cpp **** 
2567:mtk_resgenerator.cpp ****         if(fgets(buffer, 2048, fp) != NULL)
 7149              	LM451:
 7150 5bcb 8B4508   		movl	8(%ebp), %eax
 7151 5bce 89442408 		movl	%eax, 8(%esp)
 7152 5bd2 C7442404 		movl	$2048, 4(%esp)
 7152      00080000 
 7153 5bda 8D85F8F7 		leal	-2056(%ebp), %eax
 7153      FFFF
 7154 5be0 890424   		movl	%eax, (%esp)
 7155 5be3 E8000000 		call	_fgets
 7155      00
 7156 5be8 85C0     		testl	%eax, %eax
 7157 5bea 7441     		je	L230
2568:mtk_resgenerator.cpp ****         {
2569:mtk_resgenerator.cpp ****             /* write data into dest file */
2570:mtk_resgenerator.cpp ****             fputs(buffer, out_fp);
 7159              	LM452:
 7160 5bec 8B85D4F7 		movl	-2092(%ebp), %eax
 7160      FFFF
 7161 5bf2 89442404 		movl	%eax, 4(%esp)
 7162 5bf6 8D85F8F7 		leal	-2056(%ebp), %eax
 7162      FFFF
 7163 5bfc 890424   		movl	%eax, (%esp)
 7164 5bff E8000000 		call	_fputs
 7164      00
2571:mtk_resgenerator.cpp **** 
2572:mtk_resgenerator.cpp ****             /* get count of image data*/
2573:mtk_resgenerator.cpp ****             if(strstr(buffer, "}") != NULL)
 7166              	LM453:
 7167 5c04 C7442404 		movl	$LC218, 4(%esp)
 7167      D9580000 
 7168 5c0c 8D85F8F7 		leal	-2056(%ebp), %eax
 7168      FFFF
 7169 5c12 890424   		movl	%eax, (%esp)
 7170 5c15 E8000000 		call	__ZSt6strstrPcPKc
 7170      00
 7171 5c1a 85C0     		testl	%eax, %eax
 7172 5c1c 0F843EFF 		je	L225
 7172      FFFF
2574:mtk_resgenerator.cpp ****             {
2575:mtk_resgenerator.cpp ****                 count++;
 7174              	LM454:
 7175 5c22 FF053800 		incl	_ZZ22generate_img_data_fileP6_iobufPA1024_ciiE5count
 7175      0000
GAS LISTING d:/github/AIOT_WORKSHOP/AIoT_MT2503AVE_SDK/11CW1418SP4_03_CORETEK03AE_11C_V1_GPRS_MMI/plutommi/Customer/ResGenerator/gcctmp/ccmAfaaa.s 			page 148


 7176 5c28 E933FFFF 		jmp	L225
 7176      FF
 7177              	L230:
2576:mtk_resgenerator.cpp ****             }
2577:mtk_resgenerator.cpp ****         }
2578:mtk_resgenerator.cpp ****         else
2579:mtk_resgenerator.cpp ****         {
2580:mtk_resgenerator.cpp ****             if(!feof(fp))
 7179              	LM455:
 7180 5c2d 8B4508   		movl	8(%ebp), %eax
 7181 5c30 890424   		movl	%eax, (%esp)
 7182 5c33 E8000000 		call	_feof
 7182      00
 7183 5c38 85C0     		testl	%eax, %eax
 7184 5c3a 0F8520FF 		jne	L225
 7184      FFFF
2581:mtk_resgenerator.cpp ****             {
2582:mtk_resgenerator.cpp ****                 RESGEN_LOG_E("read source file error.");
 7186              	LM456:
 7187 5c40 C7442408 		movl	$LC219, 8(%esp)
 7187      DB580000 
 7188 5c48 C7442404 		movl	$LC1, 4(%esp)
 7188      3E000000 
 7189 5c50 C7042403 		movl	$3, (%esp)
 7189      000000
 7190 5c57 E8000000 		call	_reslog_adaptor_log
 7190      00
2583:mtk_resgenerator.cpp ****                 result= false;
 7192              	LM457:
 7193 5c5c C685CFF7 		movb	$0, -2097(%ebp)
 7193      FFFF00
 7194              	L226:
2584:mtk_resgenerator.cpp ****                 break;
2585:mtk_resgenerator.cpp ****             }
2586:mtk_resgenerator.cpp ****         }
2587:mtk_resgenerator.cpp ****     }
2588:mtk_resgenerator.cpp **** 
2589:mtk_resgenerator.cpp ****     for(int i = 0; i< CUST_RES_FILE_COUNT; i++){
 7196              	LM458:
 7197              	LBB59:
 7198 5c63 C785C4F7 		movl	$0, -2108(%ebp)
 7198      FFFF0000 
 7198      0000
 7199              	L234:
 7200 5c6d 83BDC4F7 		cmpl	$3, -2108(%ebp)
 7200      FFFF03
 7201 5c74 7E02     		jle	L237
 7202 5c76 EB4C     		jmp	L235
 7203              	L237:
2590:mtk_resgenerator.cpp ****         /* close the files */
2591:mtk_resgenerator.cpp ****         if( out_file[i] != NULL)
 7205              	LM459:
 7206 5c78 8B85C4F7 		movl	-2108(%ebp), %eax
 7206      FFFF
 7207 5c7e 83BC85D8 		cmpl	$0, -2088(%ebp,%eax,4)
 7207      F7FFFF00 
 7208 5c86 7432     		je	L236
GAS LISTING d:/github/AIOT_WORKSHOP/AIoT_MT2503AVE_SDK/11CW1418SP4_03_CORETEK03AE_11C_V1_GPRS_MMI/plutommi/Customer/ResGenerator/gcctmp/ccmAfaaa.s 			page 149


2592:mtk_resgenerator.cpp ****         {
2593:mtk_resgenerator.cpp ****             fputs("#endif //!defined(__MMI_RESOURCE_IMAGE_GROUP_COMPRESS__) || defined(__MMI_RESOUR
 7210              	LM460:
 7211 5c88 8B85C4F7 		movl	-2108(%ebp), %eax
 7211      FFFF
 7212 5c8e 8B8485D8 		movl	-2088(%ebp,%eax,4), %eax
 7212      F7FFFF
 7213 5c95 89442404 		movl	%eax, 4(%esp)
 7214 5c99 C7042400 		movl	$LC220, (%esp)
 7214      590000
 7215 5ca0 E8000000 		call	_fputs
 7215      00
2594:mtk_resgenerator.cpp ****             fclose( out_file[i]);
 7217              	LM461:
 7218 5ca5 8B85C4F7 		movl	-2108(%ebp), %eax
 7218      FFFF
 7219 5cab 8B8485D8 		movl	-2088(%ebp,%eax,4), %eax
 7219      F7FFFF
 7220 5cb2 890424   		movl	%eax, (%esp)
 7221 5cb5 E8000000 		call	_fclose
 7221      00
 7223              	LM462:
 7224              	L236:
 7225 5cba 8D85C4F7 		leal	-2108(%ebp), %eax
 7225      FFFF
 7226 5cc0 FF00     		incl	(%eax)
 7227 5cc2 EBA9     		jmp	L234
 7228              	L235:
2595:mtk_resgenerator.cpp ****         }
2596:mtk_resgenerator.cpp ****     }
2597:mtk_resgenerator.cpp **** 
2598:mtk_resgenerator.cpp ****     return result;
 7230              	LM463:
 7231              	LBE59:
 7232 5cc4 0FB685CF 		movzbl	-2097(%ebp), %eax
 7232      F7FFFF
 7233 5ccb 8985C0F7 		movl	%eax, -2112(%ebp)
 7233      FFFF
2599:mtk_resgenerator.cpp **** }
 7235              	LM464:
 7236              	L207:
 7237              	LBE51:
 7238 5cd1 8B85C0F7 		movl	-2112(%ebp), %eax
 7238      FFFF
 7239 5cd7 C9       		leave
 7240 5cd8 C3       		ret
 7262              	Lscope23:
 7264              	.lcomm _ZZ13get_img_countP6_iobufE9const_num,16
 7265              	LC221:
 7266 5cd9 67657420 		.ascii "get image count failed, L=%d\12\0"
 7266      696D6167 
 7266      6520636F 
 7266      756E7420 
 7266      6661696C 
 7267 5cf7 90       		.align 2
 7270              	.globl __Z13get_img_countP6_iobuf
 7272              	__Z13get_img_countP6_iobuf:
GAS LISTING d:/github/AIOT_WORKSHOP/AIoT_MT2503AVE_SDK/11CW1418SP4_03_CORETEK03AE_11C_V1_GPRS_MMI/plutommi/Customer/ResGenerator/gcctmp/ccmAfaaa.s 			page 150


2600:mtk_resgenerator.cpp **** #endif ////RESGEN_IMG_SPLIT_OUTPUT_ROUND_ROBIN
2601:mtk_resgenerator.cpp **** 
2602:mtk_resgenerator.cpp **** int get_img_count(FILE *fp)
2603:mtk_resgenerator.cpp **** {
 7274              	LM465:
 7275 5cf8 55       		pushl	%ebp
 7276 5cf9 89E5     		movl	%esp, %ebp
 7277 5cfb 81EC2804 		subl	$1064, %esp
 7277      0000
2604:mtk_resgenerator.cpp ****     char buffer[1024];
2605:mtk_resgenerator.cpp ****     static int const_num = 0;
2606:mtk_resgenerator.cpp **** 
2607:mtk_resgenerator.cpp ****     if(fp == NULL)
 7279              	LM466:
 7280              	LBB60:
 7281 5d01 837D0800 		cmpl	$0, 8(%ebp)
 7282 5d05 750F     		jne	L240
2608:mtk_resgenerator.cpp ****         return -1;
 7284              	LM467:
 7285 5d07 C785F4FB 		movl	$-1, -1036(%ebp)
 7285      FFFFFFFF 
 7285      FFFF
 7286 5d11 E98C0000 		jmp	L239
 7286      00
 7287              	L240:
 7288 5d16 90       		nop
2609:mtk_resgenerator.cpp **** 
2610:mtk_resgenerator.cpp ****     while(!feof(fp))
 7290              	LM468:
 7291              	L241:
 7292 5d17 8B4508   		movl	8(%ebp), %eax
 7293 5d1a 890424   		movl	%eax, (%esp)
 7294 5d1d E8000000 		call	_feof
 7294      00
 7295 5d22 85C0     		testl	%eax, %eax
 7296 5d24 7402     		je	L243
 7297 5d26 EB6F     		jmp	L242
 7298              	L243:
2611:mtk_resgenerator.cpp ****     {
2612:mtk_resgenerator.cpp ****         if((fgets(buffer, 1024, fp) != NULL))
 7300              	LM469:
 7301 5d28 8B4508   		movl	8(%ebp), %eax
 7302 5d2b 89442408 		movl	%eax, 8(%esp)
 7303 5d2f C7442404 		movl	$1024, 4(%esp)
 7303      00040000 
 7304 5d37 8D85F8FB 		leal	-1032(%ebp), %eax
 7304      FFFF
 7305 5d3d 890424   		movl	%eax, (%esp)
 7306 5d40 E8000000 		call	_fgets
 7306      00
 7307 5d45 85C0     		testl	%eax, %eax
 7308 5d47 7422     		je	L244
2613:mtk_resgenerator.cpp ****         {
2614:mtk_resgenerator.cpp ****             if(strstr(buffer, "U8") != NULL)
 7310              	LM470:
 7311 5d49 C7442404 		movl	$LC215, 4(%esp)
 7311      34580000 
GAS LISTING d:/github/AIOT_WORKSHOP/AIoT_MT2503AVE_SDK/11CW1418SP4_03_CORETEK03AE_11C_V1_GPRS_MMI/plutommi/Customer/ResGenerator/gcctmp/ccmAfaaa.s 			page 151


 7312 5d51 8D85F8FB 		leal	-1032(%ebp), %eax
 7312      FFFF
 7313 5d57 890424   		movl	%eax, (%esp)
 7314 5d5a E8000000 		call	__ZSt6strstrPcPKc
 7314      00
 7315 5d5f 85C0     		testl	%eax, %eax
 7316 5d61 74B4     		je	L241
2615:mtk_resgenerator.cpp ****             {
2616:mtk_resgenerator.cpp ****                 const_num++;
 7318              	LM471:
 7319 5d63 FF054800 		incl	_ZZ13get_img_countP6_iobufE9const_num
 7319      0000
 7320 5d69 EBAC     		jmp	L241
 7321              	L244:
2617:mtk_resgenerator.cpp ****             }
2618:mtk_resgenerator.cpp ****         }
2619:mtk_resgenerator.cpp ****         else
2620:mtk_resgenerator.cpp ****         {
2621:mtk_resgenerator.cpp ****             fprintf(stderr, "get image count failed, L=%d\n", __LINE__);
 7323              	LM472:
 7324 5d6b C7442408 		movl	$2621, 8(%esp)
 7324      3D0A0000 
 7325 5d73 C7442404 		movl	$LC221, 4(%esp)
 7325      D95C0000 
 7326 5d7b A1000000 		movl	__imp___iob, %eax
 7326      00
 7327 5d80 83C040   		addl	$64, %eax
 7328 5d83 890424   		movl	%eax, (%esp)
 7329 5d86 E8000000 		call	_fprintf
 7329      00
2622:mtk_resgenerator.cpp ****             return -1;
 7331              	LM473:
 7332 5d8b C785F4FB 		movl	$-1, -1036(%ebp)
 7332      FFFFFFFF 
 7332      FFFF
 7333 5d95 EB0B     		jmp	L239
 7334              	L242:
2623:mtk_resgenerator.cpp ****         }
2624:mtk_resgenerator.cpp **** 
2625:mtk_resgenerator.cpp ****     }
2626:mtk_resgenerator.cpp **** 
2627:mtk_resgenerator.cpp ****     return const_num;
 7336              	LM474:
 7337 5d97 A1480000 		movl	_ZZ13get_img_countP6_iobufE9const_num, %eax
 7337      00
 7338 5d9c 8985F4FB 		movl	%eax, -1036(%ebp)
 7338      FFFF
2628:mtk_resgenerator.cpp **** }
 7340              	LM475:
 7341              	L239:
 7342              	LBE60:
 7343 5da2 8B85F4FB 		movl	-1036(%ebp), %eax
 7343      FFFF
 7344 5da8 C9       		leave
 7345 5da9 C3       		ret
 7350              	Lscope24:
 7352 5daa 90909090 		.align 32
GAS LISTING d:/github/AIOT_WORKSHOP/AIoT_MT2503AVE_SDK/11CW1418SP4_03_CORETEK03AE_11C_V1_GPRS_MMI/plutommi/Customer/ResGenerator/gcctmp/ccmAfaaa.s 			page 152


 7352      90909090 
 7352      90909090 
 7352      90909090 
 7352      90909090 
 7353              	LC222:
 7354 5dc0 73706C69 		.ascii "split_img_data_file(): split custimgdatahw.h into CustImgDataRes_[0..3]\0"
 7354      745F696D 
 7354      675F6461 
 7354      74615F66 
 7354      696C6528 
 7355              	LC223:
 7356 5e08 7200     		.ascii "r\0"
 7357 5e0a 90909090 		.align 32
 7357      90909090 
 7357      90909090 
 7357      90909090 
 7357      90909090 
 7358              	LC224:
 7359 5e20 2E2E5C2E 		.ascii "..\\..\\customer\\custresource\\custimgdatahw.h\0"
 7359      2E5C6375 
 7359      73746F6D 
 7359      65725C63 
 7359      75737472 
 7360 5e4c 90909090 		.align 32
 7360      90909090 
 7360      90909090 
 7360      90909090 
 7360      90909090 
 7361              	LC225:
 7362 5e60 53504C49 		.ascii "SPLIT:can not open file: custimgdatahw.h\12\0"
 7362      543A6361 
 7362      6E206E6F 
 7362      74206F70 
 7362      656E2066 
 7363              	LC226:
 7364 5e8a 772B00   		.ascii "w+\0"
 7365 5e8d 90909090 		.align 32
 7365      90909090 
 7365      90909090 
 7365      90909090 
 7365      909090
 7366              	LC227:
 7367 5ea0 2E2E5C2E 		.ascii "..\\..\\customer\\custresource\\tmp_imgdata.h\0"
 7367      2E5C6375 
 7367      73746F6D 
 7367      65725C63 
 7367      75737472 
 7368 5eca 90909090 		.align 32
 7368      90909090 
 7368      90909090 
 7368      90909090 
 7368      90909090 
 7369              	LC228:
 7370 5ee0 53504C49 		.ascii "SPLIT:can not open file: tmp_imgdata.h\12\0"
 7370      543A6361 
 7370      6E206E6F 
 7370      74206F70 
GAS LISTING d:/github/AIOT_WORKSHOP/AIoT_MT2503AVE_SDK/11CW1418SP4_03_CORETEK03AE_11C_V1_GPRS_MMI/plutommi/Customer/ResGenerator/gcctmp/ccmAfaaa.s 			page 153


 7370      656E2066 
 7371 5f08 90909090 		.align 32
 7371      90909090 
 7371      90909090 
 7371      90909090 
 7371      90909090 
 7372              	LC229:
 7373 5f20 2369666E 		.ascii "#ifndef __CUST_IMG_DATA_HW_H_\12\0"
 7373      64656620 
 7373      5F5F4355 
 7373      53545F49 
 7373      4D475F44 
 7374 5f3f 90       		.align 32
 7375              	LC230:
 7376 5f40 23646566 		.ascii "#define __CUST_IMG_DATA_HW_H_\12\0"
 7376      696E6520 
 7376      5F5F4355 
 7376      53545F49 
 7376      4D475F44 
 7377 5f5f 90       		.align 32
 7378              	LC231:
 7379 5f60 23696E63 		.ascii "#include \"CustDataRes.h\"\12#include \"ResCompressConfig.h\"\12\12\0"
 7379      6C756465 
 7379      20224375 
 7379      73744461 
 7379      74615265 
 7380 5f9a 8DB60000 		.align 32
 7380      0000
 7381              	LC232:
 7382 5fa0 23656E64 		.ascii "#endif // !defined(__MMI_RESOURCE_IMAGE_GROUP_COMPRESS__) || defined(__MMI_RESOURCE_UT_UNC
 7382      6966202F 
 7382      2F202164 
 7382      6566696E 
 7382      6564285F 
 7383 6017 89F68DBC 		.align 32
 7383      27000000 
 7383      00
 7384              	LC233:
 7385 6020 23656E64 		.ascii "#endif /* __CUST_IMG_DATA_HW_H_ */\0"
 7385      6966202F 
 7385      2A205F5F 
 7385      43555354 
 7385      5F494D47 
 7386              	LC234:
 7387 6043 73706C69 		.ascii "split file failed, Line=%d\0"
 7387      74206669 
 7387      6C652066 
 7387      61696C65 
 7387      642C204C 
 7388              	LC235:
 7389 605e 73706C69 		.ascii "split file successfully!!\12\0"
 7389      74206669 
 7389      6C652073 
 7389      75636365 
 7389      73736675 
 7390 6079 8DB42600 		.align 32
 7390      000000
GAS LISTING d:/github/AIOT_WORKSHOP/AIoT_MT2503AVE_SDK/11CW1418SP4_03_CORETEK03AE_11C_V1_GPRS_MMI/plutommi/Customer/ResGenerator/gcctmp/ccmAfaaa.s 			page 154


 7391              	LC236:
 7392 6080 67656E65 		.ascii "generate image data file failed. %d\0"
 7392      72617465 
 7392      20696D61 
 7392      67652064 
 7392      61746120 
 7393 60a4 90909090 		.align 32
 7393      90909090 
 7393      90909090 
 7393      90909090 
 7393      90909090 
 7394              	LC237:
 7395 60c0 2E2E5C2E 		.ascii "..\\..\\customer\\custresource\\custimgdatahwBak.h\0"
 7395      2E5C6375 
 7395      73746F6D 
 7395      65725C63 
 7395      75737472 
 7396              	LC238:
 7397 60ef 64656C20 		.ascii "del %s\0"
 7397      257300
 7398              	LC239:
 7399 60f6 72656E61 		.ascii "rename %s custimgdatahwBak.h\0"
 7399      6D652025 
 7399      73206375 
 7399      7374696D 
 7399      67646174 
 7400              	LC240:
 7401 6113 72656E61 		.ascii "rename %s custimgdatahw.h\0"
 7401      6D652025 
 7401      73206375 
 7401      7374696D 
 7401      67646174 
 7402 612d 90       		.align 2
 7404              	.globl __Z19split_img_data_filev
 7406              	__Z19split_img_data_filev:
2629:mtk_resgenerator.cpp **** 
2630:mtk_resgenerator.cpp **** bool split_img_data_file()
2631:mtk_resgenerator.cpp **** {   
 7408              	LM476:
 7409 612e 55       		pushl	%ebp
 7410 612f 89E5     		movl	%esp, %ebp
 7411 6131 81EC4808 		subl	$2120, %esp
 7411      0000
2632:mtk_resgenerator.cpp ****     FILE *fp = NULL;
 7413              	LM477:
 7414              	LBB61:
 7415 6137 C745F400 		movl	$0, -12(%ebp)
 7415      000000
2633:mtk_resgenerator.cpp ****     FILE *wfp = NULL;
 7417              	LM478:
 7418 613e C745F000 		movl	$0, -16(%ebp)
 7418      000000
2634:mtk_resgenerator.cpp ****     int header_num = 0;
 7420              	LM479:
 7421 6145 C745EC00 		movl	$0, -20(%ebp)
 7421      000000
2635:mtk_resgenerator.cpp ****     char buffer[2048];
GAS LISTING d:/github/AIOT_WORKSHOP/AIoT_MT2503AVE_SDK/11CW1418SP4_03_CORETEK03AE_11C_V1_GPRS_MMI/plutommi/Customer/ResGenerator/gcctmp/ccmAfaaa.s 			page 155


2636:mtk_resgenerator.cpp ****     char *tmp_buff = NULL;
 7423              	LM480:
 7424 614c C785E4F7 		movl	$0, -2076(%ebp)
 7424      FFFF0000 
 7424      0000
2637:mtk_resgenerator.cpp ****     int len = strlen(REP_HEADER);
 7426              	LM481:
 7427 6156 C7042473 		movl	$_REP_HEADER, (%esp)
 7427      890000
 7428 615d E8000000 		call	_strlen
 7428      00
 7429 6162 8985E0F7 		movl	%eax, -2080(%ebp)
 7429      FFFF
2638:mtk_resgenerator.cpp ****     int img_count = -1;
 7431              	LM482:
 7432 6168 C785DCF7 		movl	$-1, -2084(%ebp)
 7432      FFFFFFFF 
 7432      FFFF
2639:mtk_resgenerator.cpp **** 
2640:mtk_resgenerator.cpp ****     bool bjump = false;
 7434              	LM483:
 7435 6172 C685DBF7 		movb	$0, -2085(%ebp)
 7435      FFFF00
2641:mtk_resgenerator.cpp **** 
2642:mtk_resgenerator.cpp ****     /* record header of split file:datahw.h */
2643:mtk_resgenerator.cpp ****     BUFFER_HEADER hp = NULL;
 7437              	LM484:
 7438 6179 C785D4F7 		movl	$0, -2092(%ebp)
 7438      FFFF0000 
 7438      0000
2644:mtk_resgenerator.cpp ****     RESGEN_LOG_V("split_img_data_file(): split custimgdatahw.h into CustImgDataRes_[0..3]");
 7440              	LM485:
 7441 6183 C7442408 		movl	$LC222, 8(%esp)
 7441      C05D0000 
 7442 618b C7442404 		movl	$LC1, 4(%esp)
 7442      3E000000 
 7443 6193 C7042401 		movl	$1, (%esp)
 7443      000000
 7444 619a E8000000 		call	_reslog_adaptor_log
 7444      00
2645:mtk_resgenerator.cpp ****     hp = (char(*)[1024]) malloc(32 * sizeof(char) * 1024);
 7446              	LM486:
 7447 619f C7042400 		movl	$32768, (%esp)
 7447      800000
 7448 61a6 E8000000 		call	_malloc
 7448      00
 7449 61ab 8985D4F7 		movl	%eax, -2092(%ebp)
 7449      FFFF
2646:mtk_resgenerator.cpp **** 
2647:mtk_resgenerator.cpp ****     fp = fopen(CUST_IMG_DATA_FILE, "r");
 7451              	LM487:
 7452 61b1 C7442404 		movl	$LC223, 4(%esp)
 7452      085E0000 
 7453 61b9 C7042420 		movl	$LC224, (%esp)
 7453      5E0000
 7454 61c0 E8000000 		call	_fopen
 7454      00
GAS LISTING d:/github/AIOT_WORKSHOP/AIoT_MT2503AVE_SDK/11CW1418SP4_03_CORETEK03AE_11C_V1_GPRS_MMI/plutommi/Customer/ResGenerator/gcctmp/ccmAfaaa.s 			page 156


 7455 61c5 8945F4   		movl	%eax, -12(%ebp)
2648:mtk_resgenerator.cpp ****     if(fp == NULL)
 7457              	LM488:
 7458 61c8 837DF400 		cmpl	$0, -12(%ebp)
 7459 61cc 7527     		jne	L248
2649:mtk_resgenerator.cpp ****     {
2650:mtk_resgenerator.cpp ****         fprintf(stderr, "SPLIT:can not open file: custimgdatahw.h\n");
 7461              	LM489:
 7462 61ce C7442404 		movl	$LC225, 4(%esp)
 7462      605E0000 
 7463 61d6 A1000000 		movl	__imp___iob, %eax
 7463      00
 7464 61db 83C040   		addl	$64, %eax
 7465 61de 890424   		movl	%eax, (%esp)
 7466 61e1 E8000000 		call	_fprintf
 7466      00
2651:mtk_resgenerator.cpp ****         return false;
 7468              	LM490:
 7469 61e6 C785CCF7 		movl	$0, -2100(%ebp)
 7469      FFFF0000 
 7469      0000
 7470 61f0 E9630300 		jmp	L247
 7470      00
 7471              	L248:
2652:mtk_resgenerator.cpp ****     }
2653:mtk_resgenerator.cpp **** 
2654:mtk_resgenerator.cpp ****     wfp = fopen(CUST_IMG_HEADER_FILE, "w+");
 7473              	LM491:
 7474 61f5 C7442404 		movl	$LC226, 4(%esp)
 7474      8A5E0000 
 7475 61fd C70424A0 		movl	$LC227, (%esp)
 7475      5E0000
 7476 6204 E8000000 		call	_fopen
 7476      00
 7477 6209 8945F0   		movl	%eax, -16(%ebp)
2655:mtk_resgenerator.cpp ****     if(wfp == NULL)
 7479              	LM492:
 7480 620c 837DF000 		cmpl	$0, -16(%ebp)
 7481 6210 7532     		jne	L249
2656:mtk_resgenerator.cpp ****     {
2657:mtk_resgenerator.cpp ****         fprintf(stderr, "SPLIT:can not open file: tmp_imgdata.h\n");
 7483              	LM493:
 7484 6212 C7442404 		movl	$LC228, 4(%esp)
 7484      E05E0000 
 7485 621a A1000000 		movl	__imp___iob, %eax
 7485      00
 7486 621f 83C040   		addl	$64, %eax
 7487 6222 890424   		movl	%eax, (%esp)
 7488 6225 E8000000 		call	_fprintf
 7488      00
2658:mtk_resgenerator.cpp ****         fclose(fp);
 7490              	LM494:
 7491 622a 8B45F4   		movl	-12(%ebp), %eax
 7492 622d 890424   		movl	%eax, (%esp)
 7493 6230 E8000000 		call	_fclose
 7493      00
2659:mtk_resgenerator.cpp ****         return false;
GAS LISTING d:/github/AIOT_WORKSHOP/AIoT_MT2503AVE_SDK/11CW1418SP4_03_CORETEK03AE_11C_V1_GPRS_MMI/plutommi/Customer/ResGenerator/gcctmp/ccmAfaaa.s 			page 157


 7495              	LM495:
 7496 6235 C785CCF7 		movl	$0, -2100(%ebp)
 7496      FFFF0000 
 7496      0000
 7497 623f E9140300 		jmp	L247
 7497      00
 7498              	L249:
2660:mtk_resgenerator.cpp ****     }
2661:mtk_resgenerator.cpp **** 
2662:mtk_resgenerator.cpp ****     /* add include guard */
2663:mtk_resgenerator.cpp ****     fputs("#ifndef __CUST_IMG_DATA_HW_H_\n", wfp);
 7500              	LM496:
 7501 6244 8B45F0   		movl	-16(%ebp), %eax
 7502 6247 89442404 		movl	%eax, 4(%esp)
 7503 624b C7042420 		movl	$LC229, (%esp)
 7503      5F0000
 7504 6252 E8000000 		call	_fputs
 7504      00
2664:mtk_resgenerator.cpp ****     fputs("#define __CUST_IMG_DATA_HW_H_\n", wfp);
 7506              	LM497:
 7507 6257 8B45F0   		movl	-16(%ebp), %eax
 7508 625a 89442404 		movl	%eax, 4(%esp)
 7509 625e C7042440 		movl	$LC230, (%esp)
 7509      5F0000
 7510 6265 E8000000 		call	_fputs
 7510      00
2665:mtk_resgenerator.cpp ****     fputs("#include \"CustDataRes.h\"\n#include \"ResCompressConfig.h\"\n\n", wfp);
 7512              	LM498:
 7513 626a 8B45F0   		movl	-16(%ebp), %eax
 7514 626d 89442404 		movl	%eax, 4(%esp)
 7515 6271 C7042460 		movl	$LC231, (%esp)
 7515      5F0000
 7516 6278 E8000000 		call	_fputs
 7516      00
2666:mtk_resgenerator.cpp ****     fputs("#if !defined(__MMI_RESOURCE_IMAGE_GROUP_COMPRESS__) || defined(__MMI_RESOURCE_UT_UNCOMPR
 7518              	LM499:
 7519 627d 8B45F0   		movl	-16(%ebp), %eax
 7520 6280 89442404 		movl	%eax, 4(%esp)
 7521 6284 C7042480 		movl	$LC63, (%esp)
 7521      1A0000
 7522 628b E8000000 		call	_fputs
 7522      00
2667:mtk_resgenerator.cpp **** 			
2668:mtk_resgenerator.cpp ****     char *cache = buffer + len + 1;
 7524              	LM500:
 7525 6290 8D85E8F7 		leal	-2072(%ebp), %eax
 7525      FFFF
 7526 6296 0385E0F7 		addl	-2080(%ebp), %eax
 7526      FFFF
 7527 629c 40       		incl	%eax
 7528 629d 8985D0F7 		movl	%eax, -2096(%ebp)
 7528      FFFF
2669:mtk_resgenerator.cpp ****     while(!feof(fp))
 7530              	LM501:
 7531              	L250:
 7532 62a3 8B45F4   		movl	-12(%ebp), %eax
 7533 62a6 890424   		movl	%eax, (%esp)
GAS LISTING d:/github/AIOT_WORKSHOP/AIoT_MT2503AVE_SDK/11CW1418SP4_03_CORETEK03AE_11C_V1_GPRS_MMI/plutommi/Customer/ResGenerator/gcctmp/ccmAfaaa.s 			page 158


 7534 62a9 E8000000 		call	_feof
 7534      00
 7535 62ae 85C0     		testl	%eax, %eax
 7536 62b0 7405     		je	L252
 7537 62b2 E98C0000 		jmp	L251
 7537      00
 7538              	L252:
2670:mtk_resgenerator.cpp ****     {
2671:mtk_resgenerator.cpp ****         tmp_buff = fgets(/*buffer + len + 1*/cache, 2048, fp);
 7540              	LM502:
 7541 62b7 8B45F4   		movl	-12(%ebp), %eax
 7542 62ba 89442408 		movl	%eax, 8(%esp)
 7543 62be C7442404 		movl	$2048, 4(%esp)
 7543      00080000 
 7544 62c6 8B85D0F7 		movl	-2096(%ebp), %eax
 7544      FFFF
 7545 62cc 890424   		movl	%eax, (%esp)
 7546 62cf E8000000 		call	_fgets
 7546      00
 7547 62d4 8985E4F7 		movl	%eax, -2076(%ebp)
 7547      FFFF
2672:mtk_resgenerator.cpp **** 
2673:mtk_resgenerator.cpp ****         /* get data from the original data header file */
2674:mtk_resgenerator.cpp ****         if(!bjump)
 7549              	LM503:
 7550 62da 80BDDBF7 		cmpb	$0, -2085(%ebp)
 7550      FFFF00
 7551 62e1 7525     		jne	L253
2675:mtk_resgenerator.cpp ****         {
2676:mtk_resgenerator.cpp ****             bjump = get_file_headers(tmp_buff, &hp, &header_num);
 7553              	LM504:
 7554 62e3 8D45EC   		leal	-20(%ebp), %eax
 7555 62e6 89442408 		movl	%eax, 8(%esp)
 7556 62ea 8D85D4F7 		leal	-2092(%ebp), %eax
 7556      FFFF
 7557 62f0 89442404 		movl	%eax, 4(%esp)
 7558 62f4 8B85E4F7 		movl	-2076(%ebp), %eax
 7558      FFFF
 7559 62fa 890424   		movl	%eax, (%esp)
 7560 62fd E836F5FF 		call	__Z16get_file_headersPcPPA1024_cPi
 7560      FF
 7561 6302 8885DBF7 		movb	%al, -2085(%ebp)
 7561      FFFF
 7562              	L253:
2677:mtk_resgenerator.cpp ****         }
2678:mtk_resgenerator.cpp **** 
2679:mtk_resgenerator.cpp ****         /* process data and generate new header */
2680:mtk_resgenerator.cpp ****         tmp_buff = process_line_buffer(tmp_buff);
 7564              	LM505:
 7565 6308 8B85E4F7 		movl	-2076(%ebp), %eax
 7565      FFFF
 7566 630e 890424   		movl	%eax, (%esp)
 7567 6311 E8FAF3FF 		call	__Z19process_line_bufferPc
 7567      FF
 7568 6316 8985E4F7 		movl	%eax, -2076(%ebp)
 7568      FFFF
2681:mtk_resgenerator.cpp ****         if(tmp_buff != NULL)
GAS LISTING d:/github/AIOT_WORKSHOP/AIoT_MT2503AVE_SDK/11CW1418SP4_03_CORETEK03AE_11C_V1_GPRS_MMI/plutommi/Customer/ResGenerator/gcctmp/ccmAfaaa.s 			page 159


 7570              	LM506:
 7571 631c 83BDE4F7 		cmpl	$0, -2076(%ebp)
 7571      FFFF00
 7572 6323 0F847AFF 		je	L250
 7572      FFFF
2682:mtk_resgenerator.cpp ****         {
2683:mtk_resgenerator.cpp ****             fputs(tmp_buff, wfp);
 7574              	LM507:
 7575 6329 8B45F0   		movl	-16(%ebp), %eax
 7576 632c 89442404 		movl	%eax, 4(%esp)
 7577 6330 8B85E4F7 		movl	-2076(%ebp), %eax
 7577      FFFF
 7578 6336 890424   		movl	%eax, (%esp)
 7579 6339 E8000000 		call	_fputs
 7579      00
 7580 633e E960FFFF 		jmp	L250
 7580      FF
 7581              	L251:
2684:mtk_resgenerator.cpp ****         }
2685:mtk_resgenerator.cpp ****     }
2686:mtk_resgenerator.cpp **** 
2687:mtk_resgenerator.cpp ****     fputs("#endif // !defined(__MMI_RESOURCE_IMAGE_GROUP_COMPRESS__) || defined(__MMI_RESOURCE_UT_U
 7583              	LM508:
 7584 6343 8B45F0   		movl	-16(%ebp), %eax
 7585 6346 89442404 		movl	%eax, 4(%esp)
 7586 634a C70424A0 		movl	$LC232, (%esp)
 7586      5F0000
 7587 6351 E8000000 		call	_fputs
 7587      00
2688:mtk_resgenerator.cpp ****     fputs("#endif /* __CUST_IMG_DATA_HW_H_ */", wfp);
 7589              	LM509:
 7590 6356 8B45F0   		movl	-16(%ebp), %eax
 7591 6359 89442404 		movl	%eax, 4(%esp)
 7592 635d C7042420 		movl	$LC233, (%esp)
 7592      600000
 7593 6364 E8000000 		call	_fputs
 7593      00
2689:mtk_resgenerator.cpp **** 
2690:mtk_resgenerator.cpp ****     /* get the image total count */
2691:mtk_resgenerator.cpp ****     rewind(wfp);
 7595              	LM510:
 7596 6369 8B45F0   		movl	-16(%ebp), %eax
 7597 636c 890424   		movl	%eax, (%esp)
 7598 636f E8000000 		call	_rewind
 7598      00
2692:mtk_resgenerator.cpp ****     img_count = get_img_count(wfp); /* get image count */
 7600              	LM511:
 7601 6374 8B45F0   		movl	-16(%ebp), %eax
 7602 6377 890424   		movl	%eax, (%esp)
 7603 637a E879F9FF 		call	__Z13get_img_countP6_iobuf
 7603      FF
 7604 637f 8985DCF7 		movl	%eax, -2084(%ebp)
 7604      FFFF
2693:mtk_resgenerator.cpp ****     /* error process */
2694:mtk_resgenerator.cpp ****     if(img_count == -1)
 7606              	LM512:
 7607 6385 83BDDCF7 		cmpl	$-1, -2084(%ebp)
GAS LISTING d:/github/AIOT_WORKSHOP/AIoT_MT2503AVE_SDK/11CW1418SP4_03_CORETEK03AE_11C_V1_GPRS_MMI/plutommi/Customer/ResGenerator/gcctmp/ccmAfaaa.s 			page 160


 7607      FFFFFF
 7608 638c 7520     		jne	L255
2695:mtk_resgenerator.cpp ****         fprintf(stderr, "split file failed, Line=%d", __LINE__);
 7610              	LM513:
 7611 638e C7442408 		movl	$2695, 8(%esp)
 7611      870A0000 
 7612 6396 C7442404 		movl	$LC234, 4(%esp)
 7612      43600000 
 7613 639e A1000000 		movl	__imp___iob, %eax
 7613      00
 7614 63a3 83C040   		addl	$64, %eax
 7615 63a6 890424   		movl	%eax, (%esp)
 7616 63a9 E8000000 		call	_fprintf
 7616      00
 7617              	L255:
2696:mtk_resgenerator.cpp **** 
2697:mtk_resgenerator.cpp ****     /* generate data file of image */
2698:mtk_resgenerator.cpp ****     rewind(fp);
 7619              	LM514:
 7620 63ae 8B45F4   		movl	-12(%ebp), %eax
 7621 63b1 890424   		movl	%eax, (%esp)
 7622 63b4 E8000000 		call	_rewind
 7622      00
2699:mtk_resgenerator.cpp ****     if(generate_img_data_file(fp, hp, header_num, img_count))
 7624              	LM515:
 7625 63b9 8B85DCF7 		movl	-2084(%ebp), %eax
 7625      FFFF
 7626 63bf 8944240C 		movl	%eax, 12(%esp)
 7627 63c3 8B45EC   		movl	-20(%ebp), %eax
 7628 63c6 89442408 		movl	%eax, 8(%esp)
 7629 63ca 8B85D4F7 		movl	-2092(%ebp), %eax
 7629      FFFF
 7630 63d0 89442404 		movl	%eax, 4(%esp)
 7631 63d4 8B45F4   		movl	-12(%ebp), %eax
 7632 63d7 890424   		movl	%eax, (%esp)
 7633 63da E897F5FF 		call	__Z22generate_img_data_fileP6_iobufPA1024_cii
 7633      FF
 7634 63df 84C0     		testb	%al, %al
 7635 63e1 741A     		je	L256
2700:mtk_resgenerator.cpp ****     {
2701:mtk_resgenerator.cpp ****         fprintf(stderr, "split file successfully!!\n");
 7637              	LM516:
 7638 63e3 C7442404 		movl	$LC235, 4(%esp)
 7638      5E600000 
 7639 63eb A1000000 		movl	__imp___iob, %eax
 7639      00
 7640 63f0 83C040   		addl	$64, %eax
 7641 63f3 890424   		movl	%eax, (%esp)
 7642 63f6 E8000000 		call	_fprintf
 7642      00
 7643 63fb EB20     		jmp	L257
 7644              	L256:
2702:mtk_resgenerator.cpp ****     }
2703:mtk_resgenerator.cpp ****     else
2704:mtk_resgenerator.cpp ****     {
2705:mtk_resgenerator.cpp ****         fprintf(stderr, "generate image data file failed. %d", __LINE__);
 7646              	LM517:
GAS LISTING d:/github/AIOT_WORKSHOP/AIoT_MT2503AVE_SDK/11CW1418SP4_03_CORETEK03AE_11C_V1_GPRS_MMI/plutommi/Customer/ResGenerator/gcctmp/ccmAfaaa.s 			page 161


 7647 63fd C7442408 		movl	$2705, 8(%esp)
 7647      910A0000 
 7648 6405 C7442404 		movl	$LC236, 4(%esp)
 7648      80600000 
 7649 640d A1000000 		movl	__imp___iob, %eax
 7649      00
 7650 6412 83C040   		addl	$64, %eax
 7651 6415 890424   		movl	%eax, (%esp)
 7652 6418 E8000000 		call	_fprintf
 7652      00
 7653              	L257:
2706:mtk_resgenerator.cpp ****     }
2707:mtk_resgenerator.cpp **** 
2708:mtk_resgenerator.cpp ****     fclose(fp);
 7655              	LM518:
 7656 641d 8B45F4   		movl	-12(%ebp), %eax
 7657 6420 890424   		movl	%eax, (%esp)
 7658 6423 E8000000 		call	_fclose
 7658      00
2709:mtk_resgenerator.cpp ****     fp = NULL;
 7660              	LM519:
 7661 6428 C745F400 		movl	$0, -12(%ebp)
 7661      000000
2710:mtk_resgenerator.cpp **** 
2711:mtk_resgenerator.cpp ****     fclose(wfp);
 7663              	LM520:
 7664 642f 8B45F0   		movl	-16(%ebp), %eax
 7665 6432 890424   		movl	%eax, (%esp)
 7666 6435 E8000000 		call	_fclose
 7666      00
2712:mtk_resgenerator.cpp ****     wfp = NULL;
 7668              	LM521:
 7669 643a C745F000 		movl	$0, -16(%ebp)
 7669      000000
2713:mtk_resgenerator.cpp **** 
2714:mtk_resgenerator.cpp ****     fp = fopen(CUST_IMG_DATA_O_FILE, "r");
 7671              	LM522:
 7672 6441 C7442404 		movl	$LC223, 4(%esp)
 7672      085E0000 
 7673 6449 C70424C0 		movl	$LC237, (%esp)
 7673      600000
 7674 6450 E8000000 		call	_fopen
 7674      00
 7675 6455 8945F4   		movl	%eax, -12(%ebp)
2715:mtk_resgenerator.cpp ****     if(fp != NULL)
 7677              	LM523:
 7678 6458 837DF400 		cmpl	$0, -12(%ebp)
 7679 645c 745C     		je	L258
2716:mtk_resgenerator.cpp ****     {
2717:mtk_resgenerator.cpp ****         fclose(fp);
 7681              	LM524:
 7682 645e 8B45F4   		movl	-12(%ebp), %eax
 7683 6461 890424   		movl	%eax, (%esp)
 7684 6464 E8000000 		call	_fclose
 7684      00
2718:mtk_resgenerator.cpp ****         fp = 0;
 7686              	LM525:
GAS LISTING d:/github/AIOT_WORKSHOP/AIoT_MT2503AVE_SDK/11CW1418SP4_03_CORETEK03AE_11C_V1_GPRS_MMI/plutommi/Customer/ResGenerator/gcctmp/ccmAfaaa.s 			page 162


 7687 6469 C745F400 		movl	$0, -12(%ebp)
 7687      000000
2719:mtk_resgenerator.cpp ****         memset(buffer, 0, 2048);
 7689              	LM526:
 7690 6470 C7442408 		movl	$2048, 8(%esp)
 7690      00080000 
 7691 6478 C7442404 		movl	$0, 4(%esp)
 7691      00000000 
 7692 6480 8D85E8F7 		leal	-2072(%ebp), %eax
 7692      FFFF
 7693 6486 890424   		movl	%eax, (%esp)
 7694 6489 E8000000 		call	_memset
 7694      00
2720:mtk_resgenerator.cpp ****         sprintf(buffer, "del %s", CUST_IMG_DATA_O_FILE);
 7696              	LM527:
 7697 648e C7442408 		movl	$LC237, 8(%esp)
 7697      C0600000 
 7698 6496 C7442404 		movl	$LC238, 4(%esp)
 7698      EF600000 
 7699 649e 8D85E8F7 		leal	-2072(%ebp), %eax
 7699      FFFF
 7700 64a4 890424   		movl	%eax, (%esp)
 7701 64a7 E8000000 		call	_sprintf
 7701      00
2721:mtk_resgenerator.cpp ****         execute_ext_command(buffer);
 7703              	LM528:
 7704 64ac 8D85E8F7 		leal	-2072(%ebp), %eax
 7704      FFFF
 7705 64b2 890424   		movl	%eax, (%esp)
 7706 64b5 E8000000 		call	_execute_ext_command
 7706      00
 7707              	L258:
2722:mtk_resgenerator.cpp ****     }
2723:mtk_resgenerator.cpp **** 
2724:mtk_resgenerator.cpp ****     memset(buffer, 0, 2048);
 7709              	LM529:
 7710 64ba C7442408 		movl	$2048, 8(%esp)
 7710      00080000 
 7711 64c2 C7442404 		movl	$0, 4(%esp)
 7711      00000000 
 7712 64ca 8D85E8F7 		leal	-2072(%ebp), %eax
 7712      FFFF
 7713 64d0 890424   		movl	%eax, (%esp)
 7714 64d3 E8000000 		call	_memset
 7714      00
2725:mtk_resgenerator.cpp ****     sprintf(buffer, "rename %s custimgdatahwBak.h", CUST_IMG_DATA_FILE);
 7716              	LM530:
 7717 64d8 C7442408 		movl	$LC224, 8(%esp)
 7717      205E0000 
 7718 64e0 C7442404 		movl	$LC239, 4(%esp)
 7718      F6600000 
 7719 64e8 8D85E8F7 		leal	-2072(%ebp), %eax
 7719      FFFF
 7720 64ee 890424   		movl	%eax, (%esp)
 7721 64f1 E8000000 		call	_sprintf
 7721      00
2726:mtk_resgenerator.cpp ****     execute_ext_command(buffer);
GAS LISTING d:/github/AIOT_WORKSHOP/AIoT_MT2503AVE_SDK/11CW1418SP4_03_CORETEK03AE_11C_V1_GPRS_MMI/plutommi/Customer/ResGenerator/gcctmp/ccmAfaaa.s 			page 163


 7723              	LM531:
 7724 64f6 8D85E8F7 		leal	-2072(%ebp), %eax
 7724      FFFF
 7725 64fc 890424   		movl	%eax, (%esp)
 7726 64ff E8000000 		call	_execute_ext_command
 7726      00
2727:mtk_resgenerator.cpp **** 
2728:mtk_resgenerator.cpp ****     /* generate new extern data file */
2729:mtk_resgenerator.cpp ****     memset(buffer, 0, 2048);
 7728              	LM532:
 7729 6504 C7442408 		movl	$2048, 8(%esp)
 7729      00080000 
 7730 650c C7442404 		movl	$0, 4(%esp)
 7730      00000000 
 7731 6514 8D85E8F7 		leal	-2072(%ebp), %eax
 7731      FFFF
 7732 651a 890424   		movl	%eax, (%esp)
 7733 651d E8000000 		call	_memset
 7733      00
2730:mtk_resgenerator.cpp ****     sprintf(buffer, "rename %s custimgdatahw.h", CUST_IMG_HEADER_FILE);
 7735              	LM533:
 7736 6522 C7442408 		movl	$LC227, 8(%esp)
 7736      A05E0000 
 7737 652a C7442404 		movl	$LC240, 4(%esp)
 7737      13610000 
 7738 6532 8D85E8F7 		leal	-2072(%ebp), %eax
 7738      FFFF
 7739 6538 890424   		movl	%eax, (%esp)
 7740 653b E8000000 		call	_sprintf
 7740      00
2731:mtk_resgenerator.cpp ****     execute_ext_command(buffer);
 7742              	LM534:
 7743 6540 8D85E8F7 		leal	-2072(%ebp), %eax
 7743      FFFF
 7744 6546 890424   		movl	%eax, (%esp)
 7745 6549 E8000000 		call	_execute_ext_command
 7745      00
2732:mtk_resgenerator.cpp **** 
2733:mtk_resgenerator.cpp ****     return true;
 7747              	LM535:
 7748 654e C785CCF7 		movl	$1, -2100(%ebp)
 7748      FFFF0100 
 7748      0000
2734:mtk_resgenerator.cpp **** }
 7750              	LM536:
 7751              	L247:
 7752              	LBE61:
 7753 6558 8B85CCF7 		movl	-2100(%ebp), %eax
 7753      FFFF
 7754 655e C9       		leave
 7755 655f C3       		ret
 7768              	Lscope25:
 7770              		.data
 7771              		.align 4
 7772              	_g_error:
 7773 0010 FFFFFFFF 		.long	-1
 7774              		.text
GAS LISTING d:/github/AIOT_WORKSHOP/AIoT_MT2503AVE_SDK/11CW1418SP4_03_CORETEK03AE_11C_V1_GPRS_MMI/plutommi/Customer/ResGenerator/gcctmp/ccmAfaaa.s 			page 164


 7775              		.align 2
 7778              	__Z22launch_resgen_servicesv:
2735:mtk_resgenerator.cpp **** 
2736:mtk_resgenerator.cpp **** /* end split image data */
2737:mtk_resgenerator.cpp **** 
2738:mtk_resgenerator.cpp **** extern "C" void ToolPopulateInitial(void);
2739:mtk_resgenerator.cpp **** extern "C" void ToolPopulateDone(void);
2740:mtk_resgenerator.cpp **** extern "C" MMI_BOOL Aload(S8 *string, U16* pType);
2741:mtk_resgenerator.cpp **** 
2742:mtk_resgenerator.cpp **** #ifdef __MMI_RESOURCE_ENFB_SUPPORT__
2743:mtk_resgenerator.cpp **** extern "C" int disableENFB;
2744:mtk_resgenerator.cpp **** #endif
2745:mtk_resgenerator.cpp **** 
2746:mtk_resgenerator.cpp **** 
2747:mtk_resgenerator.cpp **** static S32 g_error = -1;
2748:mtk_resgenerator.cpp **** 
2749:mtk_resgenerator.cpp **** static void launch_resgen_services(){
 7780              	LM537:
 7781 6560 55       		pushl	%ebp
 7782 6561 89E5     		movl	%esp, %ebp
 7783 6563 83EC18   		subl	$24, %esp
2750:mtk_resgenerator.cpp ****     int debugLevelCfg = RES_LOG_LEVEL_VERBOSE;
 7785              	LM538:
 7786              	LBB62:
 7787 6566 C745FC01 		movl	$1, -4(%ebp)
 7787      000000
2751:mtk_resgenerator.cpp **** 
2752:mtk_resgenerator.cpp ****     // Start Resgen Log service
2753:mtk_resgenerator.cpp ****     reslog_adaptor_start_service();
 7789              	LM539:
 7790 656d E8000000 		call	_reslog_adaptor_start_service
 7790      00
2754:mtk_resgenerator.cpp **** 
2755:mtk_resgenerator.cpp ****     // Load configuration
2756:mtk_resgenerator.cpp ****     ResgenConfigurator *configObj = ResgenConfigurator::getInstance();
 7792              	LM540:
 7793 6572 E8000000 		call	__ZN18ResgenConfigurator11getInstanceEv
 7793      00
 7794 6577 8945F8   		movl	%eax, -8(%ebp)
2757:mtk_resgenerator.cpp ****     if(configObj!=NULL){
 7796              	LM541:
 7797 657a 837DF800 		cmpl	$0, -8(%ebp)
 7798 657e 7422     		je	L260
2758:mtk_resgenerator.cpp ****         configObj->loadConfiguration(ResgenConfigurator::DEFAULT_CONFIG_FILE);
 7800              	LM542:
 7801 6580 A1000000 		movl	__ZN18ResgenConfigurator19DEFAULT_CONFIG_FILEE, %eax
 7801      00
 7802 6585 89442404 		movl	%eax, 4(%esp)
 7803 6589 8B45F8   		movl	-8(%ebp), %eax
 7804 658c 890424   		movl	%eax, (%esp)
 7805 658f E8000000 		call	__ZN18ResgenConfigurator17loadConfigurationEPKc
 7805      00
2759:mtk_resgenerator.cpp ****         debugLevelCfg = configObj->getDebugLevel();
 7807              	LM543:
 7808 6594 8B45F8   		movl	-8(%ebp), %eax
 7809 6597 890424   		movl	%eax, (%esp)
 7810 659a E8000000 		call	__ZN18ResgenConfigurator13getDebugLevelEv
GAS LISTING d:/github/AIOT_WORKSHOP/AIoT_MT2503AVE_SDK/11CW1418SP4_03_CORETEK03AE_11C_V1_GPRS_MMI/plutommi/Customer/ResGenerator/gcctmp/ccmAfaaa.s 			page 165


 7810      00
 7811 659f 8945FC   		movl	%eax, -4(%ebp)
 7812              	L260:
2760:mtk_resgenerator.cpp ****     }
2761:mtk_resgenerator.cpp **** 
2762:mtk_resgenerator.cpp ****     // Set default log level
2763:mtk_resgenerator.cpp ****     reslog_adaptor_set_max_level(debugLevelCfg);
 7814              	LM544:
 7815 65a2 8B45FC   		movl	-4(%ebp), %eax
 7816 65a5 890424   		movl	%eax, (%esp)
 7817 65a8 E8000000 		call	_reslog_adaptor_set_max_level
 7817      00
2764:mtk_resgenerator.cpp **** 
2765:mtk_resgenerator.cpp ****     // Create crush handling serice
2766:mtk_resgenerator.cpp ****     ResgenCrashHandlingService * crashHandlingObj = ResgenCrashHandlingService::getInstance();
 7819              	LM545:
 7820 65ad E8000000 		call	__ZN26ResgenCrashHandlingService11getInstanceEv
 7820      00
 7821 65b2 8945F4   		movl	%eax, -12(%ebp)
2767:mtk_resgenerator.cpp **** 
2768:mtk_resgenerator.cpp ****     // Start the service to catch regen crush exceptions
2769:mtk_resgenerator.cpp ****     crashHandlingObj->start();
 7823              	LM546:
 7824 65b5 8B45F4   		movl	-12(%ebp), %eax
 7825 65b8 890424   		movl	%eax, (%esp)
 7826 65bb E8000000 		call	__ZN26ResgenCrashHandlingService5startEv
 7826      00
2770:mtk_resgenerator.cpp **** }
 7828              	LM547:
 7829 65c0 C9       		leave
 7830 65c1 C3       		ret
 7831              	LBE62:
 7837              	Lscope26:
 7839              	LC241:
 7840 65c2 6D746B5F 		.ascii "mtk_resgenerator.exe fail!\0"
 7840      72657367 
 7840      656E6572 
 7840      61746F72 
 7840      2E657865 
 7841 65dd 8D7600   		.align 32
 7842              	LC242:
 7843 65e0 6D746B5F 		.ascii "mtk_resgenerator.exe failed, the error flag was set.\12\0"
 7843      72657367 
 7843      656E6572 
 7843      61746F72 
 7843      2E657865 
 7844 6616 8D76008D 		.align 32
 7844      BC270000 
 7844      0000
 7845              	LC243:
 7846 6620 50006C00 		.ascii "P\0l\0e\0a\0s\0e\0 \0c\0h\0e\0c\0k\0 \0p\0l\0u\0t\0o\0m\0m\0i\0\\\0C\0u\0s\0t\0o\0m\0e\0r\
 7846      65006100 
 7846      73006500 
 7846      20006300 
 7846      68006500 
 7847 66cc 90909090 		.align 32
 7847      90909090 
GAS LISTING d:/github/AIOT_WORKSHOP/AIoT_MT2503AVE_SDK/11CW1418SP4_03_CORETEK03AE_11C_V1_GPRS_MMI/plutommi/Customer/ResGenerator/gcctmp/ccmAfaaa.s 			page 166


 7847      90909090 
 7847      90909090 
 7847      90909090 
 7848              	LC244:
 7849 66e0 0A2D2D2D 		.ascii "\12--------------- REF LIST ERROR -------------------\12\0"
 7849      2D2D2D2D 
 7849      2D2D2D2D 
 7849      2D2D2D2D 
 7849      20524546 
 7850 6715 8D742600 		.align 32
 7850      8DBC2700 
 7850      000000
 7851              	LC245:
 7852 6720 506C6561 		.ascii "Please check plutommi\\Customer\\CustResource\\ref_list.txt for this error !\12\0"
 7852      73652063 
 7852      6865636B 
 7852      20706C75 
 7852      746F6D6D 
 7853 676b 90       		.align 2
 7854              	LC246:
 7855 676c 25006C00 		.ascii "%\0l\0s\0\12\0\0\0"
 7855      73000A00 
 7855      0000
 7856 6776 8D76008D 		.align 32
 7856      BC270000 
 7856      0000
 7857              	LC247:
 7858 6780 0A2D2D2D 		.ascii "\12--------------------------------------------------\12\0"
 7858      2D2D2D2D 
 7858      2D2D2D2D 
 7858      2D2D2D2D 
 7858      2D2D2D2D 
 7859 67b5 8D742600 		.align 32
 7859      8DBC2700 
 7859      000000
 7860              	LC248:
 7861 67c0 50006C00 		.ascii "P\0l\0e\0a\0s\0e\0 \0c\0h\0e\0c\0k\0 \0p\0l\0u\0t\0o\0m\0m\0i\0\\\0C\0u\0s\0t\0o\0m\0e\0r\
 7861      65006100 
 7861      73006500 
 7861      20006300 
 7861      68006500 
 7862 68aa 90909090 		.align 32
 7862      90909090 
 7862      90909090 
 7862      90909090 
 7862      90909090 
 7863              	LC249:
 7864 68c0 506C6561 		.ascii "Please check plutommi\\Customer\\CustResource\\PLUTO_MMI\\ref_list\\ref_list_translation.t
 7864      73652063 
 7864      6865636B 
 7864      20706C75 
 7864      746F6D6D 
 7865              		.align 2
 7868              	__Z19handle_regen_errorsv:
2771:mtk_resgenerator.cpp **** 
2772:mtk_resgenerator.cpp **** // function handle_regen_errors will be phased not
2773:mtk_resgenerator.cpp **** // after all moudule are using resgen log framework API
GAS LISTING d:/github/AIOT_WORKSHOP/AIoT_MT2503AVE_SDK/11CW1418SP4_03_CORETEK03AE_11C_V1_GPRS_MMI/plutommi/Customer/ResGenerator/gcctmp/ccmAfaaa.s 			page 167


2774:mtk_resgenerator.cpp **** static int handle_regen_errors(){
 7870              	LM548:
 7871 692c 55       		pushl	%ebp
 7872 692d 89E5     		movl	%esp, %ebp
 7873 692f 83EC28   		subl	$40, %esp
2775:mtk_resgenerator.cpp ****     wchar_t * err_msg = NULL;
 7875              	LM549:
 7876              	LBB63:
 7877 6932 C745FC00 		movl	$0, -4(%ebp)
 7877      000000
2776:mtk_resgenerator.cpp ****     int err_code = 0;
 7879              	LM550:
 7880 6939 C745F800 		movl	$0, -8(%ebp)
 7880      000000
2777:mtk_resgenerator.cpp ****     /* Check error in each module */
2778:mtk_resgenerator.cpp ****     if (mtk_resgen_has_error() )
 7882              	LM551:
 7883 6940 E8000000 		call	_mtk_resgen_has_error
 7883      00
 7884 6945 85C0     		testl	%eax, %eax
 7885 6947 7440     		je	L262
2779:mtk_resgenerator.cpp ****     {
2780:mtk_resgenerator.cpp ****         RESGEN_LOG_E("mtk_resgenerator.exe fail!");
 7887              	LM552:
 7888 6949 C7442408 		movl	$LC241, 8(%esp)
 7888      C2650000 
 7889 6951 C7442404 		movl	$LC1, 4(%esp)
 7889      3E000000 
 7890 6959 C7042403 		movl	$3, (%esp)
 7890      000000
 7891 6960 E8000000 		call	_reslog_adaptor_log
 7891      00
2781:mtk_resgenerator.cpp ****         fprintf(stderr, "mtk_resgenerator.exe failed, the error flag was set.\n");
 7893              	LM553:
 7894 6965 C7442404 		movl	$LC242, 4(%esp)
 7894      E0650000 
 7895 696d A1000000 		movl	__imp___iob, %eax
 7895      00
 7896 6972 83C040   		addl	$64, %eax
 7897 6975 890424   		movl	%eax, (%esp)
 7898 6978 E8000000 		call	_fprintf
 7898      00
2782:mtk_resgenerator.cpp ****         return 1;
 7900              	LM554:
 7901 697d C745F401 		movl	$1, -12(%ebp)
 7901      000000
 7902 6984 E9520100 		jmp	L261
 7902      00
 7903              	L262:
2783:mtk_resgenerator.cpp ****     }
2784:mtk_resgenerator.cpp **** 
2785:mtk_resgenerator.cpp ****     err_code = str_merge_get_err(&err_msg);
 7905              	LM555:
 7906 6989 8D45FC   		leal	-4(%ebp), %eax
 7907 698c 890424   		movl	%eax, (%esp)
 7908 698f E8000000 		call	_str_merge_get_err
 7908      00
GAS LISTING d:/github/AIOT_WORKSHOP/AIoT_MT2503AVE_SDK/11CW1418SP4_03_CORETEK03AE_11C_V1_GPRS_MMI/plutommi/Customer/ResGenerator/gcctmp/ccmAfaaa.s 			page 168


 7909 6994 8945F8   		movl	%eax, -8(%ebp)
2786:mtk_resgenerator.cpp **** 
2787:mtk_resgenerator.cpp ****     if(err_code == STRMERGE_LOAD_REF_LIST_ERR)
 7911              	LM556:
 7912 6997 837DF801 		cmpl	$1, -8(%ebp)
 7913 699b 0F859600 		jne	L263
 7913      0000
2788:mtk_resgenerator.cpp ****     {
2789:mtk_resgenerator.cpp ****         // Output to log file
2790:mtk_resgenerator.cpp ****         RESGEN_WLOG_E(L"Please check plutommi\\Customer\\CustResource\\ref_list.txt for this error 
 7915              	LM557:
 7916 69a1 8B45FC   		movl	-4(%ebp), %eax
 7917 69a4 8944240C 		movl	%eax, 12(%esp)
 7918 69a8 C7442408 		movl	$LC243, 8(%esp)
 7918      20660000 
 7919 69b0 C7442404 		movl	$LC1, 4(%esp)
 7919      3E000000 
 7920 69b8 C7042403 		movl	$3, (%esp)
 7920      000000
 7921 69bf E8000000 		call	_reslog_adaptor_wlog
 7921      00
2791:mtk_resgenerator.cpp ****         // Show message in console
2792:mtk_resgenerator.cpp ****         fprintf(stderr,"\n--------------- REF LIST ERROR -------------------\n");
 7923              	LM558:
 7924 69c4 C7442404 		movl	$LC244, 4(%esp)
 7924      E0660000 
 7925 69cc A1000000 		movl	__imp___iob, %eax
 7925      00
 7926 69d1 83C040   		addl	$64, %eax
 7927 69d4 890424   		movl	%eax, (%esp)
 7928 69d7 E8000000 		call	_fprintf
 7928      00
2793:mtk_resgenerator.cpp ****         fprintf(stderr,"Please check plutommi\\Customer\\CustResource\\ref_list.txt for this error 
 7930              	LM559:
 7931 69dc C7442404 		movl	$LC245, 4(%esp)
 7931      20670000 
 7932 69e4 A1000000 		movl	__imp___iob, %eax
 7932      00
 7933 69e9 83C040   		addl	$64, %eax
 7934 69ec 890424   		movl	%eax, (%esp)
 7935 69ef E8000000 		call	_fprintf
 7935      00
2794:mtk_resgenerator.cpp ****         fwprintf(stderr, L"%ls\n",err_msg);
 7937              	LM560:
 7938 69f4 8B45FC   		movl	-4(%ebp), %eax
 7939 69f7 89442408 		movl	%eax, 8(%esp)
 7940 69fb C7442404 		movl	$LC246, 4(%esp)
 7940      6C670000 
 7941 6a03 A1000000 		movl	__imp___iob, %eax
 7941      00
 7942 6a08 83C040   		addl	$64, %eax
 7943 6a0b 890424   		movl	%eax, (%esp)
 7944 6a0e E8000000 		call	_fwprintf
 7944      00
2795:mtk_resgenerator.cpp ****         fprintf(stderr,"\n--------------------------------------------------\n");
 7946              	LM561:
 7947 6a13 C7442404 		movl	$LC247, 4(%esp)
GAS LISTING d:/github/AIOT_WORKSHOP/AIoT_MT2503AVE_SDK/11CW1418SP4_03_CORETEK03AE_11C_V1_GPRS_MMI/plutommi/Customer/ResGenerator/gcctmp/ccmAfaaa.s 			page 169


 7947      80670000 
 7948 6a1b A1000000 		movl	__imp___iob, %eax
 7948      00
 7949 6a20 83C040   		addl	$64, %eax
 7950 6a23 890424   		movl	%eax, (%esp)
 7951 6a26 E8000000 		call	_fprintf
 7951      00
2796:mtk_resgenerator.cpp ****         return 1;
 7953              	LM562:
 7954 6a2b C745F401 		movl	$1, -12(%ebp)
 7954      000000
 7955 6a32 E9A40000 		jmp	L261
 7955      00
 7956              	L263:
2797:mtk_resgenerator.cpp ****     }
2798:mtk_resgenerator.cpp **** 
2799:mtk_resgenerator.cpp ****     if(err_code == STRMERGE_LOAD_SSC_ERR)
 7958              	LM563:
 7959 6a37 837DF802 		cmpl	$2, -8(%ebp)
 7960 6a3b 0F859300 		jne	L264
 7960      0000
2800:mtk_resgenerator.cpp ****     {
2801:mtk_resgenerator.cpp ****         // Output to log file
2802:mtk_resgenerator.cpp ****         RESGEN_WLOG_E(L"Please check plutommi\\Customer\\CustResource\\PLUTO_MMI\\ref_list\\ref_lis
 7962              	LM564:
 7963 6a41 8B45FC   		movl	-4(%ebp), %eax
 7964 6a44 8944240C 		movl	%eax, 12(%esp)
 7965 6a48 C7442408 		movl	$LC248, 8(%esp)
 7965      C0670000 
 7966 6a50 C7442404 		movl	$LC1, 4(%esp)
 7966      3E000000 
 7967 6a58 C7042403 		movl	$3, (%esp)
 7967      000000
 7968 6a5f E8000000 		call	_reslog_adaptor_wlog
 7968      00
2803:mtk_resgenerator.cpp ****         // Show message in console
2804:mtk_resgenerator.cpp ****         fprintf(stderr,"\n--------------- REF LIST ERROR -------------------\n");
 7970              	LM565:
 7971 6a64 C7442404 		movl	$LC244, 4(%esp)
 7971      E0660000 
 7972 6a6c A1000000 		movl	__imp___iob, %eax
 7972      00
 7973 6a71 83C040   		addl	$64, %eax
 7974 6a74 890424   		movl	%eax, (%esp)
 7975 6a77 E8000000 		call	_fprintf
 7975      00
2805:mtk_resgenerator.cpp ****         fprintf(stderr,"Please check plutommi\\Customer\\CustResource\\PLUTO_MMI\\ref_list\\ref_lis
 7977              	LM566:
 7978 6a7c C7442404 		movl	$LC249, 4(%esp)
 7978      C0680000 
 7979 6a84 A1000000 		movl	__imp___iob, %eax
 7979      00
 7980 6a89 83C040   		addl	$64, %eax
 7981 6a8c 890424   		movl	%eax, (%esp)
 7982 6a8f E8000000 		call	_fprintf
 7982      00
2806:mtk_resgenerator.cpp ****         fwprintf(stderr, L"%ls\n",err_msg);
GAS LISTING d:/github/AIOT_WORKSHOP/AIoT_MT2503AVE_SDK/11CW1418SP4_03_CORETEK03AE_11C_V1_GPRS_MMI/plutommi/Customer/ResGenerator/gcctmp/ccmAfaaa.s 			page 170


 7984              	LM567:
 7985 6a94 8B45FC   		movl	-4(%ebp), %eax
 7986 6a97 89442408 		movl	%eax, 8(%esp)
 7987 6a9b C7442404 		movl	$LC246, 4(%esp)
 7987      6C670000 
 7988 6aa3 A1000000 		movl	__imp___iob, %eax
 7988      00
 7989 6aa8 83C040   		addl	$64, %eax
 7990 6aab 890424   		movl	%eax, (%esp)
 7991 6aae E8000000 		call	_fwprintf
 7991      00
2807:mtk_resgenerator.cpp ****         fprintf(stderr,"\n--------------------------------------------------\n");
 7993              	LM568:
 7994 6ab3 C7442404 		movl	$LC247, 4(%esp)
 7994      80670000 
 7995 6abb A1000000 		movl	__imp___iob, %eax
 7995      00
 7996 6ac0 83C040   		addl	$64, %eax
 7997 6ac3 890424   		movl	%eax, (%esp)
 7998 6ac6 E8000000 		call	_fprintf
 7998      00
2808:mtk_resgenerator.cpp ****         return 1;
 8000              	LM569:
 8001 6acb C745F401 		movl	$1, -12(%ebp)
 8001      000000
 8002 6ad2 EB07     		jmp	L261
 8003              	L264:
2809:mtk_resgenerator.cpp ****     }
2810:mtk_resgenerator.cpp ****     return 0;
 8005              	LM570:
 8006 6ad4 C745F400 		movl	$0, -12(%ebp)
 8006      000000
2811:mtk_resgenerator.cpp **** }
 8008              	LM571:
 8009              	L261:
 8010              	LBE63:
 8011 6adb 8B45F4   		movl	-12(%ebp), %eax
 8012 6ade C9       		leave
 8013 6adf C3       		ret
 8018              	Lscope27:
 8020              		.align 2
 8023              	__Z18check_fatal_errorsv:
2812:mtk_resgenerator.cpp **** 
2813:mtk_resgenerator.cpp **** 
2814:mtk_resgenerator.cpp **** static int check_fatal_errors(){
 8025              	LM572:
 8026 6ae0 55       		pushl	%ebp
 8027 6ae1 89E5     		movl	%esp, %ebp
 8028 6ae3 83EC08   		subl	$8, %esp
2815:mtk_resgenerator.cpp ****     int hasPendingFatalError = reslog_adaptor_has_pending_fatal_error();
 8030              	LM573:
 8031              	LBB64:
 8032 6ae6 E8000000 		call	_reslog_adaptor_has_pending_fatal_error
 8032      00
 8033 6aeb 8945FC   		movl	%eax, -4(%ebp)
2816:mtk_resgenerator.cpp ****     if(hasPendingFatalError){
 8035              	LM574:
GAS LISTING d:/github/AIOT_WORKSHOP/AIoT_MT2503AVE_SDK/11CW1418SP4_03_CORETEK03AE_11C_V1_GPRS_MMI/plutommi/Customer/ResGenerator/gcctmp/ccmAfaaa.s 			page 171


 8036 6aee 837DFC00 		cmpl	$0, -4(%ebp)
 8037 6af2 7405     		je	L266
2817:mtk_resgenerator.cpp ****         reslog_adaptor_flush_pending_fatal_error();
 8039              	LM575:
 8040 6af4 E8000000 		call	_reslog_adaptor_flush_pending_fatal_error
 8040      00
 8041              	L266:
2818:mtk_resgenerator.cpp ****     }
2819:mtk_resgenerator.cpp ****     hasPendingFatalError |= handle_regen_errors();
 8043              	LM576:
 8044 6af9 E82EFEFF 		call	__Z19handle_regen_errorsv
 8044      FF
 8045 6afe 89C2     		movl	%eax, %edx
 8046 6b00 8D45FC   		leal	-4(%ebp), %eax
 8047 6b03 0910     		orl	%edx, (%eax)
2820:mtk_resgenerator.cpp ****     return hasPendingFatalError;
 8049              	LM577:
 8050 6b05 8B45FC   		movl	-4(%ebp), %eax
2821:mtk_resgenerator.cpp **** }
 8052              	LM578:
 8053 6b08 C9       		leave
 8054 6b09 C3       		ret
 8055              	LBE64:
 8059              	Lscope28:
 8061              		.align 2
 8064              	__Z20stop_resgen_servicesv:
2822:mtk_resgenerator.cpp **** 
2823:mtk_resgenerator.cpp **** static void stop_resgen_services(){
 8066              	LM579:
 8067 6b0a 55       		pushl	%ebp
 8068 6b0b 89E5     		movl	%esp, %ebp
 8069 6b0d 83EC08   		subl	$8, %esp
2824:mtk_resgenerator.cpp ****     ResgenCrashHandlingService * crashHandlingObj = ResgenCrashHandlingService::getInstance();
 8071              	LM580:
 8072              	LBB65:
 8073 6b10 E8000000 		call	__ZN26ResgenCrashHandlingService11getInstanceEv
 8073      00
 8074 6b15 8945FC   		movl	%eax, -4(%ebp)
2825:mtk_resgenerator.cpp ****     crashHandlingObj->stop();
 8076              	LM581:
 8077 6b18 8B45FC   		movl	-4(%ebp), %eax
 8078 6b1b 890424   		movl	%eax, (%esp)
 8079 6b1e E8000000 		call	__ZN26ResgenCrashHandlingService4stopEv
 8079      00
2826:mtk_resgenerator.cpp ****     ResgenConfigurator::release();
 8081              	LM582:
 8082 6b23 E8000000 		call	__ZN18ResgenConfigurator7releaseEv
 8082      00
2827:mtk_resgenerator.cpp ****     reslog_adaptor_stop_service();
 8084              	LM583:
 8085 6b28 E8000000 		call	_reslog_adaptor_stop_service
 8085      00
2828:mtk_resgenerator.cpp **** }
 8087              	LM584:
 8088 6b2d C9       		leave
 8089 6b2e C3       		ret
 8090              	LBE65:
GAS LISTING d:/github/AIOT_WORKSHOP/AIoT_MT2503AVE_SDK/11CW1418SP4_03_CORETEK03AE_11C_V1_GPRS_MMI/plutommi/Customer/ResGenerator/gcctmp/ccmAfaaa.s 			page 172


 8094              	Lscope29:
 8096 6b2f 90909090 		.align 32
 8096      90909090 
 8096      90909090 
 8096      90909090 
 8096      90
 8097              	LC250:
 8098 6b40 6D746B5F 		.ascii "mtk_resgenerator.exe execute successfully.\0"
 8098      72657367 
 8098      656E6572 
 8098      61746F72 
 8098      2E657865 
 8099 6b6b 90909090 		.align 32
 8099      90909090 
 8099      90909090 
 8099      90909090 
 8099      90909090 
 8100              	LC251:
 8101 6b80 6D746B5F 		.ascii "mtk_resgenerator.exe execute successfully.\12\0"
 8101      72657367 
 8101      656E6572 
 8101      61746F72 
 8101      2E657865 
 8102              		.align 2
 8105              	__Z14resgen_on_exitv:
2829:mtk_resgenerator.cpp **** 
2830:mtk_resgenerator.cpp **** 
2831:mtk_resgenerator.cpp **** /*****************************************************************************
2832:mtk_resgenerator.cpp **** * FUNCTION
2833:mtk_resgenerator.cpp **** *  on_exit
2834:mtk_resgenerator.cpp **** * DESCRIPTION
2835:mtk_resgenerator.cpp **** *  program exit function
2836:mtk_resgenerator.cpp **** * PARAMETERS
2837:mtk_resgenerator.cpp **** *  void
2838:mtk_resgenerator.cpp **** * RETURNS
2839:mtk_resgenerator.cpp **** *  void
2840:mtk_resgenerator.cpp **** *****************************************************************************/
2841:mtk_resgenerator.cpp **** static void resgen_on_exit(void)
2842:mtk_resgenerator.cpp **** {
 8107              	LM585:
 8108 6bac 55       		pushl	%ebp
 8109 6bad 89E5     		movl	%esp, %ebp
 8110 6baf 83EC18   		subl	$24, %esp
2843:mtk_resgenerator.cpp ****     /*----------------------------------------------------------------*/
2844:mtk_resgenerator.cpp ****     /* Local Variables                                                */
2845:mtk_resgenerator.cpp ****     /*----------------------------------------------------------------*/
2846:mtk_resgenerator.cpp **** 
2847:mtk_resgenerator.cpp ****     /*----------------------------------------------------------------*/
2848:mtk_resgenerator.cpp ****     /* Code Body                                                      */
2849:mtk_resgenerator.cpp ****     /*----------------------------------------------------------------*/
2850:mtk_resgenerator.cpp ****     fflush(stdout);
 8112              	LM586:
 8113 6bb2 A1000000 		movl	__imp___iob, %eax
 8113      00
 8114              	LBB66:
 8115 6bb7 83C020   		addl	$32, %eax
 8116 6bba 890424   		movl	%eax, (%esp)
GAS LISTING d:/github/AIOT_WORKSHOP/AIoT_MT2503AVE_SDK/11CW1418SP4_03_CORETEK03AE_11C_V1_GPRS_MMI/plutommi/Customer/ResGenerator/gcctmp/ccmAfaaa.s 			page 173


 8117 6bbd E8000000 		call	_fflush
 8117      00
2851:mtk_resgenerator.cpp **** 
2852:mtk_resgenerator.cpp ****     int regenHasError = check_fatal_errors();
 8119              	LM587:
 8120 6bc2 E819FFFF 		call	__Z18check_fatal_errorsv
 8120      FF
 8121 6bc7 8945FC   		movl	%eax, -4(%ebp)
2853:mtk_resgenerator.cpp **** 
2854:mtk_resgenerator.cpp ****     if (g_error != -1 && regenHasError==0 )  // normal exit
 8123              	LM588:
 8124 6bca 833D1000 		cmpl	$-1, _g_error
 8124      0000FF
 8125 6bd1 744B     		je	L269
 8126 6bd3 837DFC00 		cmpl	$0, -4(%ebp)
 8127 6bd7 7545     		jne	L269
2855:mtk_resgenerator.cpp ****     {
2856:mtk_resgenerator.cpp ****         RESGEN_LOG_V("mtk_resgenerator.exe execute successfully.");
 8129              	LM589:
 8130 6bd9 C7442408 		movl	$LC250, 8(%esp)
 8130      406B0000 
 8131 6be1 C7442404 		movl	$LC1, 4(%esp)
 8131      3E000000 
 8132 6be9 C7042401 		movl	$1, (%esp)
 8132      000000
 8133 6bf0 E8000000 		call	_reslog_adaptor_log
 8133      00
2857:mtk_resgenerator.cpp ****         fprintf(stderr, "mtk_resgenerator.exe execute successfully.\n");
 8135              	LM590:
 8136 6bf5 C7442404 		movl	$LC251, 4(%esp)
 8136      806B0000 
 8137 6bfd A1000000 		movl	__imp___iob, %eax
 8137      00
 8138 6c02 83C040   		addl	$64, %eax
 8139 6c05 890424   		movl	%eax, (%esp)
 8140 6c08 E8000000 		call	_fprintf
 8140      00
2858:mtk_resgenerator.cpp ****         stop_resgen_services();
 8142              	LM591:
 8143 6c0d E8F8FEFF 		call	__Z20stop_resgen_servicesv
 8143      FF
2859:mtk_resgenerator.cpp ****         _exit(1);
 8145              	LM592:
 8146 6c12 C7042401 		movl	$1, (%esp)
 8146      000000
 8147 6c19 E8000000 		call	__exit
 8147      00
 8148              	L269:
2860:mtk_resgenerator.cpp ****     }
2861:mtk_resgenerator.cpp ****     else                // abnormal exit
2862:mtk_resgenerator.cpp ****     {
2863:mtk_resgenerator.cpp ****         stop_resgen_services();
 8150              	LM593:
 8151 6c1e E8E7FEFF 		call	__Z20stop_resgen_servicesv
 8151      FF
2864:mtk_resgenerator.cpp ****         _exit(2);
 8153              	LM594:
GAS LISTING d:/github/AIOT_WORKSHOP/AIoT_MT2503AVE_SDK/11CW1418SP4_03_CORETEK03AE_11C_V1_GPRS_MMI/plutommi/Customer/ResGenerator/gcctmp/ccmAfaaa.s 			page 174


 8154 6c23 C7042402 		movl	$2, (%esp)
 8154      000000
 8155 6c2a E8000000 		call	__exit
 8155      00
2865:mtk_resgenerator.cpp ****     }
2866:mtk_resgenerator.cpp **** }
 8157              	LM595:
 8158              	LBE66:
 8162              	Lscope30:
 8164 6c2f 90       		.align 2
 8170              	__Z14writeLogToFilePcS_i:
2867:mtk_resgenerator.cpp **** 
2868:mtk_resgenerator.cpp **** static void writeLogToFile(char * fileName, char *msg,int append)
2869:mtk_resgenerator.cpp **** {
 8172              	LM596:
 8173 6c30 55       		pushl	%ebp
 8174 6c31 89E5     		movl	%esp, %ebp
 8175 6c33 83EC18   		subl	$24, %esp
2870:mtk_resgenerator.cpp ****     FILE * logfile = NULL;
 8177              	LM597:
 8178              	LBB67:
 8179 6c36 C745FC00 		movl	$0, -4(%ebp)
 8179      000000
2871:mtk_resgenerator.cpp ****     if(append)
 8181              	LM598:
 8182 6c3d 837D1000 		cmpl	$0, 16(%ebp)
 8183 6c41 7418     		je	L272
2872:mtk_resgenerator.cpp ****     {
2873:mtk_resgenerator.cpp ****         logfile = fopen(fileName,"w");
 8185              	LM599:
 8186 6c43 C7442404 		movl	$LC2, 4(%esp)
 8186      4F000000 
 8187 6c4b 8B4508   		movl	8(%ebp), %eax
 8188 6c4e 890424   		movl	%eax, (%esp)
 8189 6c51 E8000000 		call	_fopen
 8189      00
 8190 6c56 8945FC   		movl	%eax, -4(%ebp)
 8191 6c59 EB16     		jmp	L273
 8192              	L272:
2874:mtk_resgenerator.cpp ****     }else{
2875:mtk_resgenerator.cpp ****         logfile= fopen(fileName,"a");
 8194              	LM600:
 8195 6c5b C7442404 		movl	$LC148, 4(%esp)
 8195      19310000 
 8196 6c63 8B4508   		movl	8(%ebp), %eax
 8197 6c66 890424   		movl	%eax, (%esp)
 8198 6c69 E8000000 		call	_fopen
 8198      00
 8199 6c6e 8945FC   		movl	%eax, -4(%ebp)
 8200              	L273:
2876:mtk_resgenerator.cpp ****     }
2877:mtk_resgenerator.cpp **** 
2878:mtk_resgenerator.cpp ****     if(logfile!=NULL)
 8202              	LM601:
 8203 6c71 837DFC00 		cmpl	$0, -4(%ebp)
 8204 6c75 741D     		je	L271
2879:mtk_resgenerator.cpp ****     {
GAS LISTING d:/github/AIOT_WORKSHOP/AIoT_MT2503AVE_SDK/11CW1418SP4_03_CORETEK03AE_11C_V1_GPRS_MMI/plutommi/Customer/ResGenerator/gcctmp/ccmAfaaa.s 			page 175


2880:mtk_resgenerator.cpp ****         fputs (msg,logfile);
 8206              	LM602:
 8207 6c77 8B45FC   		movl	-4(%ebp), %eax
 8208 6c7a 89442404 		movl	%eax, 4(%esp)
 8209 6c7e 8B450C   		movl	12(%ebp), %eax
 8210 6c81 890424   		movl	%eax, (%esp)
 8211 6c84 E8000000 		call	_fputs
 8211      00
2881:mtk_resgenerator.cpp ****         fclose(logfile);
 8213              	LM603:
 8214 6c89 8B45FC   		movl	-4(%ebp), %eax
 8215 6c8c 890424   		movl	%eax, (%esp)
 8216 6c8f E8000000 		call	_fclose
 8216      00
2882:mtk_resgenerator.cpp ****     }
2883:mtk_resgenerator.cpp **** }
 8218              	LM604:
 8219              	L271:
 8220 6c94 C9       		leave
 8221 6c95 C3       		ret
 8222              	LBE67:
 8226              	Lscope31:
 8228              		.align 2
 8231              	__Z21CATResourceGenerationv:
2884:mtk_resgenerator.cpp **** 
2885:mtk_resgenerator.cpp **** ///////////////////////////////////////////////////////////////////////////////
2886:mtk_resgenerator.cpp **** // CAT Resource Generation
2887:mtk_resgenerator.cpp **** ///////////////////////////////////////////////////////////////////////////////
2888:mtk_resgenerator.cpp **** 
2889:mtk_resgenerator.cpp **** static void CATResourceGeneration(){
 8233              	LM605:
 8234 6c96 55       		pushl	%ebp
 8235 6c97 89E5     		movl	%esp, %ebp
2890:mtk_resgenerator.cpp **** #if defined(__CAT_SUPPORT__) && defined(MMIRESOURCE_CAT_IMG_RESERVED_SIZE_BYTE) && (MMIRESOURCE_CAT
2891:mtk_resgenerator.cpp ****     int reserveSize = MMIRESOURCE_CAT_IMG_RESERVED_SIZE_BYTE;
2892:mtk_resgenerator.cpp ****     CATResGenerator * catObj = new CATResGenerator();
2893:mtk_resgenerator.cpp ****     catObj->setReservedSymbolName("cat_reserved_space");
2894:mtk_resgenerator.cpp ****     catObj->setReservedSymbolFile("..\\..\\Customer\\CustResource\\CustCATReserved.c");
2895:mtk_resgenerator.cpp ****     catObj->setCatSectionName(MMIRESOURCE_CAT_RES_SECTION_NAME_IMG);
2896:mtk_resgenerator.cpp ****     catObj->generate(MMIRESOURCE_CAT_IMG_RESERVED_SIZE_BYTE);
2897:mtk_resgenerator.cpp ****     delete catObj;
2898:mtk_resgenerator.cpp **** #endif
2899:mtk_resgenerator.cpp **** }
 8237              	LM606:
 8238 6c99 5D       		popl	%ebp
 8239 6c9a C3       		ret
 8240              	Lscope32:
 8242              	.globl __ZN25OfflineResPopImageAdaptor33IMAGE_REPLACEBALE_SUPPORT_DISABLEE
 8243              		.bss
 8244              		.align 4
 8245              	__ZN25OfflineResPopImageAdaptor33IMAGE_REPLACEBALE_SUPPORT_DISABLEE:
 8246 0004 00000000 		.space 4
 8247              	.globl __ZN25OfflineResPopImageAdaptor32IMAGE_REPLACEBALE_SUPPORT_ENABLEE
 8248              		.data
 8249              		.align 4
 8250              	__ZN25OfflineResPopImageAdaptor32IMAGE_REPLACEBALE_SUPPORT_ENABLEE:
 8251 0014 01000000 		.long	1
GAS LISTING d:/github/AIOT_WORKSHOP/AIoT_MT2503AVE_SDK/11CW1418SP4_03_CORETEK03AE_11C_V1_GPRS_MMI/plutommi/Customer/ResGenerator/gcctmp/ccmAfaaa.s 			page 176


 8253 0018 00000000 		.text
 8253      00000000 
 8254 6c9b 908D7426 		.align 32
 8254      00
 8255              	LC252:
 8256 6ca0 4F66666C 		.ascii "OfflineResPopController: save the population actions of legacy resource to resource reposi
 8256      696E6552 
 8256      6573506F 
 8256      70436F6E 
 8256      74726F6C 
 8257 6cff 90       		.align 32
 8258              	LC253:
 8259 6d00 6F66666C 		.ascii "offline_pre_xml_legacy_audio_repo.txt\0"
 8259      696E655F 
 8259      7072655F 
 8259      786D6C5F 
 8259      6C656761 
 8260 6d26 90909090 		.align 32
 8260      90909090 
 8260      90909090 
 8260      90909090 
 8260      90909090 
 8261              	LC254:
 8262 6d40 6F66666C 		.ascii "offline_pre_xml_legacy_binary_repo.txt\0"
 8262      696E655F 
 8262      7072655F 
 8262      786D6C5F 
 8262      6C656761 
 8263 6d67 90909090 		.align 32
 8263      90909090 
 8263      90909090 
 8263      90909090 
 8263      90909090 
 8264              	LC255:
 8265 6d80 4F66666C 		.ascii "OfflineResPopController: save the population actions declared by legacy population APIs (O
 8265      696E6552 
 8265      6573506F 
 8265      70436F6E 
 8265      74726F6C 
 8266 6df5 8D742600 		.align 32
 8266      8DBC2700 
 8266      000000
 8267              	LC256:
 8268 6e00 4F66666C 		.ascii "OfflineResPopController: populate resource which can't be populated offline. (Order: befor
 8268      696E6552 
 8268      6573506F 
 8268      70436F6E 
 8268      74726F6C 
 8269 6e6a 90909090 		.align 32
 8269      90909090 
 8269      90909090 
 8269      90909090 
 8269      90909090 
 8270              	LC257:
 8271 6e80 4F66666C 		.ascii "OfflineResPopController: populate XML resource which can't be populated online.\0"
 8271      696E6552 
 8271      6573506F 
GAS LISTING d:/github/AIOT_WORKSHOP/AIoT_MT2503AVE_SDK/11CW1418SP4_03_CORETEK03AE_11C_V1_GPRS_MMI/plutommi/Customer/ResGenerator/gcctmp/ccmAfaaa.s 			page 177


 8271      70436F6E 
 8271      74726F6C 
 8272 6ed0 90909090 		.align 32
 8272      90909090 
 8272      90909090 
 8272      90909090 
 8273              	LC258:
 8274 6ee0 6F66666C 		.ascii "offline_post_xml_legacy_audio_repo.txt\0"
 8274      696E655F 
 8274      706F7374 
 8274      5F786D6C 
 8274      5F6C6567 
 8275 6f07 90909090 		.align 32
 8275      90909090 
 8275      90909090 
 8275      90909090 
 8275      90909090 
 8276              	LC259:
 8277 6f20 6F66666C 		.ascii "offline_post_xml_legacy_binary_repo.txt\0"
 8277      696E655F 
 8277      706F7374 
 8277      5F786D6C 
 8277      5F6C6567 
 8278 6f48 90909090 		.align 32
 8278      90909090 
 8278      90909090 
 8278      90909090 
 8278      90909090 
 8279              	LC260:
 8280 6f60 4F66666C 		.ascii "OfflineResPopController: save the population actions declared by legacy population APIs. (
 8280      696E6552 
 8280      6573506F 
 8280      70436F6E 
 8280      74726F6C 
 8281 6fd5 8D742600 		.align 32
 8281      8DBC2700 
 8281      000000
 8282              	LC261:
 8283 6fe0 4F66666C 		.ascii "OfflineResPopController: populate resource which can't be populated offline. (Order: after
 8283      696E6552 
 8283      6573506F 
 8283      70436F6E 
 8283      74726F6C 
 8284 7049 90909090 		.align 32
 8284      90909090 
 8284      90909090 
 8284      90909090 
 8284      90909090 
 8285              	LC262:
 8286 7060 4F66666C 		.ascii "OfflineResPopController: populate offline legacy resource. (Order: after XML resource)\0"
 8286      696E6552 
 8286      6573506F 
 8286      70436F6E 
 8286      74726F6C 
 8287 70b7 89F68DBC 		.align 32
 8287      27000000 
 8287      00
GAS LISTING d:/github/AIOT_WORKSHOP/AIoT_MT2503AVE_SDK/11CW1418SP4_03_CORETEK03AE_11C_V1_GPRS_MMI/plutommi/Customer/ResGenerator/gcctmp/ccmAfaaa.s 			page 178


 8288              	LC263:
 8289 70c0 4F66666C 		.ascii "OfflineResPopController: populate offline XML resource.\0"
 8289      696E6552 
 8289      6573506F 
 8289      70436F6E 
 8289      74726F6C 
 8290              	LC264:
 8291 70f8 6F66666C 		.ascii "offline_xml_audio_repo.txt\0"
 8291      696E655F 
 8291      786D6C5F 
 8291      61756469 
 8291      6F5F7265 
 8292 7113 90       		.align 2
 8295              	__Z23OfflineResPopControllerv:
2900:mtk_resgenerator.cpp **** 
2901:mtk_resgenerator.cpp **** 
2902:mtk_resgenerator.cpp **** #ifdef  __RESGEN_INTERNAL_OFFLINE__
2903:mtk_resgenerator.cpp **** 
2904:mtk_resgenerator.cpp **** ///////////////////////////////////////////////////////////////////////////////
2905:mtk_resgenerator.cpp **** // Resgen 1.5 (Offline Resgen)
2906:mtk_resgenerator.cpp **** ///////////////////////////////////////////////////////////////////////////////
2907:mtk_resgenerator.cpp **** 
2908:mtk_resgenerator.cpp **** ///////////////////////////////////////////////////////
2909:mtk_resgenerator.cpp **** // Binary Population Adaptor
2910:mtk_resgenerator.cpp **** //////////////////////////////////////////////////////
2911:mtk_resgenerator.cpp **** class OfflineResPopBinaryAdaptor:public OfflineResPopAdaptor{
2912:mtk_resgenerator.cpp **** protected:
2913:mtk_resgenerator.cpp ****     virtual int issueLecacyPopulation(ResPopParam * param)
2914:mtk_resgenerator.cpp ****     {
2915:mtk_resgenerator.cpp ****         char * path = NULL;
2916:mtk_resgenerator.cpp ****         char * enumString = NULL;
2917:mtk_resgenerator.cpp ****         BinaryResParam * binaryParam = (BinaryResParam*)param;
2918:mtk_resgenerator.cpp ****         if(param == NULL){
2919:mtk_resgenerator.cpp ****             cout<<"[ERROR][issueLecacyPopulation] binaryParam can't be NULL"<<endl;
2920:mtk_resgenerator.cpp ****             return -1;
2921:mtk_resgenerator.cpp ****         }
2922:mtk_resgenerator.cpp ****         //         string debugStr("");
2923:mtk_resgenerator.cpp ****         //         binaryParam->toString(&debugStr);
2924:mtk_resgenerator.cpp ****         //         cout<<debugStr<<endl;
2925:mtk_resgenerator.cpp ****         path = new char[binaryParam->getBinaryFilePath()->size()+1];
2926:mtk_resgenerator.cpp ****         enumString = new char[binaryParam->getIdEnumString()->size()+1];
2927:mtk_resgenerator.cpp ****         strcpy(path, binaryParam->getBinaryFilePath()->c_str());
2928:mtk_resgenerator.cpp ****         strcpy(enumString, binaryParam->getIdEnumString()->c_str());	
2929:mtk_resgenerator.cpp **** 
2930:mtk_resgenerator.cpp ****         //cout<<"Populate"<<path<<endl;
2931:mtk_resgenerator.cpp ****         SetBinaryWithBuffer(binaryParam->getIdEnumValue(), path, enumString,(_binary_type_enum)bina
2932:mtk_resgenerator.cpp ****         delete [] path;
2933:mtk_resgenerator.cpp ****         delete [] enumString;
2934:mtk_resgenerator.cpp ****         return 0;
2935:mtk_resgenerator.cpp ****     };
2936:mtk_resgenerator.cpp **** };
2937:mtk_resgenerator.cpp **** ///////////////////////////////////////////////////////
2938:mtk_resgenerator.cpp **** // Audio Population Adaptor
2939:mtk_resgenerator.cpp **** ///////////////////////////////////////////////////////
2940:mtk_resgenerator.cpp **** class OfflineResPopAudioAdaptor:public OfflineResPopAdaptor{
2941:mtk_resgenerator.cpp **** protected:
2942:mtk_resgenerator.cpp ****     virtual int issueLecacyPopulation(ResPopParam * param)
GAS LISTING d:/github/AIOT_WORKSHOP/AIoT_MT2503AVE_SDK/11CW1418SP4_03_CORETEK03AE_11C_V1_GPRS_MMI/plutommi/Customer/ResGenerator/gcctmp/ccmAfaaa.s 			page 179


2943:mtk_resgenerator.cpp ****     {
2944:mtk_resgenerator.cpp ****         char * audioPath = NULL;
2945:mtk_resgenerator.cpp ****         char * enumString = NULL;
2946:mtk_resgenerator.cpp ****         AudioResParam * audioParam = (AudioResParam*)param;
2947:mtk_resgenerator.cpp ****         if(param == NULL){
2948:mtk_resgenerator.cpp ****             cout<<"ERROR!! _audioParam can't be NULL"<<endl;
2949:mtk_resgenerator.cpp ****             return -1;
2950:mtk_resgenerator.cpp ****         }
2951:mtk_resgenerator.cpp ****         //string debugStr("");
2952:mtk_resgenerator.cpp ****         //audioParam->toString(&debugStr);
2953:mtk_resgenerator.cpp ****         //cout<<debugStr<<endl;
2954:mtk_resgenerator.cpp ****         audioPath = new char[audioParam->getAudioFilePath()->size()+1];
2955:mtk_resgenerator.cpp ****         enumString = new char[audioParam->getIdEnumString()->size()+1];
2956:mtk_resgenerator.cpp ****         strcpy(audioPath, audioParam->getAudioFilePath()->c_str());
2957:mtk_resgenerator.cpp ****         strcpy(enumString, audioParam->getIdEnumString()->c_str());	
2958:mtk_resgenerator.cpp **** 
2959:mtk_resgenerator.cpp ****         if(audioParam->getForceType() >= OFFLINE_RESGEN_NO_FORCE_TYPE){
2960:mtk_resgenerator.cpp ****             //cout<<"Populate"<<audioPath<<endl;
2961:mtk_resgenerator.cpp ****             SetAudioWithBuffer(audioParam->getIdEnumValue(), audioPath, enumString, audioParam->get
2962:mtk_resgenerator.cpp ****         }else{
2963:mtk_resgenerator.cpp ****             //cout<<"Populate"<<audioPath<<endl;
2964:mtk_resgenerator.cpp ****             SetAudioWithBufferForceType(audioParam->getIdEnumValue(), audioPath, enumString, audioP
2965:mtk_resgenerator.cpp ****         }
2966:mtk_resgenerator.cpp ****         delete [] audioPath;
2967:mtk_resgenerator.cpp ****         delete [] enumString;
2968:mtk_resgenerator.cpp ****         return 0;
2969:mtk_resgenerator.cpp ****     };
2970:mtk_resgenerator.cpp **** };
2971:mtk_resgenerator.cpp **** 
2972:mtk_resgenerator.cpp **** ///////////////////////////////////////////////////////
2973:mtk_resgenerator.cpp **** // Image Population Adaptor
2974:mtk_resgenerator.cpp **** ///////////////////////////////////////////////////////
2975:mtk_resgenerator.cpp **** class OfflineResPopImageAdaptor:public OfflineResPopAdaptor{
2976:mtk_resgenerator.cpp **** public:
2977:mtk_resgenerator.cpp ****     static int IMAGE_REPLACEBALE_SUPPORT_ENABLE;
2978:mtk_resgenerator.cpp ****     static int IMAGE_REPLACEBALE_SUPPORT_DISABLE;
2979:mtk_resgenerator.cpp ****     
2980:mtk_resgenerator.cpp ****     OfflineResPopImageAdaptor(int replacePoolSupport){
2981:mtk_resgenerator.cpp ****         this->replacePoolSupport = replacePoolSupport;
2982:mtk_resgenerator.cpp ****     }
2983:mtk_resgenerator.cpp **** protected:
2984:mtk_resgenerator.cpp ****     int replacePoolSupport;
2985:mtk_resgenerator.cpp ****     
2986:mtk_resgenerator.cpp ****     virtual int issueLecacyPopulation(ResPopParam * param){
2987:mtk_resgenerator.cpp ****         char * imagePath = NULL;
2988:mtk_resgenerator.cpp ****         char * enumString = NULL;
2989:mtk_resgenerator.cpp ****         int isReplacable = IMAGE_REPLACEBALE_SUPPORT_DISABLE;
2990:mtk_resgenerator.cpp ****         
2991:mtk_resgenerator.cpp ****         ImageResParam * imageParam = (ImageResParam*)param;
2992:mtk_resgenerator.cpp ****         if(imageParam == NULL){
2993:mtk_resgenerator.cpp ****             cout<<"[ERROR] imageParam can't be NULL"<<endl;
2994:mtk_resgenerator.cpp ****             return -1;
2995:mtk_resgenerator.cpp ****         }
2996:mtk_resgenerator.cpp ****         //string debugStr("");
2997:mtk_resgenerator.cpp ****         //imageParam->toString(&debugStr);
2998:mtk_resgenerator.cpp ****         //cout<<debugStr<<endl;
2999:mtk_resgenerator.cpp ****         imagePath = new char[imageParam->getImageFilePath()->size()+1];
GAS LISTING d:/github/AIOT_WORKSHOP/AIoT_MT2503AVE_SDK/11CW1418SP4_03_CORETEK03AE_11C_V1_GPRS_MMI/plutommi/Customer/ResGenerator/gcctmp/ccmAfaaa.s 			page 180


3000:mtk_resgenerator.cpp ****         enumString = new char[imageParam->getIdEnumString()->size()+1];
3001:mtk_resgenerator.cpp ****         strcpy(imagePath, imageParam->getImageFilePath()->c_str());
3002:mtk_resgenerator.cpp ****         strcpy(enumString, imageParam->getIdEnumString()->c_str());	
3003:mtk_resgenerator.cpp **** 
3004:mtk_resgenerator.cpp ****         if(this->replacePoolSupport == IMAGE_REPLACEBALE_SUPPORT_ENABLE){
3005:mtk_resgenerator.cpp ****             isReplacable = imageParam->getIsMultipleBin();
3006:mtk_resgenerator.cpp ****         }else{
3007:mtk_resgenerator.cpp ****             isReplacable = IMAGE_REPLACEBALE_SUPPORT_DISABLE;
3008:mtk_resgenerator.cpp ****         }
3009:mtk_resgenerator.cpp **** 
3010:mtk_resgenerator.cpp ****         if(imageParam->getForceType() >= OFFLINE_RESGEN_NO_FORCE_TYPE){
3011:mtk_resgenerator.cpp ****             //cout<<"Populate"<<imagePath<<endl;
3012:mtk_resgenerator.cpp ****             SetImageQWithBuffer(imageParam->getIdEnumValue(), imagePath, enumString, isReplacable,i
3013:mtk_resgenerator.cpp ****         }else{
3014:mtk_resgenerator.cpp ****             //cout<<"Populate"<<imagePath<<endl;
3015:mtk_resgenerator.cpp ****             SetImageQWithBufferForceType(imageParam->getIdEnumValue(), imagePath, enumString, isRep
3016:mtk_resgenerator.cpp ****         }
3017:mtk_resgenerator.cpp ****         delete [] imagePath;
3018:mtk_resgenerator.cpp ****         delete [] enumString;
3019:mtk_resgenerator.cpp ****         return 0;
3020:mtk_resgenerator.cpp ****     };
3021:mtk_resgenerator.cpp **** };
3022:mtk_resgenerator.cpp **** 
3023:mtk_resgenerator.cpp **** int OfflineResPopImageAdaptor::IMAGE_REPLACEBALE_SUPPORT_DISABLE = 0;
3024:mtk_resgenerator.cpp **** int OfflineResPopImageAdaptor::IMAGE_REPLACEBALE_SUPPORT_ENABLE = 1;
3025:mtk_resgenerator.cpp **** 
3026:mtk_resgenerator.cpp **** ///////////////////////////////////////////////////////
3027:mtk_resgenerator.cpp **** // String Population Adaptor
3028:mtk_resgenerator.cpp **** ///////////////////////////////////////////////////////
3029:mtk_resgenerator.cpp **** class OfflineResPopStringAdaptor:public OfflineResPopAdaptor{
3030:mtk_resgenerator.cpp **** protected:
3031:mtk_resgenerator.cpp ****     virtual int issueLecacyPopulation(ResPopParam * param){
3032:mtk_resgenerator.cpp ****         if(param == NULL){
3033:mtk_resgenerator.cpp ****             return -1;
3034:mtk_resgenerator.cpp ****         }
3035:mtk_resgenerator.cpp ****         StringResParam* item =(StringResParam*)param;
3036:mtk_resgenerator.cpp ****         char * defaultString = new char[item->getDefaultString()->size()+1];
3037:mtk_resgenerator.cpp ****         strcpy(defaultString, item->getDefaultString()->c_str());
3038:mtk_resgenerator.cpp ****         char * enumString = new char[item->getIdEnumString()->size()+1];
3039:mtk_resgenerator.cpp ****         strcpy(enumString, item->getIdEnumString()->c_str());	
3040:mtk_resgenerator.cpp ****         //cout<<item->getIdEnumValue() << defaultString<< enumString<<endl;
3041:mtk_resgenerator.cpp ****         SetString(item->getIdEnumValue(),defaultString,enumString);
3042:mtk_resgenerator.cpp ****         delete [] defaultString;
3043:mtk_resgenerator.cpp ****         delete [] enumString;
3044:mtk_resgenerator.cpp ****         return 0;
3045:mtk_resgenerator.cpp ****     };
3046:mtk_resgenerator.cpp **** };
3047:mtk_resgenerator.cpp **** 
3048:mtk_resgenerator.cpp **** class OfflineResPopService{
3049:mtk_resgenerator.cpp **** private:
3050:mtk_resgenerator.cpp ****     void populateResource(ResParamModel* modelObj, char * dbFile, ParamTextFileDAO * daoObj, Offlin
3051:mtk_resgenerator.cpp ****         modelObj->setRepositoryFileName(dbFile);
3052:mtk_resgenerator.cpp ****         modelObj->loadFromRepository(daoObj);
3053:mtk_resgenerator.cpp ****         resPopulator->setResPopModel(modelObj);
3054:mtk_resgenerator.cpp ****         resPopulator->populate();
3055:mtk_resgenerator.cpp ****     };
3056:mtk_resgenerator.cpp **** 
GAS LISTING d:/github/AIOT_WORKSHOP/AIoT_MT2503AVE_SDK/11CW1418SP4_03_CORETEK03AE_11C_V1_GPRS_MMI/plutommi/Customer/ResGenerator/gcctmp/ccmAfaaa.s 			page 181


3057:mtk_resgenerator.cpp **** public:
3058:mtk_resgenerator.cpp ****     void populateBinaryResource(char * dbFile){
3059:mtk_resgenerator.cpp ****         ResParamModel * paramModel = new ResParamModel();
3060:mtk_resgenerator.cpp ****         // Enable redundant population for 3D binary resgen
3061:mtk_resgenerator.cpp ****         paramModel->setRedundantAllowed(ResParamModel::REDUNDANT_ALLOWDED_ENABLE);
3062:mtk_resgenerator.cpp **** 
3063:mtk_resgenerator.cpp ****         BinaryParamTextFileDAO * daoObj = new BinaryParamTextFileDAO();
3064:mtk_resgenerator.cpp ****         OfflineResPopulator * resPopulator = new OfflineResPopBinaryAdaptor();
3065:mtk_resgenerator.cpp **** 
3066:mtk_resgenerator.cpp ****         populateResource(paramModel,dbFile,daoObj,resPopulator);
3067:mtk_resgenerator.cpp **** 
3068:mtk_resgenerator.cpp ****         delete paramModel;
3069:mtk_resgenerator.cpp ****         delete resPopulator;
3070:mtk_resgenerator.cpp ****         delete daoObj;
3071:mtk_resgenerator.cpp ****     }
3072:mtk_resgenerator.cpp **** 
3073:mtk_resgenerator.cpp **** 
3074:mtk_resgenerator.cpp ****     void populateAudioResource(char * dbFile){
3075:mtk_resgenerator.cpp ****         ResParamModel * paramModel = new ResParamModel();
3076:mtk_resgenerator.cpp ****         AudioParamTextFileDAO * daoObj = new AudioParamTextFileDAO();
3077:mtk_resgenerator.cpp ****         OfflineResPopulator * resPopulator = new OfflineResPopAudioAdaptor();
3078:mtk_resgenerator.cpp **** 
3079:mtk_resgenerator.cpp ****         populateResource(paramModel,dbFile,daoObj,resPopulator);
3080:mtk_resgenerator.cpp **** 
3081:mtk_resgenerator.cpp ****         delete paramModel;
3082:mtk_resgenerator.cpp ****         delete resPopulator;
3083:mtk_resgenerator.cpp ****         delete daoObj;
3084:mtk_resgenerator.cpp ****     }
3085:mtk_resgenerator.cpp **** 
3086:mtk_resgenerator.cpp **** 
3087:mtk_resgenerator.cpp **** 
3088:mtk_resgenerator.cpp ****     void populateImageResource(char * dbFile){
3089:mtk_resgenerator.cpp ****         ResParamModel * paramModel = new ResParamModel();
3090:mtk_resgenerator.cpp ****         ImageParamTextFileDAO * daoObj = new ImageParamTextFileDAO();
3091:mtk_resgenerator.cpp ****         int isReplacePoolSupport = OfflineResPopImageAdaptor::IMAGE_REPLACEBALE_SUPPORT_DISABLE;
3092:mtk_resgenerator.cpp **** #if defined(__NFB_THIRD_ROM_SUPPORT__) && !defined( __MULTIPLE_BINARY_FILES__) && !defined(__CAT_SU
3093:mtk_resgenerator.cpp ****         isReplacePoolSupport = OfflineResPopImageAdaptor::IMAGE_REPLACEBALE_SUPPORT_DISABLE;
3094:mtk_resgenerator.cpp **** #else
3095:mtk_resgenerator.cpp ****         isReplacePoolSupport = OfflineResPopImageAdaptor::IMAGE_REPLACEBALE_SUPPORT_ENABLE;
3096:mtk_resgenerator.cpp **** #endif //__NFB_THIRD_ROM_SUPPORT__ && !( __MULTIPLE_BINARY_FILES__) && !(__CAT_SUPPORT__)
3097:mtk_resgenerator.cpp ****         
3098:mtk_resgenerator.cpp ****         OfflineResPopulator * resPopulator = new OfflineResPopImageAdaptor(isReplacePoolSupport);
3099:mtk_resgenerator.cpp **** 
3100:mtk_resgenerator.cpp ****         populateResource(paramModel,dbFile,daoObj,resPopulator);
3101:mtk_resgenerator.cpp **** 
3102:mtk_resgenerator.cpp ****         delete paramModel;
3103:mtk_resgenerator.cpp ****         delete resPopulator;
3104:mtk_resgenerator.cpp ****         delete daoObj;
3105:mtk_resgenerator.cpp ****     }
3106:mtk_resgenerator.cpp **** 
3107:mtk_resgenerator.cpp **** 
3108:mtk_resgenerator.cpp **** 
3109:mtk_resgenerator.cpp ****     void populateStringResource(char * dbFile){
3110:mtk_resgenerator.cpp ****         ResParamModel * paramModel = new ResParamModel();
3111:mtk_resgenerator.cpp ****         StringParamTextFileDAO * daoObj = new StringParamTextFileDAO();
3112:mtk_resgenerator.cpp ****         OfflineResPopulator * resPopulator = new OfflineResPopStringAdaptor();
3113:mtk_resgenerator.cpp **** 
GAS LISTING d:/github/AIOT_WORKSHOP/AIoT_MT2503AVE_SDK/11CW1418SP4_03_CORETEK03AE_11C_V1_GPRS_MMI/plutommi/Customer/ResGenerator/gcctmp/ccmAfaaa.s 			page 182


3114:mtk_resgenerator.cpp ****         populateResource(paramModel,dbFile,daoObj,resPopulator);
3115:mtk_resgenerator.cpp **** 
3116:mtk_resgenerator.cpp ****         delete paramModel;
3117:mtk_resgenerator.cpp ****         delete resPopulator;
3118:mtk_resgenerator.cpp ****         delete daoObj;
3119:mtk_resgenerator.cpp ****     }
3120:mtk_resgenerator.cpp **** 
3121:mtk_resgenerator.cpp **** 
3122:mtk_resgenerator.cpp **** };
3123:mtk_resgenerator.cpp **** 
3124:mtk_resgenerator.cpp **** //////////////////////////////////////////////////////////////////////////////
3125:mtk_resgenerator.cpp **** // Controller function of Offline Res Population
3126:mtk_resgenerator.cpp **** //////////////////////////////////////////////////////////////////////////////
3127:mtk_resgenerator.cpp **** 
3128:mtk_resgenerator.cpp **** static void OfflineResPopController(){
 8297              	LM607:
 8298 7114 55       		pushl	%ebp
 8299 7115 89E5     		movl	%esp, %ebp
 8300 7117 83EC18   		subl	$24, %esp
3129:mtk_resgenerator.cpp ****     RESGEN_LOG_V("OfflineResPopController: save the population actions of legacy resource to resour
 8302              	LM608:
 8303              	LBB68:
 8304 711a C7442408 		movl	$LC252, 8(%esp)
 8304      A06C0000 
 8305 7122 C7442404 		movl	$LC1, 4(%esp)
 8305      3E000000 
 8306 712a C7042401 		movl	$1, (%esp)
 8306      000000
 8307 7131 E8000000 		call	_reslog_adaptor_log
 8307      00
3130:mtk_resgenerator.cpp **** 
3131:mtk_resgenerator.cpp ****     // Open Param DB for legacy resources	
3132:mtk_resgenerator.cpp **** #ifndef __POPULATE_NO_STRING_DATA__
3133:mtk_resgenerator.cpp ****     StringAdaptorStartOfflinePopulation(DEFAULT_OFFLINE_PRE_XML_LEGACY_STRING_DB);
3134:mtk_resgenerator.cpp **** #endif
3135:mtk_resgenerator.cpp **** 
3136:mtk_resgenerator.cpp **** #ifndef __POPULATE_NO_IMAGE_DATA__
3137:mtk_resgenerator.cpp ****     ImageAdaptorStartOfflinePopulation(DEFAULT_OFFLINE_PRE_XML_LEGACY_IMAGE_DB);
3138:mtk_resgenerator.cpp **** #endif
3139:mtk_resgenerator.cpp ****     AudioAdaptorStartOfflinePopulation(DEFAULT_OFFLINE_PRE_XML_LEGACY_AUDIO_DB);
 8309              	LM609:
 8310 7136 C7042400 		movl	$LC253, (%esp)
 8310      6D0000
 8311 713d E8000000 		call	_AudioAdaptorStartOfflinePopulation
 8311      00
3140:mtk_resgenerator.cpp ****     BinaryAdaptorStartOfflinePopulation(DEFAULT_OFFLINE_PRE_XML_LEGACY_BINARY_DB);
 8313              	LM610:
 8314 7142 C7042440 		movl	$LC254, (%esp)
 8314      6D0000
 8315 7149 E8000000 		call	_BinaryAdaptorStartOfflinePopulation
 8315      00
3141:mtk_resgenerator.cpp **** 
3142:mtk_resgenerator.cpp ****     // Start Legacy native resoruce Popualtion
3143:mtk_resgenerator.cpp ****     ResPopInitAll();
 8317              	LM611:
 8318 714e E8000000 		call	_ResPopInitAll
 8318      00
GAS LISTING d:/github/AIOT_WORKSHOP/AIoT_MT2503AVE_SDK/11CW1418SP4_03_CORETEK03AE_11C_V1_GPRS_MMI/plutommi/Customer/ResGenerator/gcctmp/ccmAfaaa.s 			page 183


3144:mtk_resgenerator.cpp **** 
3145:mtk_resgenerator.cpp ****     RESGEN_LOG_V("OfflineResPopController: save the population actions declared by legacy populatio
 8320              	LM612:
 8321 7153 C7442408 		movl	$LC255, 8(%esp)
 8321      806D0000 
 8322 715b C7442404 		movl	$LC1, 4(%esp)
 8322      3E000000 
 8323 7163 C7042401 		movl	$1, (%esp)
 8323      000000
 8324 716a E8000000 		call	_reslog_adaptor_log
 8324      00
3146:mtk_resgenerator.cpp ****     RESGEN_LOG_V("OfflineResPopController: populate resource which can't be populated offline. (Ord
 8326              	LM613:
 8327 716f C7442408 		movl	$LC256, 8(%esp)
 8327      006E0000 
 8328 7177 C7442404 		movl	$LC1, 4(%esp)
 8328      3E000000 
 8329 717f C7042401 		movl	$1, (%esp)
 8329      000000
 8330 7186 E8000000 		call	_reslog_adaptor_log
 8330      00
3147:mtk_resgenerator.cpp **** 
3148:mtk_resgenerator.cpp ****     PopulateResDataPreXML();
 8332              	LM614:
 8333 718b E8000000 		call	_PopulateResDataPreXML
 8333      00
3149:mtk_resgenerator.cpp **** #ifndef __POPULATE_NO_STRING_DATA__
3150:mtk_resgenerator.cpp ****     StringAdaptorStopOfflinePopulation();
3151:mtk_resgenerator.cpp **** #endif
3152:mtk_resgenerator.cpp **** 
3153:mtk_resgenerator.cpp **** #ifndef __POPULATE_NO_IMAGE_DATA__
3154:mtk_resgenerator.cpp ****     ImageAdaptorStopOfflinePopulation();
3155:mtk_resgenerator.cpp **** #endif
3156:mtk_resgenerator.cpp ****     AudioAdaptorStopOfflinePopulation();
 8335              	LM615:
 8336 7190 E8000000 		call	_AudioAdaptorStopOfflinePopulation
 8336      00
3157:mtk_resgenerator.cpp ****     BinaryAdaptorStopOfflinePopulation();
 8338              	LM616:
 8339 7195 E8000000 		call	_BinaryAdaptorStopOfflinePopulation
 8339      00
3158:mtk_resgenerator.cpp **** 
3159:mtk_resgenerator.cpp ****     RESGEN_LOG_V("OfflineResPopController: populate XML resource which can't be populated online.")
 8341              	LM617:
 8342 719a C7442408 		movl	$LC257, 8(%esp)
 8342      806E0000 
 8343 71a2 C7442404 		movl	$LC1, 4(%esp)
 8343      3E000000 
 8344 71aa C7042401 		movl	$1, (%esp)
 8344      000000
 8345 71b1 E8000000 		call	_reslog_adaptor_log
 8345      00
3160:mtk_resgenerator.cpp ****     // Start XML native resource Population
3161:mtk_resgenerator.cpp ****     PopulateResDataXML();
 8347              	LM618:
 8348 71b6 E8000000 		call	_PopulateResDataXML
 8348      00
GAS LISTING d:/github/AIOT_WORKSHOP/AIoT_MT2503AVE_SDK/11CW1418SP4_03_CORETEK03AE_11C_V1_GPRS_MMI/plutommi/Customer/ResGenerator/gcctmp/ccmAfaaa.s 			page 184


3162:mtk_resgenerator.cpp **** 
3163:mtk_resgenerator.cpp ****     // Start Legacy native resoruce Popualtion (for thos resource must be populated after XML resou
3164:mtk_resgenerator.cpp **** #ifndef __POPULATE_NO_STRING_DATA__
3165:mtk_resgenerator.cpp ****     StringAdaptorStartOfflinePopulation(DEFAULT_OFFLINE_POST_XML_LEGACY_STRING_DB);
3166:mtk_resgenerator.cpp **** #endif
3167:mtk_resgenerator.cpp **** 
3168:mtk_resgenerator.cpp **** #ifndef __POPULATE_NO_IMAGE_DATA__
3169:mtk_resgenerator.cpp ****     ImageAdaptorStartOfflinePopulation(DEFAULT_OFFLINE_POST_XML_LEGACY_IMAGE_DB);
3170:mtk_resgenerator.cpp **** #endif
3171:mtk_resgenerator.cpp ****     AudioAdaptorStartOfflinePopulation(DEFAULT_OFFLINE_POST_XML_LEGACY_AUDIO_DB);
 8350              	LM619:
 8351 71bb C70424E0 		movl	$LC258, (%esp)
 8351      6E0000
 8352 71c2 E8000000 		call	_AudioAdaptorStartOfflinePopulation
 8352      00
3172:mtk_resgenerator.cpp ****     BinaryAdaptorStartOfflinePopulation(DEFAULT_OFFLINE_POST_XML_LEGACY_BINARY_DB);
 8354              	LM620:
 8355 71c7 C7042420 		movl	$LC259, (%esp)
 8355      6F0000
 8356 71ce E8000000 		call	_BinaryAdaptorStartOfflinePopulation
 8356      00
3173:mtk_resgenerator.cpp **** 
3174:mtk_resgenerator.cpp ****     RESGEN_LOG_V("OfflineResPopController: save the population actions declared by legacy populatio
 8358              	LM621:
 8359 71d3 C7442408 		movl	$LC260, 8(%esp)
 8359      606F0000 
 8360 71db C7442404 		movl	$LC1, 4(%esp)
 8360      3E000000 
 8361 71e3 C7042401 		movl	$1, (%esp)
 8361      000000
 8362 71ea E8000000 		call	_reslog_adaptor_log
 8362      00
3175:mtk_resgenerator.cpp ****     RESGEN_LOG_V("OfflineResPopController: populate resource which can't be populated offline. (Ord
 8364              	LM622:
 8365 71ef C7442408 		movl	$LC261, 8(%esp)
 8365      E06F0000 
 8366 71f7 C7442404 		movl	$LC1, 4(%esp)
 8366      3E000000 
 8367 71ff C7042401 		movl	$1, (%esp)
 8367      000000
 8368 7206 E8000000 		call	_reslog_adaptor_log
 8368      00
3176:mtk_resgenerator.cpp ****     PopulateResDataPostXML();
 8370              	LM623:
 8371 720b E8000000 		call	_PopulateResDataPostXML
 8371      00
3177:mtk_resgenerator.cpp **** 
3178:mtk_resgenerator.cpp **** #ifndef __POPULATE_NO_STRING_DATA__
3179:mtk_resgenerator.cpp ****     StringAdaptorStopOfflinePopulation();
3180:mtk_resgenerator.cpp **** #endif
3181:mtk_resgenerator.cpp **** 
3182:mtk_resgenerator.cpp **** #ifndef __POPULATE_NO_IMAGE_DATA__
3183:mtk_resgenerator.cpp ****     ImageAdaptorStopOfflinePopulation();
3184:mtk_resgenerator.cpp **** #endif
3185:mtk_resgenerator.cpp ****     AudioAdaptorStopOfflinePopulation();
 8373              	LM624:
 8374 7210 E8000000 		call	_AudioAdaptorStopOfflinePopulation
GAS LISTING d:/github/AIOT_WORKSHOP/AIoT_MT2503AVE_SDK/11CW1418SP4_03_CORETEK03AE_11C_V1_GPRS_MMI/plutommi/Customer/ResGenerator/gcctmp/ccmAfaaa.s 			page 185


 8374      00
3186:mtk_resgenerator.cpp ****     BinaryAdaptorStopOfflinePopulation();
 8376              	LM625:
 8377 7215 E8000000 		call	_BinaryAdaptorStopOfflinePopulation
 8377      00
3187:mtk_resgenerator.cpp **** 
3188:mtk_resgenerator.cpp **** 
3189:mtk_resgenerator.cpp ****     // Do Offline Population with OfflineResPopService objects
3190:mtk_resgenerator.cpp ****     OfflineResPopService * offlineResPopService= new OfflineResPopService();
 8379              	LM626:
 8380 721a C7042401 		movl	$1, (%esp)
 8380      000000
 8381 7221 E8000000 		call	__Znwj
 8381      00
 8382 7226 8945FC   		movl	%eax, -4(%ebp)
 8383              	L277:
3191:mtk_resgenerator.cpp **** 
3192:mtk_resgenerator.cpp ****     RESGEN_LOG_V("OfflineResPopController: populate offline legacy resource. (Order: after XML reso
 8385              	LM627:
 8386 7229 C7442408 		movl	$LC262, 8(%esp)
 8386      60700000 
 8387 7231 C7442404 		movl	$LC1, 4(%esp)
 8387      3E000000 
 8388 7239 C7042401 		movl	$1, (%esp)
 8388      000000
 8389 7240 E8000000 		call	_reslog_adaptor_log
 8389      00
3193:mtk_resgenerator.cpp **** 
3194:mtk_resgenerator.cpp ****     //Note: Binary resource population has been moved to python scripts.
3195:mtk_resgenerator.cpp **** 
3196:mtk_resgenerator.cpp ****     // Native resourc population
3197:mtk_resgenerator.cpp **** #ifndef __POPULATE_NO_STRING_DATA__
3198:mtk_resgenerator.cpp ****     offlineResPopService->populateStringResource(DEFAULT_OFFLINE_PRE_XML_LEGACY_STRING_DB);
3199:mtk_resgenerator.cpp **** #endif
3200:mtk_resgenerator.cpp **** 
3201:mtk_resgenerator.cpp **** #ifndef __POPULATE_NO_IMAGE_DATA__
3202:mtk_resgenerator.cpp ****     offlineResPopService->populateImageResource(DEFAULT_OFFLINE_PRE_XML_LEGACY_IMAGE_DB);
3203:mtk_resgenerator.cpp **** #endif
3204:mtk_resgenerator.cpp ****     offlineResPopService->populateAudioResource(DEFAULT_OFFLINE_PRE_XML_LEGACY_AUDIO_DB);
 8391              	LM628:
 8392 7245 C7442404 		movl	$LC253, 4(%esp)
 8392      006D0000 
 8393 724d 8B45FC   		movl	-4(%ebp), %eax
 8394 7250 890424   		movl	%eax, (%esp)
 8395 7253 E8000000 		call	__ZN20OfflineResPopService21populateAudioResourceEPc
 8395      00
3205:mtk_resgenerator.cpp **** 
3206:mtk_resgenerator.cpp ****     RESGEN_LOG_V("OfflineResPopController: populate offline XML resource.");
 8397              	LM629:
 8398 7258 C7442408 		movl	$LC263, 8(%esp)
 8398      C0700000 
 8399 7260 C7442404 		movl	$LC1, 4(%esp)
 8399      3E000000 
 8400 7268 C7042401 		movl	$1, (%esp)
 8400      000000
 8401 726f E8000000 		call	_reslog_adaptor_log
 8401      00
GAS LISTING d:/github/AIOT_WORKSHOP/AIoT_MT2503AVE_SDK/11CW1418SP4_03_CORETEK03AE_11C_V1_GPRS_MMI/plutommi/Customer/ResGenerator/gcctmp/ccmAfaaa.s 			page 186


3207:mtk_resgenerator.cpp **** 
3208:mtk_resgenerator.cpp ****     // XML resource population
3209:mtk_resgenerator.cpp **** #ifndef __POPULATE_NO_STRING_DATA__
3210:mtk_resgenerator.cpp ****     offlineResPopService->populateStringResource(DEFAULT_OFFLINE_XML_STRING_DB);
3211:mtk_resgenerator.cpp **** #endif
3212:mtk_resgenerator.cpp **** 
3213:mtk_resgenerator.cpp **** #ifndef __POPULATE_NO_IMAGE_DATA__
3214:mtk_resgenerator.cpp ****     offlineResPopService->populateImageResource(DEFAULT_OFFLINE_XML_IMAGE_DB);
3215:mtk_resgenerator.cpp **** #endif
3216:mtk_resgenerator.cpp ****     offlineResPopService->populateAudioResource(DEFAULT_OFFLINE_XML_AUDIO_DB);
 8403              	LM630:
 8404 7274 C7442404 		movl	$LC264, 4(%esp)
 8404      F8700000 
 8405 727c 8B45FC   		movl	-4(%ebp), %eax
 8406 727f 890424   		movl	%eax, (%esp)
 8407 7282 E8000000 		call	__ZN20OfflineResPopService21populateAudioResourceEPc
 8407      00
3217:mtk_resgenerator.cpp **** 
3218:mtk_resgenerator.cpp ****     RESGEN_LOG_V("OfflineResPopController: populate offline legacy resource. (Order: after XML reso
 8409              	LM631:
 8410 7287 C7442408 		movl	$LC262, 8(%esp)
 8410      60700000 
 8411 728f C7442404 		movl	$LC1, 4(%esp)
 8411      3E000000 
 8412 7297 C7042401 		movl	$1, (%esp)
 8412      000000
 8413 729e E8000000 		call	_reslog_adaptor_log
 8413      00
3219:mtk_resgenerator.cpp ****     // Native resource population (for thos resource must be populated after XML resource populatio
3220:mtk_resgenerator.cpp **** #ifndef __POPULATE_NO_STRING_DATA__
3221:mtk_resgenerator.cpp ****     offlineResPopService->populateStringResource(DEFAULT_OFFLINE_POST_XML_LEGACY_STRING_DB);
3222:mtk_resgenerator.cpp **** #endif
3223:mtk_resgenerator.cpp **** 
3224:mtk_resgenerator.cpp **** #ifndef __POPULATE_NO_IMAGE_DATA__
3225:mtk_resgenerator.cpp ****     offlineResPopService->populateImageResource(DEFAULT_OFFLINE_POST_XML_LEGACY_IMAGE_DB);
3226:mtk_resgenerator.cpp **** #endif
3227:mtk_resgenerator.cpp ****     offlineResPopService->populateAudioResource(DEFAULT_OFFLINE_POST_XML_LEGACY_AUDIO_DB);
 8415              	LM632:
 8416 72a3 C7442404 		movl	$LC258, 4(%esp)
 8416      E06E0000 
 8417 72ab 8B45FC   		movl	-4(%ebp), %eax
 8418 72ae 890424   		movl	%eax, (%esp)
 8419 72b1 E8000000 		call	__ZN20OfflineResPopService21populateAudioResourceEPc
 8419      00
3228:mtk_resgenerator.cpp **** 
3229:mtk_resgenerator.cpp ****     // Stop Legacy native resoruce Popualtion
3230:mtk_resgenerator.cpp ****     ResPopDeinitAll();
 8421              	LM633:
 8422 72b6 E8000000 		call	_ResPopDeinitAll
 8422      00
3231:mtk_resgenerator.cpp **** 
3232:mtk_resgenerator.cpp ****     delete offlineResPopService;
 8424              	LM634:
 8425 72bb 8B45FC   		movl	-4(%ebp), %eax
 8426 72be 890424   		movl	%eax, (%esp)
 8427 72c1 E8000000 		call	__ZdlPv
 8427      00
GAS LISTING d:/github/AIOT_WORKSHOP/AIoT_MT2503AVE_SDK/11CW1418SP4_03_CORETEK03AE_11C_V1_GPRS_MMI/plutommi/Customer/ResGenerator/gcctmp/ccmAfaaa.s 			page 187


3233:mtk_resgenerator.cpp **** }
 8429              	LM635:
 8430 72c6 C9       		leave
 8431 72c7 C3       		ret
 8432              	L276:
 8433              	LBE68:
 8437              	Lscope33:
 8444 72c8 90909090 		.align 32
 8444      90909090 
 8444      90909090 
 8444      90909090 
 8444      90909090 
 8445              	LC265:
 8446 72e0 72657367 		.ascii "resgen_xml_3d_meta_handle.py : Populate 3D meta data, Root = ..\\\\..\\\\Customer\\\\Image
 8446      656E5F78 
 8446      6D6C5F33 
 8446      645F6D65 
 8446      74615F68 
 8447 734b 90909090 		.align 32
 8447      90909090 
 8447      90909090 
 8447      90909090 
 8447      90909090 
 8448              	LC266:
 8449 7360 2E2E5C2E 		.ascii "..\\..\\..\\tools\\python25\\python resgen_xml_3d_meta_handle.py ..\\\\..\\\\Customer\\\\I
 8449      2E5C2E2E 
 8449      5C746F6F 
 8449      6C735C70 
 8449      7974686F 
 8450 73ca 90909090 		.align 32
 8450      90909090 
 8450      90909090 
 8450      90909090 
 8450      90909090 
 8451              	LC267:
 8452 73e0 4572726F 		.ascii "Error!! Meta resource for Binary 3D population failed!! External python script resgen_xml_
 8452      72212120 
 8452      4D657461 
 8452      20726573 
 8452      6F757263 
 8453 745a 8DB60000 		.align 32
 8453      0000
 8454              	LC268:
 8455 7460 506C6561 		.ascii "Please check the error message of the tag Py-RESGEN_XML_3D_META_HANDLE in this log file\0"
 8455      73652063 
 8455      6865636B 
 8455      20746865 
 8455      20657272 
 8456 74b8 908DB426 		.align 32
 8456      00000000 
 8457              	LC269:
 8458 74c0 45787465 		.ascii "External python script resgen_xml_3d_meta_handle return error.\0"
 8458      726E616C 
 8458      20707974 
 8458      686F6E20 
 8458      73637269 
 8459 74ff 90       		.align 32
GAS LISTING d:/github/AIOT_WORKSHOP/AIoT_MT2503AVE_SDK/11CW1418SP4_03_CORETEK03AE_11C_V1_GPRS_MMI/plutommi/Customer/ResGenerator/gcctmp/ccmAfaaa.s 			page 188


 8460              	LC270:
 8461 7500 4572726F 		.ascii "Error!! Meta resource for Binary 3D population failed!!\0"
 8461      72212120 
 8461      4D657461 
 8461      20726573 
 8461      6F757263 
 8462 7538 908DB426 		.align 32
 8462      00000000 
 8463              	LC271:
 8464 7540 0A2A2A20 		.ascii "\12** External python script resgen_xml_3d_meta_handle.py return error. \12** Meta resourc
 8464      45787465 
 8464      726E616C 
 8464      20707974 
 8464      686F6E20 
 8465 7629 90       		.align 2
 8468              	__Z23prepare3DMetaPopulationv:
3234:mtk_resgenerator.cpp **** 
3235:mtk_resgenerator.cpp **** #endif //#ifdef  __RESGEN_INTERNAL_OFFLINE__
3236:mtk_resgenerator.cpp **** 
3237:mtk_resgenerator.cpp **** 
3238:mtk_resgenerator.cpp **** #ifdef __REGEN_INTERNAL_BATCHED__ 
3239:mtk_resgenerator.cpp **** 
3240:mtk_resgenerator.cpp **** ///////////////////////////////////////////////////////
3241:mtk_resgenerator.cpp **** // Batched Resource File Generation Service
3242:mtk_resgenerator.cpp **** ///////////////////////////////////////////////////////
3243:mtk_resgenerator.cpp **** 
3244:mtk_resgenerator.cpp **** class BatchedResFileGenService{
3245:mtk_resgenerator.cpp **** 
3246:mtk_resgenerator.cpp **** private:
3247:mtk_resgenerator.cpp ****     // Open dest file
3248:mtk_resgenerator.cpp ****     int initResFileOutput(char * destFileName){
3249:mtk_resgenerator.cpp ****         int resultFailFlag = 0;
3250:mtk_resgenerator.cpp **** 
3251:mtk_resgenerator.cpp ****         dest_file = fopen(destFileName, "wb");
3252:mtk_resgenerator.cpp ****         if (dest_file == NULL){
3253:mtk_resgenerator.cpp ****             resultFailFlag = -1;
3254:mtk_resgenerator.cpp ****             cout<<"dest_file could not open!\n"<<endl;
3255:mtk_resgenerator.cpp ****         }
3256:mtk_resgenerator.cpp **** 
3257:mtk_resgenerator.cpp ****         toolFlag = 1;
3258:mtk_resgenerator.cpp ****         ToolPopulateInitial();
3259:mtk_resgenerator.cpp ****         return resultFailFlag;
3260:mtk_resgenerator.cpp ****     }
3261:mtk_resgenerator.cpp ****     // Close dest file
3262:mtk_resgenerator.cpp ****     int deInitResFileOutput(){
3263:mtk_resgenerator.cpp ****         if(dest_file != NULL)
3264:mtk_resgenerator.cpp ****         {
3265:mtk_resgenerator.cpp ****             fclose(dest_file);
3266:mtk_resgenerator.cpp ****         }
3267:mtk_resgenerator.cpp ****         dest_file = NULL;
3268:mtk_resgenerator.cpp ****         return 0;
3269:mtk_resgenerator.cpp ****     }
3270:mtk_resgenerator.cpp **** 
3271:mtk_resgenerator.cpp **** public:
3272:mtk_resgenerator.cpp ****     // Read bached resgen source and destination file from the path batchedFileName
3273:mtk_resgenerator.cpp ****     // and generate resrouces 
3274:mtk_resgenerator.cpp ****     int generateResource(char * batchedFileName){
GAS LISTING d:/github/AIOT_WORKSHOP/AIoT_MT2503AVE_SDK/11CW1418SP4_03_CORETEK03AE_11C_V1_GPRS_MMI/plutommi/Customer/ResGenerator/gcctmp/ccmAfaaa.s 			page 189


3275:mtk_resgenerator.cpp ****         int result = 0;
3276:mtk_resgenerator.cpp ****         ResFileGenParamModel * model = new ResFileGenParamModel();
3277:mtk_resgenerator.cpp ****         model->setRepositoryFileName(batchedFileName);
3278:mtk_resgenerator.cpp ****         ResFileGenParamTextFileDAO * dao = new ResFileGenParamTextFileDAO();
3279:mtk_resgenerator.cpp ****         model->loadFromRepository(dao);
3280:mtk_resgenerator.cpp ****         vector<ResFileGenParam *> * params = model->getAllResFileGenParam();
3281:mtk_resgenerator.cpp **** 
3282:mtk_resgenerator.cpp ****         for(unsigned int i=0;i<params->size();i++){
3283:mtk_resgenerator.cpp ****             ResFileGenParam * item = (*(params))[i];
3284:mtk_resgenerator.cpp ****             if(item != NULL){
3285:mtk_resgenerator.cpp ****                 char * srcPath = new char[item->getSrcPath()->size()+1];
3286:mtk_resgenerator.cpp ****                 strcpy(srcPath, item->getSrcPath()->c_str());
3287:mtk_resgenerator.cpp ****                 char * destPath = new char[item->getDestPath()->size()+1];
3288:mtk_resgenerator.cpp ****                 strcpy(destPath, item->getDestPath()->c_str());	 
3289:mtk_resgenerator.cpp ****                 int type = item->getType();
3290:mtk_resgenerator.cpp ****                 if(type == ResFileGenParam::IMAGE_TYPE){
3291:mtk_resgenerator.cpp ****                     if(generateImageRes(srcPath,destPath)!=0){
3292:mtk_resgenerator.cpp ****                         RESGEN_LOG_E("[IMAGE] File mode: %s, %s", srcPath, destPath);
3293:mtk_resgenerator.cpp ****                         result = -1;
3294:mtk_resgenerator.cpp **** 
3295:mtk_resgenerator.cpp ****                     }
3296:mtk_resgenerator.cpp ****                 }else if (type == ResFileGenParam::FONT_TYPE){
3297:mtk_resgenerator.cpp ****                     if(generateFontRes(srcPath,destPath)!=0){
3298:mtk_resgenerator.cpp ****                         RESGEN_LOG_E("[Font] File mode: %s, %s", srcPath, destPath);
3299:mtk_resgenerator.cpp ****                         result = -1;
3300:mtk_resgenerator.cpp ****                     }
3301:mtk_resgenerator.cpp ****                 }else if (type ==ResFileGenParam::AUDIO_TYPE){
3302:mtk_resgenerator.cpp ****                     if(generateAudioRes(srcPath,destPath)!=0){
3303:mtk_resgenerator.cpp ****                         RESGEN_LOG_E("[Audio] File mode: %s, %s", srcPath, destPath);
3304:mtk_resgenerator.cpp ****                         result = -1;
3305:mtk_resgenerator.cpp ****                     }
3306:mtk_resgenerator.cpp ****                 }
3307:mtk_resgenerator.cpp **** 
3308:mtk_resgenerator.cpp ****                 delete srcPath;
3309:mtk_resgenerator.cpp ****                 delete destPath;
3310:mtk_resgenerator.cpp **** 
3311:mtk_resgenerator.cpp ****             }
3312:mtk_resgenerator.cpp **** 
3313:mtk_resgenerator.cpp ****         }
3314:mtk_resgenerator.cpp ****         model->clear();	
3315:mtk_resgenerator.cpp ****         delete model;
3316:mtk_resgenerator.cpp ****         delete dao;
3317:mtk_resgenerator.cpp ****         return result;
3318:mtk_resgenerator.cpp ****     }
3319:mtk_resgenerator.cpp **** 
3320:mtk_resgenerator.cpp ****     int generateAudioRes(char * srcFileFileName, char * destFileName){
3321:mtk_resgenerator.cpp ****         int resourceLoadResult = 0;
3322:mtk_resgenerator.cpp ****         U16 nType;
3323:mtk_resgenerator.cpp ****         char upperFileName[MAX_FILENAME_LEN];
3324:mtk_resgenerator.cpp **** 
3325:mtk_resgenerator.cpp ****         strncpy(upperFileName, srcFileFileName, MAX_FILENAME_LEN);
3326:mtk_resgenerator.cpp ****         str_upper(upperFileName, MAX_FILENAME_LEN);
3327:mtk_resgenerator.cpp **** 
3328:mtk_resgenerator.cpp ****         if(initResFileOutput(destFileName)!=0){
3329:mtk_resgenerator.cpp ****             resourceLoadResult = -1;
3330:mtk_resgenerator.cpp ****         }
3331:mtk_resgenerator.cpp ****         if(Aload(upperFileName, &nType)!= MMI_TRUE){
GAS LISTING d:/github/AIOT_WORKSHOP/AIoT_MT2503AVE_SDK/11CW1418SP4_03_CORETEK03AE_11C_V1_GPRS_MMI/plutommi/Customer/ResGenerator/gcctmp/ccmAfaaa.s 			page 190


3332:mtk_resgenerator.cpp ****             resourceLoadResult = -1;
3333:mtk_resgenerator.cpp ****         }
3334:mtk_resgenerator.cpp **** 
3335:mtk_resgenerator.cpp ****         if(deInitResFileOutput()!=0){
3336:mtk_resgenerator.cpp ****             resourceLoadResult = -1;
3337:mtk_resgenerator.cpp ****         }
3338:mtk_resgenerator.cpp **** 
3339:mtk_resgenerator.cpp ****         return resourceLoadResult;
3340:mtk_resgenerator.cpp ****     }
3341:mtk_resgenerator.cpp **** 
3342:mtk_resgenerator.cpp ****     int generateFontRes(char * srcFileFileName, char * destFileName){
3343:mtk_resgenerator.cpp ****         int resourceLoadResult = 0;
3344:mtk_resgenerator.cpp ****         U16 nType;
3345:mtk_resgenerator.cpp ****         char upperFileName[MAX_FILENAME_LEN];
3346:mtk_resgenerator.cpp **** 
3347:mtk_resgenerator.cpp ****         strncpy(upperFileName, srcFileFileName, MAX_FILENAME_LEN);
3348:mtk_resgenerator.cpp ****         str_upper(upperFileName, MAX_FILENAME_LEN);
3349:mtk_resgenerator.cpp **** 
3350:mtk_resgenerator.cpp ****         if(initResFileOutput(destFileName)!=0){
3351:mtk_resgenerator.cpp ****             resourceLoadResult = -1;
3352:mtk_resgenerator.cpp ****         }
3353:mtk_resgenerator.cpp **** 
3354:mtk_resgenerator.cpp ****         if(Fload(upperFileName, &nType)!= MMI_TRUE){
3355:mtk_resgenerator.cpp ****             resourceLoadResult = -1;
3356:mtk_resgenerator.cpp ****         }
3357:mtk_resgenerator.cpp ****         if(deInitResFileOutput()!=0){
3358:mtk_resgenerator.cpp ****             resourceLoadResult = -1;
3359:mtk_resgenerator.cpp ****         }
3360:mtk_resgenerator.cpp ****         return resourceLoadResult;
3361:mtk_resgenerator.cpp **** 
3362:mtk_resgenerator.cpp ****     }
3363:mtk_resgenerator.cpp ****     int generateImageRes(char * srcFileFileName, char * destFileName){
3364:mtk_resgenerator.cpp ****         int resourceLoadResult = 0;
3365:mtk_resgenerator.cpp ****         U16 nType;
3366:mtk_resgenerator.cpp ****         char upperFileName[MAX_FILENAME_LEN];
3367:mtk_resgenerator.cpp **** 
3368:mtk_resgenerator.cpp ****         strncpy(upperFileName, srcFileFileName, MAX_FILENAME_LEN);
3369:mtk_resgenerator.cpp ****         str_upper(upperFileName, MAX_FILENAME_LEN);
3370:mtk_resgenerator.cpp **** 
3371:mtk_resgenerator.cpp ****         if(initResFileOutput(destFileName)!=0){
3372:mtk_resgenerator.cpp ****             resourceLoadResult = -1;
3373:mtk_resgenerator.cpp ****         }
3374:mtk_resgenerator.cpp **** 
3375:mtk_resgenerator.cpp ****         SetImageProcessData processData;
3376:mtk_resgenerator.cpp ****         initImageProcessData(&processData);
3377:mtk_resgenerator.cpp ****         ResgenImageOutStream * outstream;
3378:mtk_resgenerator.cpp ****         ImageOutStreamInit(&outstream);
3379:mtk_resgenerator.cpp ****         processData.outstream = outstream;
3380:mtk_resgenerator.cpp **** 
3381:mtk_resgenerator.cpp ****         if(Iload(upperFileName, SYSTEM_IMAGE, AUTO_TYPE, &processData) == MMI_TRUE)
3382:mtk_resgenerator.cpp ****         {
3383:mtk_resgenerator.cpp **** 
3384:mtk_resgenerator.cpp ****             char *curr_output_data_filename = "temp_image";
3385:mtk_resgenerator.cpp ****             FILE *output_data_file = NULL;
3386:mtk_resgenerator.cpp ****             output_data_file = fopen(curr_output_data_filename, "ab");
3387:mtk_resgenerator.cpp ****             while (output_data_file == NULL)
3388:mtk_resgenerator.cpp ****             {
GAS LISTING d:/github/AIOT_WORKSHOP/AIoT_MT2503AVE_SDK/11CW1418SP4_03_CORETEK03AE_11C_V1_GPRS_MMI/plutommi/Customer/ResGenerator/gcctmp/ccmAfaaa.s 			page 191


3389:mtk_resgenerator.cpp ****                 Sleep(50);
3390:mtk_resgenerator.cpp ****                 output_data_file = fopen(curr_output_data_filename, "ab");
3391:mtk_resgenerator.cpp ****             }
3392:mtk_resgenerator.cpp **** 
3393:mtk_resgenerator.cpp ****             ImageOutStreamOutputFile(outstream, output_data_file);
3394:mtk_resgenerator.cpp ****             ImageOutStreamDeinit(&outstream);
3395:mtk_resgenerator.cpp ****             MYFCLOSE(output_data_file);
3396:mtk_resgenerator.cpp ****         }
3397:mtk_resgenerator.cpp ****         else
3398:mtk_resgenerator.cpp ****         {
3399:mtk_resgenerator.cpp ****             resourceLoadResult = -1;
3400:mtk_resgenerator.cpp ****             ImageOutStreamDeinit(&outstream); 				  
3401:mtk_resgenerator.cpp ****         }
3402:mtk_resgenerator.cpp **** 
3403:mtk_resgenerator.cpp ****         if(deInitResFileOutput()!=0){
3404:mtk_resgenerator.cpp ****             resourceLoadResult = -1;
3405:mtk_resgenerator.cpp ****         }
3406:mtk_resgenerator.cpp ****         return resourceLoadResult;
3407:mtk_resgenerator.cpp ****     }
3408:mtk_resgenerator.cpp **** };
3409:mtk_resgenerator.cpp **** 
3410:mtk_resgenerator.cpp **** #endif //__REGEN_INTERNAL_BATCHED__
3411:mtk_resgenerator.cpp **** 
3412:mtk_resgenerator.cpp **** 
3413:mtk_resgenerator.cpp **** static void prepare3DMetaPopulation(){
 8470              	LM636:
 8471 762a 55       		pushl	%ebp
 8472 762b 89E5     		movl	%esp, %ebp
 8473 762d 83EC18   		subl	$24, %esp
3414:mtk_resgenerator.cpp **** #ifdef __RESGEN_INTERNAL_3D_META_RESGEN_AUTO__
3415:mtk_resgenerator.cpp ****     // Populate the 3D meta resource so that APP developer don't need to add the res declaration to
3416:mtk_resgenerator.cpp ****     // manually.
3417:mtk_resgenerator.cpp **** #ifdef __COSMOS_MMI__
3418:mtk_resgenerator.cpp ****     RESGEN_LOG_V("resgen_xml_3d_meta_handle.py : Populate 3D meta data, Root = " RES_THEME_ROOT);
3419:mtk_resgenerator.cpp ****     if(0 != execute_ext_command("..\\..\\..\\" "tools\\python25\\python" " resgen_xml_3d_meta_handl
3420:mtk_resgenerator.cpp **** #else
3421:mtk_resgenerator.cpp ****     RESGEN_LOG_V("resgen_xml_3d_meta_handle.py : Populate 3D meta data, Root = " CUST_IMG_PATH "\\M
 8475              	LM637:
 8476              	LBB69:
 8477 7630 C7442408 		movl	$LC265, 8(%esp)
 8477      E0720000 
 8478 7638 C7442404 		movl	$LC1, 4(%esp)
 8478      3E000000 
 8479 7640 C7042401 		movl	$1, (%esp)
 8479      000000
 8480 7647 E8000000 		call	_reslog_adaptor_log
 8480      00
3422:mtk_resgenerator.cpp ****     if(0 != execute_ext_command("..\\..\\..\\" "tools\\python25\\python" " resgen_xml_3d_meta_handl
 8482              	LM638:
 8483 764c C7042460 		movl	$LC266, (%esp)
 8483      730000
 8484 7653 E8000000 		call	_execute_ext_command
 8484      00
 8485 7658 85C0     		testl	%eax, %eax
 8486 765a 7465     		je	L279
3423:mtk_resgenerator.cpp **** #endif // RES_THEME_ROOT
3424:mtk_resgenerator.cpp ****     {
GAS LISTING d:/github/AIOT_WORKSHOP/AIoT_MT2503AVE_SDK/11CW1418SP4_03_CORETEK03AE_11C_V1_GPRS_MMI/plutommi/Customer/ResGenerator/gcctmp/ccmAfaaa.s 			page 192


3425:mtk_resgenerator.cpp ****         mtk_resgen_set_error();
 8488              	LM639:
 8489 765c E8000000 		call	_mtk_resgen_set_error
 8489      00
3426:mtk_resgenerator.cpp ****         RESGEN_LOG_E("Error!! Meta resource for Binary 3D population failed!! External python scrip
 8491              	LM640:
 8492 7661 C7442408 		movl	$LC267, 8(%esp)
 8492      E0730000 
 8493 7669 C7442404 		movl	$LC1, 4(%esp)
 8493      3E000000 
 8494 7671 C7042403 		movl	$3, (%esp)
 8494      000000
 8495 7678 E8000000 		call	_reslog_adaptor_log
 8495      00
3427:mtk_resgenerator.cpp ****         RES_LOG_PENDING_FATAL(RESGEN_TAG, "Error!! Meta resource for Binary 3D population failed!!"
 8497              	LM641:
 8498 767d C7442410 		movl	$LC268, 16(%esp)
 8498      60740000 
 8499 7685 C744240C 		movl	$LC269, 12(%esp)
 8499      C0740000 
 8500 768d C7442408 		movl	$LC270, 8(%esp)
 8500      00750000 
 8501 7695 C7442404 		movl	$LC1, 4(%esp)
 8501      3E000000 
 8502 769d C7042403 		movl	$3, (%esp)
 8502      000000
 8503 76a4 E8000000 		call	_reslog_adaptor_fatal_error_pending_log
 8503      00
3428:mtk_resgenerator.cpp ****         fprintf(stderr, "\n** External python script resgen_xml_3d_meta_handle.py return error. \n*
 8505              	LM642:
 8506 76a9 C7442404 		movl	$LC271, 4(%esp)
 8506      40750000 
 8507 76b1 A1000000 		movl	__imp___iob, %eax
 8507      00
 8508 76b6 83C040   		addl	$64, %eax
 8509 76b9 890424   		movl	%eax, (%esp)
 8510 76bc E8000000 		call	_fprintf
 8510      00
3429:mtk_resgenerator.cpp **** 
3430:mtk_resgenerator.cpp ****     }
3431:mtk_resgenerator.cpp **** #endif //__RESGEN_INTERNAL_3D_META_RESGEN_AUTO__
3432:mtk_resgenerator.cpp **** }
 8512              	LM643:
 8513              	L279:
 8514 76c1 C9       		leave
 8515 76c2 C3       		ret
 8516              	LBE69:
 8517              	Lscope34:
 8519              	LC272:
 8520 76c3 00       		.ascii "\0"
 8521 76c4 00000000 		.space 611
 8521      00000000 
 8521      00000000 
 8521      00000000 
 8521      00000000 
 8522 7927 90       		.align 2
 8525              	__Z19PostRegenOperationsv:
GAS LISTING d:/github/AIOT_WORKSHOP/AIoT_MT2503AVE_SDK/11CW1418SP4_03_CORETEK03AE_11C_V1_GPRS_MMI/plutommi/Customer/ResGenerator/gcctmp/ccmAfaaa.s 			page 193


3433:mtk_resgenerator.cpp **** 
3434:mtk_resgenerator.cpp **** 
3435:mtk_resgenerator.cpp **** 
3436:mtk_resgenerator.cpp **** // Do Post Code Generations:
3437:mtk_resgenerator.cpp **** // (1) Third ROM image/string resource
3438:mtk_resgenerator.cpp **** // (2) Compressed image/string resource
3439:mtk_resgenerator.cpp **** 
3440:mtk_resgenerator.cpp **** #if !defined (__CAT_SUPPORT__) && !defined(__MBA_LANG_ONLY__) 
3441:mtk_resgenerator.cpp ****     #define IMG_GROUP_CMD_OPTION_THIRD_ROM_BINS "all"
3442:mtk_resgenerator.cpp **** #else //__CAT_SUPPORT__
3443:mtk_resgenerator.cpp **** // When CAT 2.0 or MBA's langpack is enabled, string resouce is put into CAT region and langpack, n
3444:mtk_resgenerator.cpp ****     #define IMG_GROUP_CMD_OPTION_THIRD_ROM_BINS "no_str"
3445:mtk_resgenerator.cpp **** #endif //__CAT_SUPPORT__
3446:mtk_resgenerator.cpp **** 
3447:mtk_resgenerator.cpp **** static void PostRegenOperations(){
 8527              	LM644:
 8528 7928 55       		pushl	%ebp
 8529 7929 89E5     		movl	%esp, %ebp
 8530 792b 57       		pushl	%edi
 8531 792c 81EC8402 		subl	$644, %esp
 8531      0000
3448:mtk_resgenerator.cpp **** 
3449:mtk_resgenerator.cpp ****     char cmdBuf[SHELL_CMD_BUFLEN] = "";
 8533              	LM645:
 8534              	LBB70:
 8535 7932 0FB605C3 		movzbl	LC272, %eax
 8535      760000
 8536 7939 888588FD 		movb	%al, -632(%ebp)
 8536      FFFF
 8537 793f 8DBD89FD 		leal	-631(%ebp), %edi
 8537      FFFF
 8538 7945 FC       		cld
 8539 7946 B9630200 		movl	$611, %ecx
 8539      00
 8540 794b B000     		movb	$0, %al
 8541 794d F3       		rep
 8542 794e AA       		stosb
3450:mtk_resgenerator.cpp ****     int exeResult = 1;
 8544              	LM646:
 8545 794f C78584FD 		movl	$1, -636(%ebp)
 8545      FFFF0100 
 8545      0000
3451:mtk_resgenerator.cpp **** #ifndef __POPULATE_NO_STRING_DATA__
3452:mtk_resgenerator.cpp ****     // Generate 3rd ROM and string compresssion source codes
3453:mtk_resgenerator.cpp ****     sprintf(cmdBuf, "..\\..\\..\\tools\\python25\\python .\\resgen_str_compress.py -p %d > debug\\r
3454:mtk_resgenerator.cpp ****     exeResult = execute_ext_command(cmdBuf);
3455:mtk_resgenerator.cpp ****     if( exeResult!= 0){
3456:mtk_resgenerator.cpp ****         RESGEN_LOG_E("Error!! String Resource Code generation failed, please check plutommi\\custom
3457:mtk_resgenerator.cpp ****         fprintf(stderr, "\n** Error!! String Resource Code generation failed!!\n** External python 
3458:mtk_resgenerator.cpp ****         RES_LOG_PENDING_FATAL(RESGEN_TAG, "Error!! String Resource Code generation failed!!","Exter
3459:mtk_resgenerator.cpp ****     }
3460:mtk_resgenerator.cpp **** #endif
3461:mtk_resgenerator.cpp **** 
3462:mtk_resgenerator.cpp **** #ifndef __POPULATE_NO_IMAGE_DATA__
3463:mtk_resgenerator.cpp ****     // Check N-group image configuration here   
3464:mtk_resgenerator.cpp ****     RESGEN_LOG_V("ON-DEMOND IMAGE CACHE SIZE: %d",MMI_RESOURCE_IMAGE_CACHE_SIZE);
3465:mtk_resgenerator.cpp **** #ifndef __MMI_RESOURCE_6261_SLIM__
GAS LISTING d:/github/AIOT_WORKSHOP/AIoT_MT2503AVE_SDK/11CW1418SP4_03_CORETEK03AE_11C_V1_GPRS_MMI/plutommi/Customer/ResGenerator/gcctmp/ccmAfaaa.s 			page 194


3466:mtk_resgenerator.cpp ****     if(RES_SINGLE_IMG_GROUP_MAX_SIZE > ((MMI_RESOURCE_IMAGE_CACHE_SIZE- 4 * RES_MULTI_IMG_GROUP_MAX
3467:mtk_resgenerator.cpp ****         RESGEN_LOG_E("Image group configurtion error!! RES_SINGLE_IMG_GROUP_MAX_SIZE must < MMI_RES
3468:mtk_resgenerator.cpp ****         fprintf(stderr, "\n** Image group configurtion error!!\n** RES_SINGLE_IMG_GROUP_MAX_SIZE mu
3469:mtk_resgenerator.cpp ****         RES_LOG_PENDING_FATAL(RESGEN_TAG, "Image group configurtion error!!","Doesn't support your 
3470:mtk_resgenerator.cpp **** 
3471:mtk_resgenerator.cpp ****     }
3472:mtk_resgenerator.cpp ****     
3473:mtk_resgenerator.cpp ****     if(RES_BOOT_IMG_GROUP_MAX_SIZE > (MMI_RESOURCE_IMAGE_CACHE_SIZE - 4* RES_MULTI_IMG_GROUP_MAX_SI
3474:mtk_resgenerator.cpp ****         RESGEN_LOG_E("Image group configurtion error!! RES_BOOT_IMG_GROUP_MAX_SIZE must < MMI_RESOU
3475:mtk_resgenerator.cpp ****         fprintf(stderr,"\n** Image group configurtion error!! RES_BOOT_IMG_GROUP_MAX_SIZE must < MM
3476:mtk_resgenerator.cpp ****         RES_LOG_PENDING_FATAL(RESGEN_TAG, "Image group configurtion error!!","Doesn't support you c
3477:mtk_resgenerator.cpp ****     }
3478:mtk_resgenerator.cpp **** #else //__MMI_RESOURCE_6261_SLIM__
3479:mtk_resgenerator.cpp **** /*
3480:mtk_resgenerator.cpp **** 	if(MMI_RESOURCE_IMAGE_CACHE_SIZE < 3 * RES_MULTI_IMG_GROUP_MAX_SIZE){
3481:mtk_resgenerator.cpp **** 		RESGEN_LOG_E("Image group configurtion error!! MMI_RESOURCE_IMAGE_CACHE_SIZE must >= 3 * RES_MULT
3482:mtk_resgenerator.cpp **** 		fprintf(stderr, "\n** Image group configurtion error!!\n** MMI_RESOURCE_IMAGE_CACHE_SIZE must >= 
3483:mtk_resgenerator.cpp **** 		RES_LOG_PENDING_FATAL(RESGEN_TAG, "Image group configurtion error!!","Doesn't support your config
3484:mtk_resgenerator.cpp ****     
3485:mtk_resgenerator.cpp **** 	}
3486:mtk_resgenerator.cpp **** */
3487:mtk_resgenerator.cpp **** #endif //__MMI_RESOURCE_6261_SLIM__
3488:mtk_resgenerator.cpp **** #ifdef __MMI_RESOURCE_LZMA_IMAGE_GROUP_COMPRESS__
3489:mtk_resgenerator.cpp ****     if(RES_SINGLE_IMG_GROUP_MAX_SIZE != RES_MULTI_IMG_GROUP_MAX_SIZE || RES_MULTI_IMG_GROUP_MAX_SIZ
3490:mtk_resgenerator.cpp ****         RESGEN_LOG_E("Image group configurtion error!! RES_SINGLE_IMG_GROUP_MAX_SIZE and RES_BOOT_I
3491:mtk_resgenerator.cpp ****         fprintf(stderr,"\n** Image group configurtion error!! \n** RES_SINGLE_IMG_GROUP_MAX_SIZE an
3492:mtk_resgenerator.cpp ****         RES_LOG_PENDING_FATAL(RESGEN_TAG, "Image group configurtion error", "Doesn't support you co
3493:mtk_resgenerator.cpp ****     }   
3494:mtk_resgenerator.cpp **** #endif
3495:mtk_resgenerator.cpp ****     
3496:mtk_resgenerator.cpp ****     // Generate 3rd ROM and Image compression source codes
3497:mtk_resgenerator.cpp **** #ifdef RES_BOOT_IMG_GROUPD_ID_CONFIG
3498:mtk_resgenerator.cpp ****     sprintf(cmdBuf, "..\\..\\..\\tools\\python25\\python .\\resgen_img_group_compress.py --mg=%d --
3499:mtk_resgenerator.cpp ****             RES_MULTI_IMG_GROUP_MAX_SIZE, RES_SINGLE_IMG_GROUP_MAX_SIZE, RES_BOOT_IMG_GROUP_MAX_SIZ
3500:mtk_resgenerator.cpp **** #else //RES_BOOT_IMG_GROUPD_ID_CONFIG
3501:mtk_resgenerator.cpp ****     sprintf(cmdBuf, "..\\..\\..\\tools\\python25\\python .\\resgen_img_group_compress.py --mg=%d --
3502:mtk_resgenerator.cpp ****             RES_MULTI_IMG_GROUP_MAX_SIZE, RES_SINGLE_IMG_GROUP_MAX_SIZE, IMG_GROUP_CMD_OPTION_THIRD
3503:mtk_resgenerator.cpp **** #endif //RES_BOOT_IMG_GROUPD_ID_CONFIG
3504:mtk_resgenerator.cpp **** 
3505:mtk_resgenerator.cpp ****     exeResult = execute_ext_command(cmdBuf);
3506:mtk_resgenerator.cpp ****     if( exeResult!= 0){
3507:mtk_resgenerator.cpp ****         RESGEN_LOG_E("Error!! Image Resoruce Code generation failed, please check plutommi\\custome
3508:mtk_resgenerator.cpp ****         fprintf(stderr,"\n** Error!! Image Resoruce Code generation failed!! \n** External python s
3509:mtk_resgenerator.cpp ****         RES_LOG_PENDING_FATAL(RESGEN_TAG, "Error!! Image Resoruce Code generation failed!!", "Exter
3510:mtk_resgenerator.cpp ****     }
3511:mtk_resgenerator.cpp **** #endif
3512:mtk_resgenerator.cpp **** }
 8547              	LM647:
 8548 7959 81C48402 		addl	$644, %esp
 8548      0000
 8549 795f 5F       		popl	%edi
 8550 7960 5D       		popl	%ebp
 8551 7961 C3       		ret
 8552              	LBE70:
 8557              	Lscope35:
 8560              	LC273:
 8561 7962 61726763 		.ascii "argc = %d\0"
GAS LISTING d:/github/AIOT_WORKSHOP/AIoT_MT2503AVE_SDK/11CW1418SP4_03_CORETEK03AE_11C_V1_GPRS_MMI/plutommi/Customer/ResGenerator/gcctmp/ccmAfaaa.s 			page 195


 8561      203D2025 
 8561      6400
 8562              	LC274:
 8563 796c 61726776 		.ascii "argv[%d] = %s\0"
 8563      5B25645D 
 8563      203D2025 
 8563      7300
 8564              	LC275:
 8565 797a 72657367 		.ascii "resgen_custpack.log\0"
 8565      656E5F63 
 8565      75737470 
 8565      61636B2E 
 8565      6C6F6700 
 8566              	LC276:
 8567 798e 2D6600   		.ascii "-f\0"
 8568              	LC277:
 8569 7991 2D6900   		.ascii "-i\0"
 8570              	LC278:
 8571 7994 2D6100   		.ascii "-a\0"
 8572              	LC279:
 8573 7997 2D4600   		.ascii "-F\0"
 8574              	LC280:
 8575 799a 64657374 		.ascii "dest_file could not open!\0"
 8575      5F66696C 
 8575      6520636F 
 8575      756C6420 
 8575      6E6F7420 
 8576              	LC281:
 8577 79b4 74656D70 		.ascii "temp_image\0"
 8577      5F696D61 
 8577      676500
 8578              	LC282:
 8579 79bf 616200   		.ascii "ab\0"
 8580 79c2 90909090 		.align 32
 8580      90909090 
 8580      90909090 
 8580      90909090 
 8580      90909090 
 8581              	LC283:
 8582 79e0 6D746B5F 		.ascii "mtk_resgenerator.exe paramater error\0"
 8582      72657367 
 8582      656E6572 
 8582      61746F72 
 8582      2E657865 
 8583 7a05 90909090 		.align 32
 8583      90909090 
 8583      90909090 
 8583      90909090 
 8583      90909090 
 8584              	LC284:
 8585 7a20 5B455252 		.ascii "[ERR] mtk_resgenerator.exe paramater error\12\0"
 8585      5D206D74 
 8585      6B5F7265 
 8585      7367656E 
 8585      65726174 
 8586 7a4c 90909090 		.align 32
 8586      90909090 
GAS LISTING d:/github/AIOT_WORKSHOP/AIoT_MT2503AVE_SDK/11CW1418SP4_03_CORETEK03AE_11C_V1_GPRS_MMI/plutommi/Customer/ResGenerator/gcctmp/ccmAfaaa.s 			page 196


 8586      90909090 
 8586      90909090 
 8586      90909090 
 8587              	LC285:
 8588 7a60 6D746B5F 		.ascii "mtk_resgenerator.exe %s failed, can't load %s, no output to %s\0"
 8588      72657367 
 8588      656E6572 
 8588      61746F72 
 8588      2E657865 
 8589 7a9f 90       		.align 32
 8590              	LC286:
 8591 7aa0 5B455252 		.ascii "[ERR] mtk_resgenerator.exe %s failed, can't load %s, no output to %s\12\0"
 8591      5D206D74 
 8591      6B5F7265 
 8591      7367656E 
 8591      65726174 
 8592 7ae6 90909090 		.align 32
 8592      90909090 
 8592      90909090 
 8592      90909090 
 8592      90909090 
 8593              	LC287:
 8594 7b00 6D746B5F 		.ascii "mtk_resgenerator.exe can't indentify the parameter, please check if the ImageFilename and 
 8594      72657367 
 8594      656E6572 
 8594      61746F72 
 8594      2E657865 
 8595 7b73 8DB60000 		.align 32
 8595      00008DBC 
 8595      27000000 
 8595      00
 8596              	LC288:
 8597 7b80 5B455252 		.ascii "[ERR] mtk_resgenerator.exe can't indentify the parameter, please check if the ImageFilenam
 8597      5D206D74 
 8597      6B5F7265 
 8597      7367656E 
 8597      65726174 
 8598 7bfa 8DB60000 		.align 32
 8598      0000
 8599              	LC289:
 8600 7c00 55736167 		.ascii "Usage: mtk_resgenerator.exe -f [-i or -a] ImageFilename OutputFilename\0"
 8600      653A206D 
 8600      746B5F72 
 8600      65736765 
 8600      6E657261 
 8601              	LC290:
 8602 7c47 2D6700   		.ascii "-g\0"
 8603              	LC291:
 8604 7c4a 2D7800   		.ascii "-x\0"
 8605              	LC292:
 8606 7c4d 2D6300   		.ascii "-c\0"
 8607              	LC293:
 8608 7c50 2D6200   		.ascii "-b\0"
 8609 7c53 8DB60000 		.align 32
 8609      00008DBC 
 8609      27000000 
 8609      00
GAS LISTING d:/github/AIOT_WORKSHOP/AIoT_MT2503AVE_SDK/11CW1418SP4_03_CORETEK03AE_11C_V1_GPRS_MMI/plutommi/Customer/ResGenerator/gcctmp/ccmAfaaa.s 			page 197


 8610              	LC294:
 8611 7c60 42617463 		.ascii "Batched Resgen finished successfully\0"
 8611      68656420 
 8611      52657367 
 8611      656E2066 
 8611      696E6973 
 8612              	LC295:
 8613 7c85 42617463 		.ascii "Batched Resgen failed\0"
 8613      68656420 
 8613      52657367 
 8613      656E2066 
 8613      61696C65 
 8614 7c9b 908D7426 		.align 32
 8614      00
 8615              	LC296:
 8616 7ca0 55736167 		.ascii "Usage: mtk_resgenerator.exe -b [filename]\12\0"
 8616      653A206D 
 8616      746B5F72 
 8616      65736765 
 8616      6E657261 
 8617 7ccb 90909090 		.align 32
 8617      90909090 
 8617      90909090 
 8617      90909090 
 8617      90909090 
 8618              	LC297:
 8619 7ce0 55736167 		.ascii "Usage: mtk_resgenerator.exe -g -x\0"
 8619      653A206D 
 8619      746B5F72 
 8619      65736765 
 8619      6E657261 
 8620 7d02 90909090 		.align 32
 8620      90909090 
 8620      90909090 
 8620      90909090 
 8620      90909090 
 8621              	LC298:
 8622 7d20 4D656469 		.ascii "MediaTek Resource Generate System 0.1\0"
 8622      6154656B 
 8622      20526573 
 8622      6F757263 
 8622      65204765 
 8623              	LC299:
 8624 7d46 64656275 		.ascii "debug\0"
 8624      6700
 8625 7d4c 90909090 		.align 32
 8625      90909090 
 8625      90909090 
 8625      90909090 
 8625      90909090 
 8626              	LC300:
 8627 7d60 27646562 		.ascii "'debug' directory already exists! ret=[%d]\0"
 8627      75672720 
 8627      64697265 
 8627      63746F72 
 8627      7920616C 
 8628              	LC301:
GAS LISTING d:/github/AIOT_WORKSHOP/AIoT_MT2503AVE_SDK/11CW1418SP4_03_CORETEK03AE_11C_V1_GPRS_MMI/plutommi/Customer/ResGenerator/gcctmp/ccmAfaaa.s 			page 198


 8629 7d8b 27646562 		.ascii "'debug' directory is created!\0"
 8629      75672720 
 8629      64697265 
 8629      63746F72 
 8629      79206973 
 8630              	LC302:
 8631 7da9 2D7200   		.ascii "-r\0"
 8632 7dac 90909090 		.align 32
 8632      90909090 
 8632      90909090 
 8632      90909090 
 8632      90909090 
 8633              	LC303:
 8634 7dc0 5265736F 		.ascii "Resource ID range check old_last_menu=[%d], res_first=[%d] res_last=[%d].\12\0"
 8634      75726365 
 8634      20494420 
 8634      72616E67 
 8634      65206368 
 8635 7e0b 90909090 		.align 32
 8635      90909090 
 8635      90909090 
 8635      90909090 
 8635      90909090 
 8636              	LC304:
 8637 7e20 5265736F 		.ascii "Resource ID range check old_last_menu=[%d], res_first=[%d] res_last=[%d].\0"
 8637      75726365 
 8637      20494420 
 8637      72616E67 
 8637      65206368 
 8638              	LC309:
 8639 7e6a 53746172 		.ascii "Start resource population\0"
 8639      74207265 
 8639      736F7572 
 8639      63652070 
 8639      6F70756C 
 8640 7e84 90909090 		.align 32
 8640      90909090 
 8640      90909090 
 8640      90909090 
 8640      90909090 
 8641              	LC310:
 8642 7ea0 55736167 		.ascii "Usage: mtk_resgenerator.exe -g\0"
 8642      653A206D 
 8642      746B5F72 
 8642      65736765 
 8642      6E657261 
 8643 7ebf 90       		.align 2
 8647              	.globl _main
 8649              	_main:
3513:mtk_resgenerator.cpp **** 
3514:mtk_resgenerator.cpp **** /*****************************************************************************
3515:mtk_resgenerator.cpp **** * FUNCTION
3516:mtk_resgenerator.cpp **** *  main
3517:mtk_resgenerator.cpp **** * DESCRIPTION
3518:mtk_resgenerator.cpp **** *  main function of mtk_resgenerator
3519:mtk_resgenerator.cpp **** * PARAMETERS
3520:mtk_resgenerator.cpp **** *
GAS LISTING d:/github/AIOT_WORKSHOP/AIoT_MT2503AVE_SDK/11CW1418SP4_03_CORETEK03AE_11C_V1_GPRS_MMI/plutommi/Customer/ResGenerator/gcctmp/ccmAfaaa.s 			page 199


3521:mtk_resgenerator.cpp **** * RETURNS
3522:mtk_resgenerator.cpp **** *  int
3523:mtk_resgenerator.cpp **** *****************************************************************************/
3524:mtk_resgenerator.cpp **** int main(int argc, char *argv[])
3525:mtk_resgenerator.cpp **** {
 8651              	LM648:
 8652 7ec0 55       		pushl	%ebp
 8653 7ec1 89E5     		movl	%esp, %ebp
 8654 7ec3 57       		pushl	%edi
 8655 7ec4 81ECE407 		subl	$2020, %esp
 8655      0000
 8656 7eca 83E4F0   		andl	$-16, %esp
 8657 7ecd B8000000 		movl	$0, %eax
 8657      00
 8658 7ed2 898538F8 		movl	%eax, -1992(%ebp)
 8658      FFFF
 8659 7ed8 8B8538F8 		movl	-1992(%ebp), %eax
 8659      FFFF
 8660 7ede E8000000 		call	__alloca
 8660      00
 8661 7ee3 E8000000 		call	___main
 8661      00
3526:mtk_resgenerator.cpp ****     /*----------------------------------------------------------------*/
3527:mtk_resgenerator.cpp ****     /* Local Variables                                                */
3528:mtk_resgenerator.cpp ****     /*----------------------------------------------------------------*/
3529:mtk_resgenerator.cpp ****     char tempCommand[SHELL_CMD_BUFLEN];
3530:mtk_resgenerator.cpp ****     MMI_BOOL resourceLoadResult = MMI_FALSE;
 8663              	LM649:
 8664              	LBB71:
 8665 7ee8 C78584FD 		movl	$0, -636(%ebp)
 8665      FFFF0000 
 8665      0000
3531:mtk_resgenerator.cpp ****     char custpaclLog[CUSTPACK_LOG_BUFLEN]="";
 8667              	LM650:
 8668 7ef2 0FB605C3 		movzbl	LC272, %eax
 8668      760000
 8669 7ef9 888578FC 		movb	%al, -904(%ebp)
 8669      FFFF
 8670 7eff 8DBD79FC 		leal	-903(%ebp), %edi
 8670      FFFF
 8671 7f05 FC       		cld
 8672 7f06 B9FF0000 		movl	$255, %ecx
 8672      00
 8673 7f0b B000     		movb	$0, %al
 8674 7f0d F3       		rep
 8675 7f0e AA       		stosb
3532:mtk_resgenerator.cpp **** 
3533:mtk_resgenerator.cpp ****     /*----------------------------------------------------------------*/
3534:mtk_resgenerator.cpp ****     /* Code Body                                                      */
3535:mtk_resgenerator.cpp ****     /*----------------------------------------------------------------*/
3536:mtk_resgenerator.cpp ****     launch_resgen_services();
 8677              	LM651:
 8678 7f0f E84CE6FF 		call	__Z22launch_resgen_servicesv
 8678      FF
3537:mtk_resgenerator.cpp **** 
3538:mtk_resgenerator.cpp ****     {
3539:mtk_resgenerator.cpp ****         int i;
GAS LISTING d:/github/AIOT_WORKSHOP/AIoT_MT2503AVE_SDK/11CW1418SP4_03_CORETEK03AE_11C_V1_GPRS_MMI/plutommi/Customer/ResGenerator/gcctmp/ccmAfaaa.s 			page 200


3540:mtk_resgenerator.cpp ****         RESGEN_LOG_V("argc = %d", argc);
 8680              	LM652:
 8681              	LBB72:
 8682 7f14 8B4508   		movl	8(%ebp), %eax
 8683 7f17 8944240C 		movl	%eax, 12(%esp)
 8684 7f1b C7442408 		movl	$LC273, 8(%esp)
 8684      62790000 
 8685 7f23 C7442404 		movl	$LC1, 4(%esp)
 8685      3E000000 
 8686 7f2b C7042401 		movl	$1, (%esp)
 8686      000000
 8687 7f32 E8000000 		call	_reslog_adaptor_log
 8687      00
3541:mtk_resgenerator.cpp ****         for(i=0;i<argc;i++)
 8689              	LM653:
 8690 7f37 C78574FC 		movl	$0, -908(%ebp)
 8690      FFFF0000 
 8690      0000
 8691              	L283:
 8692 7f41 8B8574FC 		movl	-908(%ebp), %eax
 8692      FFFF
 8693 7f47 3B4508   		cmpl	8(%ebp), %eax
 8694 7f4a 7C02     		jl	L286
 8695 7f4c EB47     		jmp	L284
 8696              	L286:
3542:mtk_resgenerator.cpp ****             RESGEN_LOG_V("argv[%d] = %s", i, argv[i]);
 8698              	LM654:
 8699 7f4e 8B8574FC 		movl	-908(%ebp), %eax
 8699      FFFF
 8700 7f54 8D148500 		leal	0(,%eax,4), %edx
 8700      000000
 8701 7f5b 8B450C   		movl	12(%ebp), %eax
 8702 7f5e 8B0410   		movl	(%eax,%edx), %eax
 8703 7f61 89442410 		movl	%eax, 16(%esp)
 8704 7f65 8B8574FC 		movl	-908(%ebp), %eax
 8704      FFFF
 8705 7f6b 8944240C 		movl	%eax, 12(%esp)
 8706 7f6f C7442408 		movl	$LC274, 8(%esp)
 8706      6C790000 
 8707 7f77 C7442404 		movl	$LC1, 4(%esp)
 8707      3E000000 
 8708 7f7f C7042401 		movl	$1, (%esp)
 8708      000000
 8709 7f86 E8000000 		call	_reslog_adaptor_log
 8709      00
 8711              	LM655:
 8712 7f8b 8D8574FC 		leal	-908(%ebp), %eax
 8712      FFFF
 8713 7f91 FF00     		incl	(%eax)
 8714 7f93 EBAC     		jmp	L283
 8715              	L284:
3543:mtk_resgenerator.cpp ****     }
3544:mtk_resgenerator.cpp **** 
3545:mtk_resgenerator.cpp ****     if(argc == 5)   //Check if run by CustPack tool
 8717              	LM656:
 8718              	LBE72:
 8719              	LBB73:
GAS LISTING d:/github/AIOT_WORKSHOP/AIoT_MT2503AVE_SDK/11CW1418SP4_03_CORETEK03AE_11C_V1_GPRS_MMI/plutommi/Customer/ResGenerator/gcctmp/ccmAfaaa.s 			page 201


 8720 7f95 837D0805 		cmpl	$5, 8(%ebp)
 8721 7f99 0F858904 		jne	L287
 8721      0000
3546:mtk_resgenerator.cpp ****     {
3547:mtk_resgenerator.cpp **** 
3548:mtk_resgenerator.cpp ****         remove(CUSTPACL_LOG_FILE_NAME);//Delete cust error log file
 8723              	LM657:
 8724              	LBB74:
 8725 7f9f C704247A 		movl	$LC275, (%esp)
 8725      790000
 8726 7fa6 E8000000 		call	_remove
 8726      00
3549:mtk_resgenerator.cpp ****         if(strcmp(argv[1], "-f")==0 && (strcmp(argv[2], "-i")==0 || strcmp(argv[2], "-a")==0 || str
 8728              	LM658:
 8729              	LBB75:
 8730 7fab C7442404 		movl	$LC276, 4(%esp)
 8730      8E790000 
 8731 7fb3 8B450C   		movl	12(%ebp), %eax
 8732 7fb6 83C004   		addl	$4, %eax
 8733 7fb9 8B00     		movl	(%eax), %eax
 8734 7fbb 890424   		movl	%eax, (%esp)
 8735 7fbe E8000000 		call	_strcmp
 8735      00
 8736 7fc3 85C0     		testl	%eax, %eax
 8737 7fc5 0F853204 		jne	L288
 8737      0000
 8738 7fcb C7442404 		movl	$LC277, 4(%esp)
 8738      91790000 
 8739 7fd3 8B450C   		movl	12(%ebp), %eax
 8740 7fd6 83C008   		addl	$8, %eax
 8741 7fd9 8B00     		movl	(%eax), %eax
 8742 7fdb 890424   		movl	%eax, (%esp)
 8743 7fde E8000000 		call	_strcmp
 8743      00
 8744 7fe3 85C0     		testl	%eax, %eax
 8745 7fe5 743C     		je	L289
 8746 7fe7 C7442404 		movl	$LC278, 4(%esp)
 8746      94790000 
 8747 7fef 8B450C   		movl	12(%ebp), %eax
 8748 7ff2 83C008   		addl	$8, %eax
 8749 7ff5 8B00     		movl	(%eax), %eax
 8750 7ff7 890424   		movl	%eax, (%esp)
 8751 7ffa E8000000 		call	_strcmp
 8751      00
 8752 7fff 85C0     		testl	%eax, %eax
 8753 8001 7420     		je	L289
 8754 8003 C7442404 		movl	$LC279, 4(%esp)
 8754      97790000 
 8755 800b 8B450C   		movl	12(%ebp), %eax
 8756 800e 83C008   		addl	$8, %eax
 8757 8011 8B00     		movl	(%eax), %eax
 8758 8013 890424   		movl	%eax, (%esp)
 8759 8016 E8000000 		call	_strcmp
 8759      00
 8760 801b 85C0     		testl	%eax, %eax
 8761 801d 0F85DA03 		jne	L288
 8761      0000
GAS LISTING d:/github/AIOT_WORKSHOP/AIoT_MT2503AVE_SDK/11CW1418SP4_03_CORETEK03AE_11C_V1_GPRS_MMI/plutommi/Customer/ResGenerator/gcctmp/ccmAfaaa.s 			page 202


 8762              	L289:
3550:mtk_resgenerator.cpp ****         {
3551:mtk_resgenerator.cpp ****             U16 nType;
3552:mtk_resgenerator.cpp ****             S8 upperFileName[MAX_FILENAME_LEN];
3553:mtk_resgenerator.cpp **** 
3554:mtk_resgenerator.cpp ****             dest_file = fopen(argv[4], "wb");
 8764              	LM659:
 8765              	LBB76:
 8766 8023 C7442404 		movl	$LC29, 4(%esp)
 8766      1B090000 
 8767 802b 8B450C   		movl	12(%ebp), %eax
 8768 802e 83C010   		addl	$16, %eax
 8769 8031 8B00     		movl	(%eax), %eax
 8770 8033 890424   		movl	%eax, (%esp)
 8771 8036 E8000000 		call	_fopen
 8771      00
 8772 803b A3000000 		movl	%eax, _dest_file
 8772      00
3555:mtk_resgenerator.cpp ****             if (dest_file == NULL){
 8774              	LM660:
 8775 8040 833D0000 		cmpl	$0, _dest_file
 8775      000000
 8776 8047 7526     		jne	L290
3556:mtk_resgenerator.cpp ****                 resultFailFlag = 1;
 8778              	LM661:
 8779 8049 C7050000 		movl	$1, _resultFailFlag
 8779      00000100 
 8779      0000
3557:mtk_resgenerator.cpp ****                 RESGEN_LOG_V("dest_file could not open!");
 8781              	LM662:
 8782 8053 C7442408 		movl	$LC280, 8(%esp)
 8782      9A790000 
 8783 805b C7442404 		movl	$LC1, 4(%esp)
 8783      3E000000 
 8784 8063 C7042401 		movl	$1, (%esp)
 8784      000000
 8785 806a E8000000 		call	_reslog_adaptor_log
 8785      00
 8786              	L290:
3558:mtk_resgenerator.cpp ****             }
3559:mtk_resgenerator.cpp **** 
3560:mtk_resgenerator.cpp ****             toolFlag = 1;
 8788              	LM663:
 8789 806f C7050000 		movl	$1, _toolFlag
 8789      00000100 
 8789      0000
3561:mtk_resgenerator.cpp ****             ToolPopulateInitial();
 8791              	LM664:
 8792 8079 E8000000 		call	_ToolPopulateInitial
 8792      00
3562:mtk_resgenerator.cpp **** 
3563:mtk_resgenerator.cpp ****             strncpy(upperFileName, argv[3], MAX_FILENAME_LEN);
 8794              	LM665:
 8795 807e C7442408 		movl	$512, 8(%esp)
 8795      00020000 
 8796 8086 8B450C   		movl	12(%ebp), %eax
 8797 8089 83C00C   		addl	$12, %eax
GAS LISTING d:/github/AIOT_WORKSHOP/AIoT_MT2503AVE_SDK/11CW1418SP4_03_CORETEK03AE_11C_V1_GPRS_MMI/plutommi/Customer/ResGenerator/gcctmp/ccmAfaaa.s 			page 203


 8798 808c 8B00     		movl	(%eax), %eax
 8799 808e 89442404 		movl	%eax, 4(%esp)
 8800 8092 8D8568FA 		leal	-1432(%ebp), %eax
 8800      FFFF
 8801 8098 890424   		movl	%eax, (%esp)
 8802 809b E8000000 		call	_strncpy
 8802      00
3564:mtk_resgenerator.cpp ****             str_upper(upperFileName, MAX_FILENAME_LEN);
 8804              	LM666:
 8805 80a0 C7442404 		movl	$512, 4(%esp)
 8805      00020000 
 8806 80a8 8D8568FA 		leal	-1432(%ebp), %eax
 8806      FFFF
 8807 80ae 890424   		movl	%eax, (%esp)
 8808 80b1 E8000000 		call	_str_upper
 8808      00
3565:mtk_resgenerator.cpp **** 
3566:mtk_resgenerator.cpp **** #ifdef __MMI_RESOURCE_ENFB_SUPPORT__
3567:mtk_resgenerator.cpp ****             disableENFB = 1;
3568:mtk_resgenerator.cpp **** #endif
3569:mtk_resgenerator.cpp ****             if(strcmp(argv[2], "-i")==0)
 8810              	LM667:
 8811              	LBB77:
 8812 80b6 C7442404 		movl	$LC277, 4(%esp)
 8812      91790000 
 8813 80be 8B450C   		movl	12(%ebp), %eax
 8814 80c1 83C008   		addl	$8, %eax
 8815 80c4 8B00     		movl	(%eax), %eax
 8816 80c6 890424   		movl	%eax, (%esp)
 8817 80c9 E8000000 		call	_strcmp
 8817      00
 8818 80ce 85C0     		testl	%eax, %eax
 8819 80d0 0F853501 		jne	L291
 8819      0000
3570:mtk_resgenerator.cpp ****             {
3571:mtk_resgenerator.cpp ****                 SetImageProcessData processData;
3572:mtk_resgenerator.cpp ****                 initImageProcessData(&processData);
 8821              	LM668:
 8822              	LBB78:
 8823 80d6 8D8548F8 		leal	-1976(%ebp), %eax
 8823      FFFF
 8824 80dc 890424   		movl	%eax, (%esp)
 8825 80df E8000000 		call	_initImageProcessData
 8825      00
3573:mtk_resgenerator.cpp ****                 ResgenImageOutStream * outstream;
3574:mtk_resgenerator.cpp ****                 ImageOutStreamInit(&outstream);
 8827              	LM669:
 8828 80e4 8D8574FC 		leal	-908(%ebp), %eax
 8828      FFFF
 8829 80ea 890424   		movl	%eax, (%esp)
 8830 80ed E8000000 		call	_ImageOutStreamInit
 8830      00
3575:mtk_resgenerator.cpp ****                 processData.outstream = outstream;
 8832              	LM670:
 8833 80f2 8B8574FC 		movl	-908(%ebp), %eax
 8833      FFFF
 8834 80f8 89854CFA 		movl	%eax, -1460(%ebp)
GAS LISTING d:/github/AIOT_WORKSHOP/AIoT_MT2503AVE_SDK/11CW1418SP4_03_CORETEK03AE_11C_V1_GPRS_MMI/plutommi/Customer/ResGenerator/gcctmp/ccmAfaaa.s 			page 204


 8834      FFFF
3576:mtk_resgenerator.cpp **** 
3577:mtk_resgenerator.cpp ****                 if(Iload(upperFileName, SYSTEM_IMAGE, AUTO_TYPE, &processData) == MMI_TRUE)
 8836              	LM671:
 8837              	LBB79:
 8838 80fe 8D8548F8 		leal	-1976(%ebp), %eax
 8838      FFFF
 8839 8104 8944240C 		movl	%eax, 12(%esp)
 8840 8108 C7442408 		movl	$0, 8(%esp)
 8840      00000000 
 8841 8110 C7442404 		movl	$0, 4(%esp)
 8841      00000000 
 8842 8118 8D8568FA 		leal	-1432(%ebp), %eax
 8842      FFFF
 8843 811e 890424   		movl	%eax, (%esp)
 8844 8121 E8000000 		call	_Iload
 8844      00
 8845 8126 83F801   		cmpl	$1, %eax
 8846 8129 0F85C200 		jne	L292
 8846      0000
3578:mtk_resgenerator.cpp ****                 {
3579:mtk_resgenerator.cpp ****                     resourceLoadResult = MMI_TRUE;
 8848              	LM672:
 8849              	LBB80:
 8850 812f C78584FD 		movl	$1, -636(%ebp)
 8850      FFFF0100 
 8850      0000
3580:mtk_resgenerator.cpp ****                     char *curr_output_data_filename = "temp_image";
 8852              	LM673:
 8853 8139 C78544F8 		movl	$LC281, -1980(%ebp)
 8853      FFFFB479 
 8853      0000
3581:mtk_resgenerator.cpp ****                     FILE *output_data_file = NULL;
 8855              	LM674:
 8856 8143 C78540F8 		movl	$0, -1984(%ebp)
 8856      FFFF0000 
 8856      0000
3582:mtk_resgenerator.cpp ****                     output_data_file = fopen(curr_output_data_filename, "ab");
 8858              	LM675:
 8859 814d C7442404 		movl	$LC282, 4(%esp)
 8859      BF790000 
 8860 8155 8B8544F8 		movl	-1980(%ebp), %eax
 8860      FFFF
 8861 815b 890424   		movl	%eax, (%esp)
 8862 815e E8000000 		call	_fopen
 8862      00
 8863 8163 898540F8 		movl	%eax, -1984(%ebp)
 8863      FFFF
3583:mtk_resgenerator.cpp ****                     while (output_data_file == NULL)
 8865              	LM676:
 8866              	L293:
 8867 8169 83BD40F8 		cmpl	$0, -1984(%ebp)
 8867      FFFF00
 8868 8170 7402     		je	L295
 8869 8172 EB2D     		jmp	L294
 8870              	L295:
3584:mtk_resgenerator.cpp ****                     {
GAS LISTING d:/github/AIOT_WORKSHOP/AIoT_MT2503AVE_SDK/11CW1418SP4_03_CORETEK03AE_11C_V1_GPRS_MMI/plutommi/Customer/ResGenerator/gcctmp/ccmAfaaa.s 			page 205


3585:mtk_resgenerator.cpp ****                         Sleep(50);
 8872              	LM677:
 8873 8174 C7042432 		movl	$50, (%esp)
 8873      000000
 8874 817b E8000000 		call	_Sleep@4
 8874      00
 8875 8180 83EC04   		subl	$4, %esp
3586:mtk_resgenerator.cpp ****                         output_data_file = fopen(curr_output_data_filename, "ab");
 8877              	LM678:
 8878 8183 C7442404 		movl	$LC282, 4(%esp)
 8878      BF790000 
 8879 818b 8B8544F8 		movl	-1980(%ebp), %eax
 8879      FFFF
 8880 8191 890424   		movl	%eax, (%esp)
 8881 8194 E8000000 		call	_fopen
 8881      00
 8882 8199 898540F8 		movl	%eax, -1984(%ebp)
 8882      FFFF
 8883 819f EBC8     		jmp	L293
 8884              	L294:
3587:mtk_resgenerator.cpp ****                     }
3588:mtk_resgenerator.cpp **** 
3589:mtk_resgenerator.cpp ****                     ImageOutStreamOutputFile(outstream, output_data_file);
 8886              	LM679:
 8887 81a1 8B8540F8 		movl	-1984(%ebp), %eax
 8887      FFFF
 8888 81a7 89442404 		movl	%eax, 4(%esp)
 8889 81ab 8B8574FC 		movl	-908(%ebp), %eax
 8889      FFFF
 8890 81b1 890424   		movl	%eax, (%esp)
 8891 81b4 E8000000 		call	_ImageOutStreamOutputFile
 8891      00
3590:mtk_resgenerator.cpp ****                     ImageOutStreamDeinit(&outstream);
 8893              	LM680:
 8894 81b9 8D8574FC 		leal	-908(%ebp), %eax
 8894      FFFF
 8895 81bf 890424   		movl	%eax, (%esp)
 8896 81c2 E8000000 		call	_ImageOutStreamDeinit
 8896      00
3591:mtk_resgenerator.cpp ****                     MYFCLOSE(output_data_file);
 8898              	LM681:
 8899 81c7 83BD40F8 		cmpl	$0, -1984(%ebp)
 8899      FFFF00
 8900 81ce 0F84AD00 		je	L299
 8900      0000
 8901 81d4 8B8540F8 		movl	-1984(%ebp), %eax
 8901      FFFF
 8902 81da 890424   		movl	%eax, (%esp)
 8903 81dd E8000000 		call	_fclose
 8903      00
 8904 81e2 C78540F8 		movl	$0, -1984(%ebp)
 8904      FFFF0000 
 8904      0000
 8905              	LBE80:
 8906 81ec E9900000 		jmp	L299
 8906      00
 8907              	L292:
GAS LISTING d:/github/AIOT_WORKSHOP/AIoT_MT2503AVE_SDK/11CW1418SP4_03_CORETEK03AE_11C_V1_GPRS_MMI/plutommi/Customer/ResGenerator/gcctmp/ccmAfaaa.s 			page 206


3592:mtk_resgenerator.cpp ****                 }
3593:mtk_resgenerator.cpp ****                 else
3594:mtk_resgenerator.cpp ****                 {
3595:mtk_resgenerator.cpp ****                     resourceLoadResult = MMI_FALSE;
 8909              	LM682:
 8910 81f1 C78584FD 		movl	$0, -636(%ebp)
 8910      FFFF0000 
 8910      0000
3596:mtk_resgenerator.cpp ****                     ImageOutStreamDeinit(&outstream);					
 8912              	LM683:
 8913 81fb 8D8574FC 		leal	-908(%ebp), %eax
 8913      FFFF
 8914 8201 890424   		movl	%eax, (%esp)
 8915 8204 E8000000 		call	_ImageOutStreamDeinit
 8915      00
 8916              	LBE79:
 8917              	LBE78:
 8918 8209 EB76     		jmp	L299
 8919              	L291:
3597:mtk_resgenerator.cpp ****                 }
3598:mtk_resgenerator.cpp ****             }
3599:mtk_resgenerator.cpp ****             else if(strcmp(argv[2], "-a")==0)
 8921              	LM684:
 8922 820b C7442404 		movl	$LC278, 4(%esp)
 8922      94790000 
 8923 8213 8B450C   		movl	12(%ebp), %eax
 8924 8216 83C008   		addl	$8, %eax
 8925 8219 8B00     		movl	(%eax), %eax
 8926 821b 890424   		movl	%eax, (%esp)
 8927 821e E8000000 		call	_strcmp
 8927      00
 8928 8223 85C0     		testl	%eax, %eax
 8929 8225 7520     		jne	L300
3600:mtk_resgenerator.cpp ****             {
3601:mtk_resgenerator.cpp ****                 resourceLoadResult = Aload(upperFileName, &nType);
 8931              	LM685:
 8932 8227 8D8572FC 		leal	-910(%ebp), %eax
 8932      FFFF
 8933 822d 89442404 		movl	%eax, 4(%esp)
 8934 8231 8D8568FA 		leal	-1432(%ebp), %eax
 8934      FFFF
 8935 8237 890424   		movl	%eax, (%esp)
 8936 823a E8000000 		call	_Aload
 8936      00
 8937 823f 898584FD 		movl	%eax, -636(%ebp)
 8937      FFFF
 8938 8245 EB3A     		jmp	L299
 8939              	L300:
3602:mtk_resgenerator.cpp ****             }
3603:mtk_resgenerator.cpp ****             else if(strcmp(argv[2], "-F")==0)
 8941              	LM686:
 8942 8247 C7442404 		movl	$LC279, 4(%esp)
 8942      97790000 
 8943 824f 8B450C   		movl	12(%ebp), %eax
 8944 8252 83C008   		addl	$8, %eax
 8945 8255 8B00     		movl	(%eax), %eax
 8946 8257 890424   		movl	%eax, (%esp)
GAS LISTING d:/github/AIOT_WORKSHOP/AIoT_MT2503AVE_SDK/11CW1418SP4_03_CORETEK03AE_11C_V1_GPRS_MMI/plutommi/Customer/ResGenerator/gcctmp/ccmAfaaa.s 			page 207


 8947 825a E8000000 		call	_strcmp
 8947      00
 8948 825f 85C0     		testl	%eax, %eax
 8949 8261 751E     		jne	L299
3604:mtk_resgenerator.cpp ****             {
3605:mtk_resgenerator.cpp ****                 resourceLoadResult = Fload(upperFileName, &nType);
 8951              	LM687:
 8952 8263 8D8572FC 		leal	-910(%ebp), %eax
 8952      FFFF
 8953 8269 89442404 		movl	%eax, 4(%esp)
 8954 826d 8D8568FA 		leal	-1432(%ebp), %eax
 8954      FFFF
 8955 8273 890424   		movl	%eax, (%esp)
 8956 8276 E8000000 		call	_Fload
 8956      00
 8957 827b 898584FD 		movl	%eax, -636(%ebp)
 8957      FFFF
 8958              	L299:
3606:mtk_resgenerator.cpp ****             }
3607:mtk_resgenerator.cpp **** #ifdef __MMI_RESOURCE_ENFB_SUPPORT__
3608:mtk_resgenerator.cpp ****             disableENFB = 0;
3609:mtk_resgenerator.cpp **** #endif
3610:mtk_resgenerator.cpp ****             //ToolPopulateDone();
3611:mtk_resgenerator.cpp **** 
3612:mtk_resgenerator.cpp ****             if(dest_file != NULL)
 8960              	LM688:
 8961              	LBE77:
 8962 8281 833D0000 		cmpl	$0, _dest_file
 8962      000000
 8963 8288 740D     		je	L303
3613:mtk_resgenerator.cpp ****             {
3614:mtk_resgenerator.cpp ****                 fclose(dest_file);
 8965              	LM689:
 8966 828a A1000000 		movl	_dest_file, %eax
 8966      00
 8967 828f 890424   		movl	%eax, (%esp)
 8968 8292 E8000000 		call	_fclose
 8968      00
 8969              	L303:
3615:mtk_resgenerator.cpp ****             }
3616:mtk_resgenerator.cpp **** 
3617:mtk_resgenerator.cpp ****             if(resultFailFlag==1 || resourceLoadResult != MMI_TRUE)
 8971              	LM690:
 8972 8297 833D0000 		cmpl	$1, _resultFailFlag
 8972      000001
 8973 829e 740E     		je	L305
 8974 82a0 83BD84FD 		cmpl	$1, -636(%ebp)
 8974      FFFF01
 8975 82a7 7505     		jne	L305
 8976 82a9 E96B0100 		jmp	L310
 8976      00
 8977              	L305:
3618:mtk_resgenerator.cpp ****             {
3619:mtk_resgenerator.cpp ****                 if (strlen(argv[4]) > (SHELL_CMD_BUFLEN - 8))
 8979              	LM691:
 8980 82ae 8B450C   		movl	12(%ebp), %eax
 8981 82b1 83C010   		addl	$16, %eax
GAS LISTING d:/github/AIOT_WORKSHOP/AIoT_MT2503AVE_SDK/11CW1418SP4_03_CORETEK03AE_11C_V1_GPRS_MMI/plutommi/Customer/ResGenerator/gcctmp/ccmAfaaa.s 			page 208


 8982 82b4 8B00     		movl	(%eax), %eax
 8983 82b6 890424   		movl	%eax, (%esp)
 8984 82b9 E8000000 		call	_strlen
 8984      00
 8985 82be 3D5C0200 		cmpl	$604, %eax
 8985      00
 8986 82c3 7637     		jbe	L306
3620:mtk_resgenerator.cpp ****                 {
3621:mtk_resgenerator.cpp ****                     RESGEN_LOG_E("mtk_resgenerator.exe paramater error");
 8988              	LM692:
 8989 82c5 C7442408 		movl	$LC283, 8(%esp)
 8989      E0790000 
 8990 82cd C7442404 		movl	$LC1, 4(%esp)
 8990      3E000000 
 8991 82d5 C7042403 		movl	$3, (%esp)
 8991      000000
 8992 82dc E8000000 		call	_reslog_adaptor_log
 8992      00
3622:mtk_resgenerator.cpp ****                     sprintf(custpaclLog,"[ERR] mtk_resgenerator.exe paramater error\n");
 8994              	LM693:
 8995 82e1 C7442404 		movl	$LC284, 4(%esp)
 8995      207A0000 
 8996 82e9 8D8578FC 		leal	-904(%ebp), %eax
 8996      FFFF
 8997 82ef 890424   		movl	%eax, (%esp)
 8998 82f2 E8000000 		call	_sprintf
 8998      00
 8999 82f7 E9D70000 		jmp	L307
 8999      00
 9000              	L306:
3623:mtk_resgenerator.cpp **** 
3624:mtk_resgenerator.cpp ****                 }
3625:mtk_resgenerator.cpp ****                 else
3626:mtk_resgenerator.cpp ****                 {
3627:mtk_resgenerator.cpp ****                     //sprintf(tempCommand, "del -F %s", argv[4]);
3628:mtk_resgenerator.cpp ****                     //system(tempCommand);
3629:mtk_resgenerator.cpp ****                     if(argv[2]!=NULL && argv[3]!=NULL && argv[3]!=NULL)
 9002              	LM694:
 9003 82fc 8B450C   		movl	12(%ebp), %eax
 9004 82ff 83C008   		addl	$8, %eax
 9005 8302 833800   		cmpl	$0, (%eax)
 9006 8305 0F849600 		je	L308
 9006      0000
 9007 830b 8B450C   		movl	12(%ebp), %eax
 9008 830e 83C00C   		addl	$12, %eax
 9009 8311 833800   		cmpl	$0, (%eax)
 9010 8314 0F848700 		je	L308
 9010      0000
 9011 831a 8B450C   		movl	12(%ebp), %eax
 9012 831d 83C00C   		addl	$12, %eax
 9013 8320 833800   		cmpl	$0, (%eax)
 9014 8323 747C     		je	L308
3630:mtk_resgenerator.cpp ****                     {
3631:mtk_resgenerator.cpp ****                         RESGEN_LOG_E("mtk_resgenerator.exe %s failed, can't load %s, no output to %
 9016              	LM695:
 9017 8325 8B450C   		movl	12(%ebp), %eax
 9018 8328 83C010   		addl	$16, %eax
GAS LISTING d:/github/AIOT_WORKSHOP/AIoT_MT2503AVE_SDK/11CW1418SP4_03_CORETEK03AE_11C_V1_GPRS_MMI/plutommi/Customer/ResGenerator/gcctmp/ccmAfaaa.s 			page 209


 9019 832b 8B00     		movl	(%eax), %eax
 9020 832d 89442414 		movl	%eax, 20(%esp)
 9021 8331 8B450C   		movl	12(%ebp), %eax
 9022 8334 83C00C   		addl	$12, %eax
 9023 8337 8B00     		movl	(%eax), %eax
 9024 8339 89442410 		movl	%eax, 16(%esp)
 9025 833d 8B450C   		movl	12(%ebp), %eax
 9026 8340 83C008   		addl	$8, %eax
 9027 8343 8B00     		movl	(%eax), %eax
 9028 8345 8944240C 		movl	%eax, 12(%esp)
 9029 8349 C7442408 		movl	$LC285, 8(%esp)
 9029      607A0000 
 9030 8351 C7442404 		movl	$LC1, 4(%esp)
 9030      3E000000 
 9031 8359 C7042403 		movl	$3, (%esp)
 9031      000000
 9032 8360 E8000000 		call	_reslog_adaptor_log
 9032      00
3632:mtk_resgenerator.cpp ****                         sprintf(custpaclLog,"[ERR] mtk_resgenerator.exe %s failed, can't load %s, n
 9034              	LM696:
 9035 8365 8B450C   		movl	12(%ebp), %eax
 9036 8368 83C010   		addl	$16, %eax
 9037 836b 8B00     		movl	(%eax), %eax
 9038 836d 89442410 		movl	%eax, 16(%esp)
 9039 8371 8B450C   		movl	12(%ebp), %eax
 9040 8374 83C00C   		addl	$12, %eax
 9041 8377 8B00     		movl	(%eax), %eax
 9042 8379 8944240C 		movl	%eax, 12(%esp)
 9043 837d 8B450C   		movl	12(%ebp), %eax
 9044 8380 83C008   		addl	$8, %eax
 9045 8383 8B00     		movl	(%eax), %eax
 9046 8385 89442408 		movl	%eax, 8(%esp)
 9047 8389 C7442404 		movl	$LC286, 4(%esp)
 9047      A07A0000 
 9048 8391 8D8578FC 		leal	-904(%ebp), %eax
 9048      FFFF
 9049 8397 890424   		movl	%eax, (%esp)
 9050 839a E8000000 		call	_sprintf
 9050      00
 9051 839f EB32     		jmp	L307
 9052              	L308:
3633:mtk_resgenerator.cpp ****                     }
3634:mtk_resgenerator.cpp ****                     else
3635:mtk_resgenerator.cpp ****                     {
3636:mtk_resgenerator.cpp ****                         RESGEN_LOG_E("mtk_resgenerator.exe can't indentify the parameter, please ch
 9054              	LM697:
 9055 83a1 C7442408 		movl	$LC287, 8(%esp)
 9055      007B0000 
 9056 83a9 C7442404 		movl	$LC1, 4(%esp)
 9056      3E000000 
 9057 83b1 C7042403 		movl	$3, (%esp)
 9057      000000
 9058 83b8 E8000000 		call	_reslog_adaptor_log
 9058      00
3637:mtk_resgenerator.cpp ****                         sprintf(custpaclLog,"[ERR] mtk_resgenerator.exe can't indentify the paramet
 9060              	LM698:
 9061 83bd C7442404 		movl	$LC288, 4(%esp)
GAS LISTING d:/github/AIOT_WORKSHOP/AIoT_MT2503AVE_SDK/11CW1418SP4_03_CORETEK03AE_11C_V1_GPRS_MMI/plutommi/Customer/ResGenerator/gcctmp/ccmAfaaa.s 			page 210


 9061      807B0000 
 9062 83c5 8D8578FC 		leal	-904(%ebp), %eax
 9062      FFFF
 9063 83cb 890424   		movl	%eax, (%esp)
 9064 83ce E8000000 		call	_sprintf
 9064      00
 9065              	L307:
3638:mtk_resgenerator.cpp ****                     }
3639:mtk_resgenerator.cpp ****                 }
3640:mtk_resgenerator.cpp ****                 writeLogToFile(CUSTPACL_LOG_FILE_NAME,custpaclLog,0);
 9067              	LM699:
 9068 83d3 C7442408 		movl	$0, 8(%esp)
 9068      00000000 
 9069 83db 8D8578FC 		leal	-904(%ebp), %eax
 9069      FFFF
 9070 83e1 89442404 		movl	%eax, 4(%esp)
 9071 83e5 C704247A 		movl	$LC275, (%esp)
 9071      790000
 9072 83ec E83FE8FF 		call	__Z14writeLogToFilePcS_i
 9072      FF
3641:mtk_resgenerator.cpp ****                 exit(2);
 9074              	LM700:
 9075 83f1 C7042402 		movl	$2, (%esp)
 9075      000000
 9076 83f8 E8000000 		call	_exit
 9076      00
 9077              	L288:
3642:mtk_resgenerator.cpp ****             }
3643:mtk_resgenerator.cpp ****         }
3644:mtk_resgenerator.cpp ****         else
3645:mtk_resgenerator.cpp ****         {
3646:mtk_resgenerator.cpp ****             RESGEN_LOG_E("Usage: mtk_resgenerator.exe -f [-i or -a] ImageFilename OutputFilename");
 9079              	LM701:
 9080              	LBE76:
 9081 83fd C7442408 		movl	$LC289, 8(%esp)
 9081      007C0000 
 9082 8405 C7442404 		movl	$LC1, 4(%esp)
 9082      3E000000 
 9083 840d C7042403 		movl	$3, (%esp)
 9083      000000
 9084 8414 E8000000 		call	_reslog_adaptor_log
 9084      00
 9085              	L310:
3647:mtk_resgenerator.cpp ****         }
3648:mtk_resgenerator.cpp **** 
3649:mtk_resgenerator.cpp ****         return 1;
 9087              	LM702:
 9088              	LBE75:
 9089 8419 C7853CF8 		movl	$1, -1988(%ebp)
 9089      FFFF0100 
 9089      0000
 9090 8423 E9AD0300 		jmp	L282
 9090      00
 9091              	L287:
3650:mtk_resgenerator.cpp ****     }
3651:mtk_resgenerator.cpp **** 
3652:mtk_resgenerator.cpp ****     if(argc==3 || argc==4)
GAS LISTING d:/github/AIOT_WORKSHOP/AIoT_MT2503AVE_SDK/11CW1418SP4_03_CORETEK03AE_11C_V1_GPRS_MMI/plutommi/Customer/ResGenerator/gcctmp/ccmAfaaa.s 			page 211


 9093              	LM703:
 9094              	LBE74:
 9095              	LBE73:
 9096              	LBB81:
 9097 8428 837D0803 		cmpl	$3, 8(%ebp)
 9098 842c 740B     		je	L312
 9099 842e 837D0804 		cmpl	$4, 8(%ebp)
 9100 8432 7405     		je	L312
 9101 8434 E9AC0100 		jmp	L311
 9101      00
 9102              	L312:
3653:mtk_resgenerator.cpp ****     {
3654:mtk_resgenerator.cpp ****         if(strcmp(argv[1], "-g")==0 && strcmp(argv[2], "-x")==0)
 9104              	LM704:
 9105              	LBB82:
 9106              	LBB83:
 9107 8439 C7442404 		movl	$LC290, 4(%esp)
 9107      477C0000 
 9108 8441 8B450C   		movl	12(%ebp), %eax
 9109 8444 83C004   		addl	$4, %eax
 9110 8447 8B00     		movl	(%eax), %eax
 9111 8449 890424   		movl	%eax, (%esp)
 9112 844c E8000000 		call	_strcmp
 9112      00
 9113 8451 85C0     		testl	%eax, %eax
 9114 8453 7552     		jne	L313
 9115 8455 C7442404 		movl	$LC291, 4(%esp)
 9115      4A7C0000 
 9116 845d 8B450C   		movl	12(%ebp), %eax
 9117 8460 83C008   		addl	$8, %eax
 9118 8463 8B00     		movl	(%eax), %eax
 9119 8465 890424   		movl	%eax, (%esp)
 9120 8468 E8000000 		call	_strcmp
 9120      00
 9121 846d 85C0     		testl	%eax, %eax
 9122 846f 7536     		jne	L313
3655:mtk_resgenerator.cpp ****         {
3656:mtk_resgenerator.cpp ****             if(argc==4 && strcmp(argv[3], "-c")==0)
 9124              	LM705:
 9125 8471 837D0804 		cmpl	$4, 8(%ebp)
 9126 8475 7526     		jne	L314
 9127 8477 C7442404 		movl	$LC292, 4(%esp)
 9127      4D7C0000 
 9128 847f 8B450C   		movl	12(%ebp), %eax
 9129 8482 83C00C   		addl	$12, %eax
 9130 8485 8B00     		movl	(%eax), %eax
 9131 8487 890424   		movl	%eax, (%esp)
 9132 848a E8000000 		call	_strcmp
 9132      00
 9133 848f 85C0     		testl	%eax, %eax
 9134 8491 750A     		jne	L314
3657:mtk_resgenerator.cpp ****             {
3658:mtk_resgenerator.cpp ****                 /* -c is mean: clean unzip file anyway */
3659:mtk_resgenerator.cpp ****                 g_is_clean = MMI_TRUE;
 9136              	LM706:
 9137 8493 C7050000 		movl	$1, _g_is_clean
 9137      00000100 
GAS LISTING d:/github/AIOT_WORKSHOP/AIoT_MT2503AVE_SDK/11CW1418SP4_03_CORETEK03AE_11C_V1_GPRS_MMI/plutommi/Customer/ResGenerator/gcctmp/ccmAfaaa.s 			page 212


 9137      0000
 9138              	L314:
3660:mtk_resgenerator.cpp ****             }
3661:mtk_resgenerator.cpp ****             TRACETIME;
3662:mtk_resgenerator.cpp **** 		#ifndef __POPULATE_NO_IMAGE_DATA__
3663:mtk_resgenerator.cpp ****             UnzipImage();
3664:mtk_resgenerator.cpp **** 		#endif
3665:mtk_resgenerator.cpp ****             UnzipAudio();
 9140              	LM707:
 9141 849d E8688BFF 		call	__Z10UnzipAudiov
 9141      FF
 9142 84a2 E93E0100 		jmp	L311
 9142      00
 9143              	L313:
3666:mtk_resgenerator.cpp ****             TRACETIME;
3667:mtk_resgenerator.cpp ****         }
3668:mtk_resgenerator.cpp **** #ifdef __REGEN_INTERNAL_BATCHED__
3669:mtk_resgenerator.cpp ****         else if(argc==3 && strcmp(argv[1], "-b")==0 ){
 9145              	LM708:
 9146              	LBB84:
 9147              	LBB85:
 9148 84a7 837D0803 		cmpl	$3, 8(%ebp)
 9149 84ab 0F850901 		jne	L316
 9149      0000
 9150 84b1 C7442404 		movl	$LC293, 4(%esp)
 9150      507C0000 
 9151 84b9 8B450C   		movl	12(%ebp), %eax
 9152 84bc 83C004   		addl	$4, %eax
 9153 84bf 8B00     		movl	(%eax), %eax
 9154 84c1 890424   		movl	%eax, (%esp)
 9155 84c4 E8000000 		call	_strcmp
 9155      00
 9156 84c9 85C0     		testl	%eax, %eax
 9157 84cb 0F85E900 		jne	L316
 9157      0000
3670:mtk_resgenerator.cpp ****             if(argv[2]!=NULL){
 9159              	LM709:
 9160 84d1 8B450C   		movl	12(%ebp), %eax
 9161              	LBB86:
 9162              	LBB87:
 9163 84d4 83C008   		addl	$8, %eax
 9164 84d7 833800   		cmpl	$0, (%eax)
 9165 84da 0F84B300 		je	L317
 9165      0000
3671:mtk_resgenerator.cpp ****                 int batchedResgenResult = 0;
 9167              	LM710:
 9168              	LBB88:
 9169 84e0 C78540F8 		movl	$0, -1984(%ebp)
 9169      FFFF0000 
 9169      0000
3672:mtk_resgenerator.cpp ****                 BatchedResFileGenService *batchedResFileGenerator = new BatchedResFileGenService();
 9171              	LM711:
 9172 84ea C7042401 		movl	$1, (%esp)
 9172      000000
 9173 84f1 E8000000 		call	__Znwj
 9173      00
 9174 84f6 898544F8 		movl	%eax, -1980(%ebp)
GAS LISTING d:/github/AIOT_WORKSHOP/AIoT_MT2503AVE_SDK/11CW1418SP4_03_CORETEK03AE_11C_V1_GPRS_MMI/plutommi/Customer/ResGenerator/gcctmp/ccmAfaaa.s 			page 213


 9174      FFFF
 9175              	L318:
3673:mtk_resgenerator.cpp ****                 batchedResgenResult=batchedResFileGenerator->generateResource(argv[2]);
 9177              	LM712:
 9178 84fc 8B450C   		movl	12(%ebp), %eax
 9179 84ff 83C008   		addl	$8, %eax
 9180 8502 8B00     		movl	(%eax), %eax
 9181 8504 89442404 		movl	%eax, 4(%esp)
 9182 8508 8B8544F8 		movl	-1980(%ebp), %eax
 9182      FFFF
 9183 850e 890424   		movl	%eax, (%esp)
 9184 8511 E8000000 		call	__ZN24BatchedResFileGenService16generateResourceEPc
 9184      00
 9185 8516 898540F8 		movl	%eax, -1984(%ebp)
 9185      FFFF
3674:mtk_resgenerator.cpp ****                 delete batchedResFileGenerator; 
 9187              	LM713:
 9188 851c 8B8544F8 		movl	-1980(%ebp), %eax
 9188      FFFF
 9189 8522 890424   		movl	%eax, (%esp)
 9190 8525 E8000000 		call	__ZdlPv
 9190      00
3675:mtk_resgenerator.cpp **** 
3676:mtk_resgenerator.cpp ****                 if(batchedResgenResult==0){
 9192              	LM714:
 9193 852a 83BD40F8 		cmpl	$0, -1984(%ebp)
 9193      FFFF00
 9194 8531 7535     		jne	L320
3677:mtk_resgenerator.cpp ****                     RESGEN_LOG_V("Batched Resgen finished successfully");
 9196              	LM715:
 9197 8533 C7442408 		movl	$LC294, 8(%esp)
 9197      607C0000 
 9198 853b C7442404 		movl	$LC1, 4(%esp)
 9198      3E000000 
 9199 8543 C7042401 		movl	$1, (%esp)
 9199      000000
 9200 854a E8000000 		call	_reslog_adaptor_log
 9200      00
3678:mtk_resgenerator.cpp ****                     g_error = 1;
 9202              	LM716:
 9203 854f C7051000 		movl	$1, _g_error
 9203      00000100 
 9203      0000
3679:mtk_resgenerator.cpp ****                     return 1;
 9205              	LM717:
 9206 8559 C7853CF8 		movl	$1, -1988(%ebp)
 9206      FFFF0100 
 9206      0000
 9207 8563 E96D0200 		jmp	L282
 9207      00
 9208              	L320:
3680:mtk_resgenerator.cpp ****                 }else{
3681:mtk_resgenerator.cpp ****                     RESGEN_LOG_E("Batched Resgen failed");
 9210              	LM718:
 9211 8568 C7442408 		movl	$LC295, 8(%esp)
 9211      857C0000 
 9212 8570 C7442404 		movl	$LC1, 4(%esp)
GAS LISTING d:/github/AIOT_WORKSHOP/AIoT_MT2503AVE_SDK/11CW1418SP4_03_CORETEK03AE_11C_V1_GPRS_MMI/plutommi/Customer/ResGenerator/gcctmp/ccmAfaaa.s 			page 214


 9212      3E000000 
 9213 8578 C7042403 		movl	$3, (%esp)
 9213      000000
 9214 857f E8000000 		call	_reslog_adaptor_log
 9214      00
3682:mtk_resgenerator.cpp ****                     return 2;
 9216              	LM719:
 9217 8584 C7853CF8 		movl	$2, -1988(%ebp)
 9217      FFFF0200 
 9217      0000
 9218 858e E9420200 		jmp	L282
 9218      00
 9219              	L317:
3683:mtk_resgenerator.cpp ****                 }
3684:mtk_resgenerator.cpp ****             }else{
3685:mtk_resgenerator.cpp ****                 fprintf(stderr, "Usage: mtk_resgenerator.exe -b [filename]\n");
 9221              	LM720:
 9222              	LBE88:
 9223 8593 C7442404 		movl	$LC296, 4(%esp)
 9223      A07C0000 
 9224 859b A1000000 		movl	__imp___iob, %eax
 9224      00
 9225 85a0 83C040   		addl	$64, %eax
 9226 85a3 890424   		movl	%eax, (%esp)
 9227 85a6 E8000000 		call	_fprintf
 9227      00
3686:mtk_resgenerator.cpp ****                 return 0;
 9229              	LM721:
 9230 85ab C7853CF8 		movl	$0, -1988(%ebp)
 9230      FFFF0000 
 9230      0000
 9231 85b5 E91B0200 		jmp	L282
 9231      00
 9232              	L316:
3687:mtk_resgenerator.cpp ****             }
3688:mtk_resgenerator.cpp ****         }
3689:mtk_resgenerator.cpp **** 
3690:mtk_resgenerator.cpp **** #endif //__REGEN_INTERNAL_BATCHED__
3691:mtk_resgenerator.cpp ****         else
3692:mtk_resgenerator.cpp ****         {
3693:mtk_resgenerator.cpp ****             RESGEN_LOG_E("Usage: mtk_resgenerator.exe -g -x");
 9234              	LM722:
 9235              	LBE87:
 9236              	LBE86:
 9237 85ba C7442408 		movl	$LC297, 8(%esp)
 9237      E07C0000 
 9238 85c2 C7442404 		movl	$LC1, 4(%esp)
 9238      3E000000 
 9239 85ca C7042403 		movl	$3, (%esp)
 9239      000000
 9240 85d1 E8000000 		call	_reslog_adaptor_log
 9240      00
3694:mtk_resgenerator.cpp ****             return 0;
 9242              	LM723:
 9243 85d6 C7853CF8 		movl	$0, -1988(%ebp)
 9243      FFFF0000 
 9243      0000
GAS LISTING d:/github/AIOT_WORKSHOP/AIoT_MT2503AVE_SDK/11CW1418SP4_03_CORETEK03AE_11C_V1_GPRS_MMI/plutommi/Customer/ResGenerator/gcctmp/ccmAfaaa.s 			page 215


 9244 85e0 E9F00100 		jmp	L282
 9244      00
 9245              	L311:
3695:mtk_resgenerator.cpp ****         }
3696:mtk_resgenerator.cpp ****     }
3697:mtk_resgenerator.cpp **** 
3698:mtk_resgenerator.cpp ****     if((argc==2 || argc==3 || argc==4) && strcmp(argv[1], "-g")==0)
 9247              	LM724:
 9248              	LBE85:
 9249              	LBE84:
 9250              	LBE83:
 9251              	LBE82:
 9252              	LBE81:
 9253 85e5 837D0802 		cmpl	$2, 8(%ebp)
 9254 85e9 7411     		je	L325
 9255 85eb 837D0803 		cmpl	$3, 8(%ebp)
 9256 85ef 740B     		je	L325
 9257 85f1 837D0804 		cmpl	$4, 8(%ebp)
 9258 85f5 7405     		je	L325
 9259 85f7 E9B30100 		jmp	L324
 9259      00
 9260              	L325:
 9261 85fc C7442404 		movl	$LC290, 4(%esp)
 9261      477C0000 
 9262 8604 8B450C   		movl	12(%ebp), %eax
 9263 8607 83C004   		addl	$4, %eax
 9264 860a 8B00     		movl	(%eax), %eax
 9265 860c 890424   		movl	%eax, (%esp)
 9266 860f E8000000 		call	_strcmp
 9266      00
 9267 8614 85C0     		testl	%eax, %eax
 9268 8616 0F859301 		jne	L324
 9268      0000
3699:mtk_resgenerator.cpp ****     {
3700:mtk_resgenerator.cpp ****         /* Set program exit */
3701:mtk_resgenerator.cpp ****         atexit(resgen_on_exit);
 9270              	LM725:
 9271 861c C70424AC 		movl	$__Z14resgen_on_exitv, (%esp)
 9271      6B0000
 9272 8623 E8000000 		call	_atexit
 9272      00
3702:mtk_resgenerator.cpp **** 
3703:mtk_resgenerator.cpp **** 
3704:mtk_resgenerator.cpp ****         RESGEN_LOG_V("MediaTek Resource Generate System 0.1");
 9274              	LM726:
 9275 8628 C7442408 		movl	$LC298, 8(%esp)
 9275      207D0000 
 9276 8630 C7442404 		movl	$LC1, 4(%esp)
 9276      3E000000 
 9277 8638 C7042401 		movl	$1, (%esp)
 9277      000000
 9278 863f E8000000 		call	_reslog_adaptor_log
 9278      00
3705:mtk_resgenerator.cpp **** 
3706:mtk_resgenerator.cpp ****         if(!CreateDirectory("debug", 0))
 9280              	LM727:
 9281 8644 C7442404 		movl	$0, 4(%esp)
GAS LISTING d:/github/AIOT_WORKSHOP/AIoT_MT2503AVE_SDK/11CW1418SP4_03_CORETEK03AE_11C_V1_GPRS_MMI/plutommi/Customer/ResGenerator/gcctmp/ccmAfaaa.s 			page 216


 9281      00000000 
 9282 864c C7042446 		movl	$LC299, (%esp)
 9282      7D0000
 9283 8653 E8000000 		call	_CreateDirectoryA@8
 9283      00
 9284 8658 83EC08   		subl	$8, %esp
 9285 865b 85C0     		testl	%eax, %eax
 9286 865d 7527     		jne	L326
3707:mtk_resgenerator.cpp ****         {
3708:mtk_resgenerator.cpp ****             RESGEN_LOG_V("'debug' directory already exists! ret=[%d]", GetLastError());
 9288              	LM728:
 9289 865f E8000000 		call	_GetLastError@0
 9289      00
 9290 8664 8944240C 		movl	%eax, 12(%esp)
 9291 8668 C7442408 		movl	$LC300, 8(%esp)
 9291      607D0000 
 9292 8670 C7442404 		movl	$LC1, 4(%esp)
 9292      3E000000 
 9293 8678 C7042401 		movl	$1, (%esp)
 9293      000000
 9294 867f E8000000 		call	_reslog_adaptor_log
 9294      00
 9295 8684 EB1C     		jmp	L327
 9296              	L326:
3709:mtk_resgenerator.cpp ****         }
3710:mtk_resgenerator.cpp ****         else
3711:mtk_resgenerator.cpp ****         {
3712:mtk_resgenerator.cpp ****             RESGEN_LOG_V("'debug' directory is created!");            
 9298              	LM729:
 9299 8686 C7442408 		movl	$LC301, 8(%esp)
 9299      8B7D0000 
 9300 868e C7442404 		movl	$LC1, 4(%esp)
 9300      3E000000 
 9301 8696 C7042401 		movl	$1, (%esp)
 9301      000000
 9302 869d E8000000 		call	_reslog_adaptor_log
 9302      00
 9303              	L327:
3713:mtk_resgenerator.cpp ****         }
3714:mtk_resgenerator.cpp **** 
3715:mtk_resgenerator.cpp ****         if(argc==4 && strcmp(argv[3], "-r")==0)
 9305              	LM730:
 9306 86a2 837D0804 		cmpl	$4, 8(%ebp)
 9307 86a6 7526     		jne	L328
 9308 86a8 C7442404 		movl	$LC302, 4(%esp)
 9308      A97D0000 
 9309 86b0 8B450C   		movl	12(%ebp), %eax
 9310 86b3 83C00C   		addl	$12, %eax
 9311 86b6 8B00     		movl	(%eax), %eax
 9312 86b8 890424   		movl	%eax, (%esp)
 9313 86bb E8000000 		call	_strcmp
 9313      00
 9314 86c0 85C0     		testl	%eax, %eax
 9315 86c2 750A     		jne	L328
3716:mtk_resgenerator.cpp ****         {
3717:mtk_resgenerator.cpp ****             /* -r is mean: remake resource */
3718:mtk_resgenerator.cpp ****             g_is_log = MMI_FALSE;
GAS LISTING d:/github/AIOT_WORKSHOP/AIoT_MT2503AVE_SDK/11CW1418SP4_03_CORETEK03AE_11C_V1_GPRS_MMI/plutommi/Customer/ResGenerator/gcctmp/ccmAfaaa.s 			page 217


 9317              	LM731:
 9318 86c4 C7050000 		movl	$0, _g_is_log
 9318      00000000 
 9318      0000
 9319              	L328:
3719:mtk_resgenerator.cpp ****         }
3720:mtk_resgenerator.cpp **** 
3721:mtk_resgenerator.cpp **** 
3722:mtk_resgenerator.cpp **** 
3723:mtk_resgenerator.cpp ****         /* ID Range Check */
3724:mtk_resgenerator.cpp ****         fprintf(stderr, "Resource ID range check old_last_menu=[%d], res_first=[%d] res_last=[%d].\
 9321              	LM732:
 9322 86ce C7442410 		movl	$44374, 16(%esp)
 9322      56AD0000 
 9323 86d6 C744240C 		movl	$3000, 12(%esp)
 9323      B80B0000 
 9324 86de C7442408 		movl	$1562, 8(%esp)
 9324      1A060000 
 9325 86e6 C7442404 		movl	$LC303, 4(%esp)
 9325      C07D0000 
 9326 86ee A1000000 		movl	__imp___iob, %eax
 9326      00
 9327 86f3 83C040   		addl	$64, %eax
 9328 86f6 890424   		movl	%eax, (%esp)
 9329 86f9 E8000000 		call	_fprintf
 9329      00
3725:mtk_resgenerator.cpp ****         RESGEN_LOG_V("Resource ID range check old_last_menu=[%d], res_first=[%d] res_last=[%d].", M
 9331              	LM733:
 9332 86fe C7442414 		movl	$44374, 20(%esp)
 9332      56AD0000 
 9333 8706 C7442410 		movl	$3000, 16(%esp)
 9333      B80B0000 
 9334 870e C744240C 		movl	$1562, 12(%esp)
 9334      1A060000 
 9335 8716 C7442408 		movl	$LC304, 8(%esp)
 9335      207E0000 
 9336 871e C7442404 		movl	$LC1, 4(%esp)
 9336      3E000000 
 9337 8726 C7042401 		movl	$1, (%esp)
 9337      000000
 9338 872d E8000000 		call	_reslog_adaptor_log
 9338      00
3726:mtk_resgenerator.cpp ****         if (MENU_ITEM_END > RESOURCE_BASE_FIRST_VALUE)
3727:mtk_resgenerator.cpp ****         {
3728:mtk_resgenerator.cpp ****             fprintf(stderr, "Old menu ID more than RESOURCE_BASE_FIRST_VALUE, Please modify the num
3729:mtk_resgenerator.cpp ****             RESGEN_LOG_E("Old menu ID more than RESOURCE_BASE_FIRST_VALUE, Please modify the number
3730:mtk_resgenerator.cpp ****             exit(2);
3731:mtk_resgenerator.cpp ****         }
3732:mtk_resgenerator.cpp ****         if (RESOURCE_BASE_END_END > 0xFFFF)
3733:mtk_resgenerator.cpp ****         {
3734:mtk_resgenerator.cpp ****             fprintf(stderr, " RESOURCE_BASE total range overflow, more than 16bit. Please adjust th
3735:mtk_resgenerator.cpp ****             RESGEN_LOG_E(" RESOURCE_BASE total range overflow, more than 16bit, Please adjust the r
3736:mtk_resgenerator.cpp ****             exit(2);
3737:mtk_resgenerator.cpp ****         }
3738:mtk_resgenerator.cpp **** 
3739:mtk_resgenerator.cpp ****         TRACETIME;
3740:mtk_resgenerator.cpp **** 
GAS LISTING d:/github/AIOT_WORKSHOP/AIoT_MT2503AVE_SDK/11CW1418SP4_03_CORETEK03AE_11C_V1_GPRS_MMI/plutommi/Customer/ResGenerator/gcctmp/ccmAfaaa.s 			page 218


3741:mtk_resgenerator.cpp ****         prepare3DMetaPopulation();
 9340              	LM734:
 9341 8732 E8F3EEFF 		call	__Z23prepare3DMetaPopulationv
 9341      FF
3742:mtk_resgenerator.cpp **** #ifndef __POPULATE_NO_STRING_DATA__
3743:mtk_resgenerator.cpp ****         InitStrPopulate();
3744:mtk_resgenerator.cpp **** #endif
3745:mtk_resgenerator.cpp ****         /* Resource population */
3746:mtk_resgenerator.cpp ****         RESGEN_LOG_V("Start resource population");
 9343              	LM735:
 9344 8737 C7442408 		movl	$LC309, 8(%esp)
 9344      6A7E0000 
 9345 873f C7442404 		movl	$LC1, 4(%esp)
 9345      3E000000 
 9346 8747 C7042401 		movl	$1, (%esp)
 9346      000000
 9347 874e E8000000 		call	_reslog_adaptor_log
 9347      00
3747:mtk_resgenerator.cpp **** 
3748:mtk_resgenerator.cpp **** #ifndef  __RESGEN_INTERNAL_OFFLINE__
3749:mtk_resgenerator.cpp ****         LegcayResPopController();
3750:mtk_resgenerator.cpp **** #else
3751:mtk_resgenerator.cpp ****         OfflineResPopController();
 9349              	LM736:
 9350 8753 E8BCE9FF 		call	__Z23OfflineResPopControllerv
 9350      FF
3752:mtk_resgenerator.cpp **** #endif
3753:mtk_resgenerator.cpp ****         /* Image resource generation */
3754:mtk_resgenerator.cpp **** #ifndef __POPULATE_NO_IMAGE_DATA__
3755:mtk_resgenerator.cpp **** 
3756:mtk_resgenerator.cpp ****         PopulateImageSearch();		
3757:mtk_resgenerator.cpp ****         GenerateImageResFile();
3758:mtk_resgenerator.cpp **** #ifdef __MMI_RESOURCE_IMAGE_COMPRESS__
3759:mtk_resgenerator.cpp ****         GenerateImageZipList();
3760:mtk_resgenerator.cpp **** #endif /* (__MMI_RESOURCE_IMAGE_COMPRESS__) */
3761:mtk_resgenerator.cpp **** 
3762:mtk_resgenerator.cpp ****         GenerateImageMapFile();
3763:mtk_resgenerator.cpp ****         GenerateImageMapSearchFile();
3764:mtk_resgenerator.cpp **** #endif //__POPULATE_NO_IMAGE_DATA__
3765:mtk_resgenerator.cpp **** 
3766:mtk_resgenerator.cpp ****         /* Audio resource generation */
3767:mtk_resgenerator.cpp ****         PopulateAudioSearch();
 9352              	LM737:
 9353 8758 E8BF8EFF 		call	__Z19PopulateAudioSearchv
 9353      FF
3768:mtk_resgenerator.cpp ****         GenerateAudioResFile();
 9355              	LM738:
 9356 875d E8629FFF 		call	__Z20GenerateAudioResFilev
 9356      FF
3769:mtk_resgenerator.cpp **** #ifdef __MMI_RESOURCE_AUDIO_COMPRESS__
3770:mtk_resgenerator.cpp ****         GenerateAudioZipList();
3771:mtk_resgenerator.cpp **** #endif /* (__MMI_RESOURCE_AUDIO_COMPRESS__) */
3772:mtk_resgenerator.cpp ****         GenerateAudioMapFile();
 9358              	LM739:
 9359 8762 E8D7A7FF 		call	__Z20GenerateAudioMapFilev
 9359      FF
3773:mtk_resgenerator.cpp ****         GenerateAudioMapSearchFile();
GAS LISTING d:/github/AIOT_WORKSHOP/AIoT_MT2503AVE_SDK/11CW1418SP4_03_CORETEK03AE_11C_V1_GPRS_MMI/plutommi/Customer/ResGenerator/gcctmp/ccmAfaaa.s 			page 219


 9361              	LM740:
 9362 8767 E846ADFF 		call	__Z26GenerateAudioMapSearchFilev
 9362      FF
3774:mtk_resgenerator.cpp **** 
3775:mtk_resgenerator.cpp ****         /* Menu resource generation */
3776:mtk_resgenerator.cpp ****         GenerateMenuFile(CurrMaxMenuItemIndex);
 9364              	LM741:
 9365 876c 0FB70500 		movzwl	_CurrMaxMenuItemIndex, %eax
 9365      000000
 9366 8773 890424   		movl	%eax, (%esp)
 9367 8776 E8E5C4FF 		call	__Z16GenerateMenuFilet
 9367      FF
3777:mtk_resgenerator.cpp **** 
3778:mtk_resgenerator.cpp ****         /* Font resource generation */
3779:mtk_resgenerator.cpp ****         PopulateFontSearch();
 9369              	LM742:
 9370 877b E85A8FFF 		call	__Z18PopulateFontSearchv
 9370      FF
3780:mtk_resgenerator.cpp ****         GenerateFontResFile();
 9372              	LM743:
 9373 8780 E865A1FF 		call	__Z19GenerateFontResFilev
 9373      FF
3781:mtk_resgenerator.cpp ****         GenerateFontMapFile();
 9375              	LM744:
 9376 8785 E82CA9FF 		call	__Z19GenerateFontMapFilev
 9376      FF
3782:mtk_resgenerator.cpp ****         GenerateFontMapSearchFile();
 9378              	LM745:
 9379 878a E865AEFF 		call	__Z25GenerateFontMapSearchFilev
 9379      FF
3783:mtk_resgenerator.cpp **** 
3784:mtk_resgenerator.cpp ****         /* ENFB resource generation */
3785:mtk_resgenerator.cpp ****         GenerateENFBAssociatedIDFile();
 9381              	LM746:
 9382 878f E8AE7CFF 		call	__Z28GenerateENFBAssociatedIDFilev
 9382      FF
3786:mtk_resgenerator.cpp **** 
3787:mtk_resgenerator.cpp **** #ifndef __POPULATE_NO_STRING_DATA__
3788:mtk_resgenerator.cpp ****         /* String resource generation */
3789:mtk_resgenerator.cpp ****         if (MergeStrRes() == 0)
3790:mtk_resgenerator.cpp ****         {
3791:mtk_resgenerator.cpp ****             RESGEN_LOG_V("GenerateStrResFile(): REF_LIST.txt created successfully");
3792:mtk_resgenerator.cpp ****             if (GenerateStrResFile() ==0){
3793:mtk_resgenerator.cpp ****                 RESGEN_LOG_V("GenerateStrResFile(): Output: CustStrMap.c CustStrRes.c");
3794:mtk_resgenerator.cpp ****             }else{
3795:mtk_resgenerator.cpp ****                 RESGEN_LOG_E("GenerateStrResFile(): Failed to generate: CustStrMap.c CustStrRes.c")
3796:mtk_resgenerator.cpp ****             }
3797:mtk_resgenerator.cpp **** 			
3798:mtk_resgenerator.cpp ****         }else{
3799:mtk_resgenerator.cpp ****             RESGEN_LOG_E("GenerateStrResFile(): REF_LIST.txt creation failure");
3800:mtk_resgenerator.cpp ****         }
3801:mtk_resgenerator.cpp **** #endif //__POPULATE_NO_STRING_DATA__
3802:mtk_resgenerator.cpp **** 
3803:mtk_resgenerator.cpp **** #ifndef __POPULATE_NO_IMAGE_DATA__
3804:mtk_resgenerator.cpp ****         /* Image resource files sepatation */
3805:mtk_resgenerator.cpp ****         if(!split_img_data_file())
3806:mtk_resgenerator.cpp ****         {
GAS LISTING d:/github/AIOT_WORKSHOP/AIoT_MT2503AVE_SDK/11CW1418SP4_03_CORETEK03AE_11C_V1_GPRS_MMI/plutommi/Customer/ResGenerator/gcctmp/ccmAfaaa.s 			page 220


3807:mtk_resgenerator.cpp ****             RESGEN_LOG_E("mtk_resgenerator.exe split custimgdatahw.h failed.");
3808:mtk_resgenerator.cpp ****             fprintf(stderr, "mtk_resgenerator.exe split custimgdatahw.h failed.\n");
3809:mtk_resgenerator.cpp ****         }
3810:mtk_resgenerator.cpp **** 
3811:mtk_resgenerator.cpp ****         CATResourceGeneration();
3812:mtk_resgenerator.cpp **** #endif //__POPULATE_NO_IMAGE_DATA__
3813:mtk_resgenerator.cpp ****         PostRegenOperations()
 9384              	LM747:
 9385 8794 E88FF1FF 		call	__Z19PostRegenOperationsv
 9385      FF
3814:mtk_resgenerator.cpp ****         TRACETIME;
3815:mtk_resgenerator.cpp **** 
3816:mtk_resgenerator.cpp ****         g_error = 1;
 9387              	LM748:
 9388 8799 C7051000 		movl	$1, _g_error
 9388      00000100 
 9388      0000
3817:mtk_resgenerator.cpp ****         return 1;
 9390              	LM749:
 9391 87a3 C7853CF8 		movl	$1, -1988(%ebp)
 9391      FFFF0100 
 9391      0000
 9392 87ad EB26     		jmp	L282
 9393              	L324:
3818:mtk_resgenerator.cpp ****     }
3819:mtk_resgenerator.cpp **** 
3820:mtk_resgenerator.cpp ****     RESGEN_LOG_E("Usage: mtk_resgenerator.exe -g");
 9395              	LM750:
 9396 87af C7442408 		movl	$LC310, 8(%esp)
 9396      A07E0000 
 9397 87b7 C7442404 		movl	$LC1, 4(%esp)
 9397      3E000000 
 9398 87bf C7042403 		movl	$3, (%esp)
 9398      000000
 9399 87c6 E8000000 		call	_reslog_adaptor_log
 9399      00
3821:mtk_resgenerator.cpp ****     return 0;
 9401              	LM751:
 9402 87cb C7853CF8 		movl	$0, -1988(%ebp)
 9402      FFFF0000 
 9402      0000
3822:mtk_resgenerator.cpp **** }
 9404              	LM752:
 9405              	L282:
 9406              	LBE71:
 9407 87d5 8B853CF8 		movl	-1988(%ebp), %eax
 9407      FFFF
 9408 87db 8B7DFC   		movl	-4(%ebp), %edi
 9409 87de C9       		leave
 9410 87df C3       		ret
 9435              	Lscope36:
 9443              		.align 2
 9448              	__Z41__static_initialization_and_destruction_0ii:
 9450              	LM753:
 9451 87e0 55       		pushl	%ebp
 9452 87e1 89E5     		movl	%esp, %ebp
 9453 87e3 83EC08   		subl	$8, %esp
GAS LISTING d:/github/AIOT_WORKSHOP/AIoT_MT2503AVE_SDK/11CW1418SP4_03_CORETEK03AE_11C_V1_GPRS_MMI/plutommi/Customer/ResGenerator/gcctmp/ccmAfaaa.s 			page 221


 9455              	Ltext1:
   1:d:/github/AIOT_WORKSHOP/AIoT_MT2503AVE_SDK/11CW1418SP4_03_CORETEK03AE_11C_V1_GPRS_MMI/Tools/MinGW/include/c++/3.3.1/iostream **** // Standard iostream objects -*- C++ -*-
   2:d:/github/AIOT_WORKSHOP/AIoT_MT2503AVE_SDK/11CW1418SP4_03_CORETEK03AE_11C_V1_GPRS_MMI/Tools/MinGW/include/c++/3.3.1/iostream **** 
   3:d:/github/AIOT_WORKSHOP/AIoT_MT2503AVE_SDK/11CW1418SP4_03_CORETEK03AE_11C_V1_GPRS_MMI/Tools/MinGW/include/c++/3.3.1/iostream **** // Copyright (C) 1997, 1998, 1999, 2001, 2002 Free Software Foundation, Inc.
   4:d:/github/AIOT_WORKSHOP/AIoT_MT2503AVE_SDK/11CW1418SP4_03_CORETEK03AE_11C_V1_GPRS_MMI/Tools/MinGW/include/c++/3.3.1/iostream **** //
   5:d:/github/AIOT_WORKSHOP/AIoT_MT2503AVE_SDK/11CW1418SP4_03_CORETEK03AE_11C_V1_GPRS_MMI/Tools/MinGW/include/c++/3.3.1/iostream **** // This file is part of the GNU ISO C++ Library.  This library is free
   6:d:/github/AIOT_WORKSHOP/AIoT_MT2503AVE_SDK/11CW1418SP4_03_CORETEK03AE_11C_V1_GPRS_MMI/Tools/MinGW/include/c++/3.3.1/iostream **** // software; you can redistribute it and/or modify it under the
   7:d:/github/AIOT_WORKSHOP/AIoT_MT2503AVE_SDK/11CW1418SP4_03_CORETEK03AE_11C_V1_GPRS_MMI/Tools/MinGW/include/c++/3.3.1/iostream **** // terms of the GNU General Public License as published by the
   8:d:/github/AIOT_WORKSHOP/AIoT_MT2503AVE_SDK/11CW1418SP4_03_CORETEK03AE_11C_V1_GPRS_MMI/Tools/MinGW/include/c++/3.3.1/iostream **** // Free Software Foundation; either version 2, or (at your option)
   9:d:/github/AIOT_WORKSHOP/AIoT_MT2503AVE_SDK/11CW1418SP4_03_CORETEK03AE_11C_V1_GPRS_MMI/Tools/MinGW/include/c++/3.3.1/iostream **** // any later version.
  10:d:/github/AIOT_WORKSHOP/AIoT_MT2503AVE_SDK/11CW1418SP4_03_CORETEK03AE_11C_V1_GPRS_MMI/Tools/MinGW/include/c++/3.3.1/iostream **** 
  11:d:/github/AIOT_WORKSHOP/AIoT_MT2503AVE_SDK/11CW1418SP4_03_CORETEK03AE_11C_V1_GPRS_MMI/Tools/MinGW/include/c++/3.3.1/iostream **** // This library is distributed in the hope that it will be useful,
  12:d:/github/AIOT_WORKSHOP/AIoT_MT2503AVE_SDK/11CW1418SP4_03_CORETEK03AE_11C_V1_GPRS_MMI/Tools/MinGW/include/c++/3.3.1/iostream **** // but WITHOUT ANY WARRANTY; without even the implied warranty of
  13:d:/github/AIOT_WORKSHOP/AIoT_MT2503AVE_SDK/11CW1418SP4_03_CORETEK03AE_11C_V1_GPRS_MMI/Tools/MinGW/include/c++/3.3.1/iostream **** // MERCHANTABILITY or FITNESS FOR A PARTICULAR PURPOSE.  See the
  14:d:/github/AIOT_WORKSHOP/AIoT_MT2503AVE_SDK/11CW1418SP4_03_CORETEK03AE_11C_V1_GPRS_MMI/Tools/MinGW/include/c++/3.3.1/iostream **** // GNU General Public License for more details.
  15:d:/github/AIOT_WORKSHOP/AIoT_MT2503AVE_SDK/11CW1418SP4_03_CORETEK03AE_11C_V1_GPRS_MMI/Tools/MinGW/include/c++/3.3.1/iostream **** 
  16:d:/github/AIOT_WORKSHOP/AIoT_MT2503AVE_SDK/11CW1418SP4_03_CORETEK03AE_11C_V1_GPRS_MMI/Tools/MinGW/include/c++/3.3.1/iostream **** // You should have received a copy of the GNU General Public License along
  17:d:/github/AIOT_WORKSHOP/AIoT_MT2503AVE_SDK/11CW1418SP4_03_CORETEK03AE_11C_V1_GPRS_MMI/Tools/MinGW/include/c++/3.3.1/iostream **** // with this library; see the file COPYING.  If not, write to the Free
  18:d:/github/AIOT_WORKSHOP/AIoT_MT2503AVE_SDK/11CW1418SP4_03_CORETEK03AE_11C_V1_GPRS_MMI/Tools/MinGW/include/c++/3.3.1/iostream **** // Software Foundation, 59 Temple Place - Suite 330, Boston, MA 02111-1307,
  19:d:/github/AIOT_WORKSHOP/AIoT_MT2503AVE_SDK/11CW1418SP4_03_CORETEK03AE_11C_V1_GPRS_MMI/Tools/MinGW/include/c++/3.3.1/iostream **** // USA.
  20:d:/github/AIOT_WORKSHOP/AIoT_MT2503AVE_SDK/11CW1418SP4_03_CORETEK03AE_11C_V1_GPRS_MMI/Tools/MinGW/include/c++/3.3.1/iostream **** 
  21:d:/github/AIOT_WORKSHOP/AIoT_MT2503AVE_SDK/11CW1418SP4_03_CORETEK03AE_11C_V1_GPRS_MMI/Tools/MinGW/include/c++/3.3.1/iostream **** // As a special exception, you may use this file as part of a free software
  22:d:/github/AIOT_WORKSHOP/AIoT_MT2503AVE_SDK/11CW1418SP4_03_CORETEK03AE_11C_V1_GPRS_MMI/Tools/MinGW/include/c++/3.3.1/iostream **** // library without restriction.  Specifically, if other files instantiate
  23:d:/github/AIOT_WORKSHOP/AIoT_MT2503AVE_SDK/11CW1418SP4_03_CORETEK03AE_11C_V1_GPRS_MMI/Tools/MinGW/include/c++/3.3.1/iostream **** // templates or use macros or inline functions from this file, or you compile
  24:d:/github/AIOT_WORKSHOP/AIoT_MT2503AVE_SDK/11CW1418SP4_03_CORETEK03AE_11C_V1_GPRS_MMI/Tools/MinGW/include/c++/3.3.1/iostream **** // this file and link it with other files to produce an executable, this
  25:d:/github/AIOT_WORKSHOP/AIoT_MT2503AVE_SDK/11CW1418SP4_03_CORETEK03AE_11C_V1_GPRS_MMI/Tools/MinGW/include/c++/3.3.1/iostream **** // file does not by itself cause the resulting executable to be covered by
  26:d:/github/AIOT_WORKSHOP/AIoT_MT2503AVE_SDK/11CW1418SP4_03_CORETEK03AE_11C_V1_GPRS_MMI/Tools/MinGW/include/c++/3.3.1/iostream **** // the GNU General Public License.  This exception does not however
  27:d:/github/AIOT_WORKSHOP/AIoT_MT2503AVE_SDK/11CW1418SP4_03_CORETEK03AE_11C_V1_GPRS_MMI/Tools/MinGW/include/c++/3.3.1/iostream **** // invalidate any other reasons why the executable file might be covered by
  28:d:/github/AIOT_WORKSHOP/AIoT_MT2503AVE_SDK/11CW1418SP4_03_CORETEK03AE_11C_V1_GPRS_MMI/Tools/MinGW/include/c++/3.3.1/iostream **** // the GNU General Public License.
  29:d:/github/AIOT_WORKSHOP/AIoT_MT2503AVE_SDK/11CW1418SP4_03_CORETEK03AE_11C_V1_GPRS_MMI/Tools/MinGW/include/c++/3.3.1/iostream **** 
  30:d:/github/AIOT_WORKSHOP/AIoT_MT2503AVE_SDK/11CW1418SP4_03_CORETEK03AE_11C_V1_GPRS_MMI/Tools/MinGW/include/c++/3.3.1/iostream **** //
  31:d:/github/AIOT_WORKSHOP/AIoT_MT2503AVE_SDK/11CW1418SP4_03_CORETEK03AE_11C_V1_GPRS_MMI/Tools/MinGW/include/c++/3.3.1/iostream **** // ISO C++ 14882: 27.3  Standard iostream objects
  32:d:/github/AIOT_WORKSHOP/AIoT_MT2503AVE_SDK/11CW1418SP4_03_CORETEK03AE_11C_V1_GPRS_MMI/Tools/MinGW/include/c++/3.3.1/iostream **** //
  33:d:/github/AIOT_WORKSHOP/AIoT_MT2503AVE_SDK/11CW1418SP4_03_CORETEK03AE_11C_V1_GPRS_MMI/Tools/MinGW/include/c++/3.3.1/iostream **** 
  34:d:/github/AIOT_WORKSHOP/AIoT_MT2503AVE_SDK/11CW1418SP4_03_CORETEK03AE_11C_V1_GPRS_MMI/Tools/MinGW/include/c++/3.3.1/iostream **** /** @file iostream
  35:d:/github/AIOT_WORKSHOP/AIoT_MT2503AVE_SDK/11CW1418SP4_03_CORETEK03AE_11C_V1_GPRS_MMI/Tools/MinGW/include/c++/3.3.1/iostream ****  *  This is a Standard C++ Library header.  You should @c #include this header
  36:d:/github/AIOT_WORKSHOP/AIoT_MT2503AVE_SDK/11CW1418SP4_03_CORETEK03AE_11C_V1_GPRS_MMI/Tools/MinGW/include/c++/3.3.1/iostream ****  *  in your programs, rather than any of the "st[dl]_*.h" implementation files.
  37:d:/github/AIOT_WORKSHOP/AIoT_MT2503AVE_SDK/11CW1418SP4_03_CORETEK03AE_11C_V1_GPRS_MMI/Tools/MinGW/include/c++/3.3.1/iostream ****  */
  38:d:/github/AIOT_WORKSHOP/AIoT_MT2503AVE_SDK/11CW1418SP4_03_CORETEK03AE_11C_V1_GPRS_MMI/Tools/MinGW/include/c++/3.3.1/iostream **** 
  39:d:/github/AIOT_WORKSHOP/AIoT_MT2503AVE_SDK/11CW1418SP4_03_CORETEK03AE_11C_V1_GPRS_MMI/Tools/MinGW/include/c++/3.3.1/iostream **** #ifndef _CPP_IOSTREAM
  40:d:/github/AIOT_WORKSHOP/AIoT_MT2503AVE_SDK/11CW1418SP4_03_CORETEK03AE_11C_V1_GPRS_MMI/Tools/MinGW/include/c++/3.3.1/iostream **** #define _CPP_IOSTREAM	1
  41:d:/github/AIOT_WORKSHOP/AIoT_MT2503AVE_SDK/11CW1418SP4_03_CORETEK03AE_11C_V1_GPRS_MMI/Tools/MinGW/include/c++/3.3.1/iostream **** 
  42:d:/github/AIOT_WORKSHOP/AIoT_MT2503AVE_SDK/11CW1418SP4_03_CORETEK03AE_11C_V1_GPRS_MMI/Tools/MinGW/include/c++/3.3.1/iostream **** #pragma GCC system_header
  43:d:/github/AIOT_WORKSHOP/AIoT_MT2503AVE_SDK/11CW1418SP4_03_CORETEK03AE_11C_V1_GPRS_MMI/Tools/MinGW/include/c++/3.3.1/iostream **** 
  44:d:/github/AIOT_WORKSHOP/AIoT_MT2503AVE_SDK/11CW1418SP4_03_CORETEK03AE_11C_V1_GPRS_MMI/Tools/MinGW/include/c++/3.3.1/iostream **** #include <bits/c++config.h>
  45:d:/github/AIOT_WORKSHOP/AIoT_MT2503AVE_SDK/11CW1418SP4_03_CORETEK03AE_11C_V1_GPRS_MMI/Tools/MinGW/include/c++/3.3.1/iostream **** #include <ostream>
  46:d:/github/AIOT_WORKSHOP/AIoT_MT2503AVE_SDK/11CW1418SP4_03_CORETEK03AE_11C_V1_GPRS_MMI/Tools/MinGW/include/c++/3.3.1/iostream **** #include <istream>
  47:d:/github/AIOT_WORKSHOP/AIoT_MT2503AVE_SDK/11CW1418SP4_03_CORETEK03AE_11C_V1_GPRS_MMI/Tools/MinGW/include/c++/3.3.1/iostream **** 
  48:d:/github/AIOT_WORKSHOP/AIoT_MT2503AVE_SDK/11CW1418SP4_03_CORETEK03AE_11C_V1_GPRS_MMI/Tools/MinGW/include/c++/3.3.1/iostream **** namespace std 
  49:d:/github/AIOT_WORKSHOP/AIoT_MT2503AVE_SDK/11CW1418SP4_03_CORETEK03AE_11C_V1_GPRS_MMI/Tools/MinGW/include/c++/3.3.1/iostream **** {
  50:d:/github/AIOT_WORKSHOP/AIoT_MT2503AVE_SDK/11CW1418SP4_03_CORETEK03AE_11C_V1_GPRS_MMI/Tools/MinGW/include/c++/3.3.1/iostream ****   /**
  51:d:/github/AIOT_WORKSHOP/AIoT_MT2503AVE_SDK/11CW1418SP4_03_CORETEK03AE_11C_V1_GPRS_MMI/Tools/MinGW/include/c++/3.3.1/iostream ****    *  @name Standard Stream Objects
  52:d:/github/AIOT_WORKSHOP/AIoT_MT2503AVE_SDK/11CW1418SP4_03_CORETEK03AE_11C_V1_GPRS_MMI/Tools/MinGW/include/c++/3.3.1/iostream ****    *
  53:d:/github/AIOT_WORKSHOP/AIoT_MT2503AVE_SDK/11CW1418SP4_03_CORETEK03AE_11C_V1_GPRS_MMI/Tools/MinGW/include/c++/3.3.1/iostream ****    *  The &lt;iostream&gt; header declares the eight <em>standard stream
  54:d:/github/AIOT_WORKSHOP/AIoT_MT2503AVE_SDK/11CW1418SP4_03_CORETEK03AE_11C_V1_GPRS_MMI/Tools/MinGW/include/c++/3.3.1/iostream ****    *  objects</em>.  For other declarations, see
  55:d:/github/AIOT_WORKSHOP/AIoT_MT2503AVE_SDK/11CW1418SP4_03_CORETEK03AE_11C_V1_GPRS_MMI/Tools/MinGW/include/c++/3.3.1/iostream ****    *  http://gcc.gnu.org/onlinedocs/libstdc++/27_io/howto.html#10 and the
  56:d:/github/AIOT_WORKSHOP/AIoT_MT2503AVE_SDK/11CW1418SP4_03_CORETEK03AE_11C_V1_GPRS_MMI/Tools/MinGW/include/c++/3.3.1/iostream ****    *  @link s27_2_iosfwd I/O forward declarations @endlink
GAS LISTING d:/github/AIOT_WORKSHOP/AIoT_MT2503AVE_SDK/11CW1418SP4_03_CORETEK03AE_11C_V1_GPRS_MMI/plutommi/Customer/ResGenerator/gcctmp/ccmAfaaa.s 			page 222


  57:d:/github/AIOT_WORKSHOP/AIoT_MT2503AVE_SDK/11CW1418SP4_03_CORETEK03AE_11C_V1_GPRS_MMI/Tools/MinGW/include/c++/3.3.1/iostream ****    *
  58:d:/github/AIOT_WORKSHOP/AIoT_MT2503AVE_SDK/11CW1418SP4_03_CORETEK03AE_11C_V1_GPRS_MMI/Tools/MinGW/include/c++/3.3.1/iostream ****    *  They are required by default to cooperate with the global C library's
  59:d:/github/AIOT_WORKSHOP/AIoT_MT2503AVE_SDK/11CW1418SP4_03_CORETEK03AE_11C_V1_GPRS_MMI/Tools/MinGW/include/c++/3.3.1/iostream ****    *  @c FILE streams, and to be available during program startup and
  60:d:/github/AIOT_WORKSHOP/AIoT_MT2503AVE_SDK/11CW1418SP4_03_CORETEK03AE_11C_V1_GPRS_MMI/Tools/MinGW/include/c++/3.3.1/iostream ****    *  termination.  For more information, see the HOWTO linked to above.
  61:d:/github/AIOT_WORKSHOP/AIoT_MT2503AVE_SDK/11CW1418SP4_03_CORETEK03AE_11C_V1_GPRS_MMI/Tools/MinGW/include/c++/3.3.1/iostream ****   */
  62:d:/github/AIOT_WORKSHOP/AIoT_MT2503AVE_SDK/11CW1418SP4_03_CORETEK03AE_11C_V1_GPRS_MMI/Tools/MinGW/include/c++/3.3.1/iostream ****   //@{
  63:d:/github/AIOT_WORKSHOP/AIoT_MT2503AVE_SDK/11CW1418SP4_03_CORETEK03AE_11C_V1_GPRS_MMI/Tools/MinGW/include/c++/3.3.1/iostream ****   extern istream cin;		///< Linked to standard input
  64:d:/github/AIOT_WORKSHOP/AIoT_MT2503AVE_SDK/11CW1418SP4_03_CORETEK03AE_11C_V1_GPRS_MMI/Tools/MinGW/include/c++/3.3.1/iostream ****   extern ostream cout;		///< Linked to standard output
  65:d:/github/AIOT_WORKSHOP/AIoT_MT2503AVE_SDK/11CW1418SP4_03_CORETEK03AE_11C_V1_GPRS_MMI/Tools/MinGW/include/c++/3.3.1/iostream ****   extern ostream cerr;		///< Linked to standard error (unbuffered)
  66:d:/github/AIOT_WORKSHOP/AIoT_MT2503AVE_SDK/11CW1418SP4_03_CORETEK03AE_11C_V1_GPRS_MMI/Tools/MinGW/include/c++/3.3.1/iostream ****   extern ostream clog;		///< Linked to standard error (buffered)
  67:d:/github/AIOT_WORKSHOP/AIoT_MT2503AVE_SDK/11CW1418SP4_03_CORETEK03AE_11C_V1_GPRS_MMI/Tools/MinGW/include/c++/3.3.1/iostream **** 
  68:d:/github/AIOT_WORKSHOP/AIoT_MT2503AVE_SDK/11CW1418SP4_03_CORETEK03AE_11C_V1_GPRS_MMI/Tools/MinGW/include/c++/3.3.1/iostream **** #ifdef _GLIBCPP_USE_WCHAR_T
  69:d:/github/AIOT_WORKSHOP/AIoT_MT2503AVE_SDK/11CW1418SP4_03_CORETEK03AE_11C_V1_GPRS_MMI/Tools/MinGW/include/c++/3.3.1/iostream ****   extern wistream wcin;		///< Linked to standard input
  70:d:/github/AIOT_WORKSHOP/AIoT_MT2503AVE_SDK/11CW1418SP4_03_CORETEK03AE_11C_V1_GPRS_MMI/Tools/MinGW/include/c++/3.3.1/iostream ****   extern wostream wcout;	///< Linked to standard output
  71:d:/github/AIOT_WORKSHOP/AIoT_MT2503AVE_SDK/11CW1418SP4_03_CORETEK03AE_11C_V1_GPRS_MMI/Tools/MinGW/include/c++/3.3.1/iostream ****   extern wostream wcerr;	///< Linked to standard error (unbuffered)
  72:d:/github/AIOT_WORKSHOP/AIoT_MT2503AVE_SDK/11CW1418SP4_03_CORETEK03AE_11C_V1_GPRS_MMI/Tools/MinGW/include/c++/3.3.1/iostream ****   extern wostream wclog;	///< Linked to standard error (buffered)
  73:d:/github/AIOT_WORKSHOP/AIoT_MT2503AVE_SDK/11CW1418SP4_03_CORETEK03AE_11C_V1_GPRS_MMI/Tools/MinGW/include/c++/3.3.1/iostream **** #endif
  74:d:/github/AIOT_WORKSHOP/AIoT_MT2503AVE_SDK/11CW1418SP4_03_CORETEK03AE_11C_V1_GPRS_MMI/Tools/MinGW/include/c++/3.3.1/iostream ****   //@}
  75:d:/github/AIOT_WORKSHOP/AIoT_MT2503AVE_SDK/11CW1418SP4_03_CORETEK03AE_11C_V1_GPRS_MMI/Tools/MinGW/include/c++/3.3.1/iostream **** 
  76:d:/github/AIOT_WORKSHOP/AIoT_MT2503AVE_SDK/11CW1418SP4_03_CORETEK03AE_11C_V1_GPRS_MMI/Tools/MinGW/include/c++/3.3.1/iostream ****   // For construction of filebuffers for cout, cin, cerr, clog et. al.
  77:d:/github/AIOT_WORKSHOP/AIoT_MT2503AVE_SDK/11CW1418SP4_03_CORETEK03AE_11C_V1_GPRS_MMI/Tools/MinGW/include/c++/3.3.1/iostream ****   static ios_base::Init __ioinit;
 9457              	LM754:
 9458 87e6 817D0CFF 		cmpl	$65535, 12(%ebp)
 9458      FF0000
 9459 87ed 7512     		jne	L332
 9460 87ef 837D0801 		cmpl	$1, 8(%ebp)
 9461 87f3 750C     		jne	L332
 9462 87f5 C7042408 		movl	$__ZSt8__ioinit, (%esp)
 9462      000000
 9463 87fc E8000000 		call	__ZNSt8ios_base4InitC1Ev
 9463      00
 9464              	L332:
 9465 8801 817D0CFF 		cmpl	$65535, 12(%ebp)
 9465      FF0000
 9466 8808 7512     		jne	L331
 9467 880a 837D0800 		cmpl	$0, 8(%ebp)
 9468 880e 750C     		jne	L331
 9469 8810 C7042408 		movl	$__ZSt8__ioinit, (%esp)
 9469      000000
 9470 8817 E8000000 		call	__ZNSt8ios_base4InitD1Ev
 9470      00
 9471              	L331:
 9472 881c C9       		leave
 9473 881d C3       		ret
 9474              	Lscope37:
 9476              		.section	.text$_ZSt6strchrPci,"x"
 9477              		.linkonce discard
 9478              		.align 2
 9482              	.globl __ZSt6strchrPci
 9484              	__ZSt6strchrPci:
 9486              	Ltext2:
   1:d:/github/AIOT_WORKSHOP/AIoT_MT2503AVE_SDK/11CW1418SP4_03_CORETEK03AE_11C_V1_GPRS_MMI/Tools/MinGW/include/c++/3.3.1/cstring **** // -*- C++ -*- forwarding header.
   2:d:/github/AIOT_WORKSHOP/AIoT_MT2503AVE_SDK/11CW1418SP4_03_CORETEK03AE_11C_V1_GPRS_MMI/Tools/MinGW/include/c++/3.3.1/cstring **** 
   3:d:/github/AIOT_WORKSHOP/AIoT_MT2503AVE_SDK/11CW1418SP4_03_CORETEK03AE_11C_V1_GPRS_MMI/Tools/MinGW/include/c++/3.3.1/cstring **** // Copyright (C) 1997, 1998, 1999, 2000, 2001, 2002
   4:d:/github/AIOT_WORKSHOP/AIoT_MT2503AVE_SDK/11CW1418SP4_03_CORETEK03AE_11C_V1_GPRS_MMI/Tools/MinGW/include/c++/3.3.1/cstring **** // Free Software Foundation, Inc.
   5:d:/github/AIOT_WORKSHOP/AIoT_MT2503AVE_SDK/11CW1418SP4_03_CORETEK03AE_11C_V1_GPRS_MMI/Tools/MinGW/include/c++/3.3.1/cstring **** //
   6:d:/github/AIOT_WORKSHOP/AIoT_MT2503AVE_SDK/11CW1418SP4_03_CORETEK03AE_11C_V1_GPRS_MMI/Tools/MinGW/include/c++/3.3.1/cstring **** // This file is part of the GNU ISO C++ Library.  This library is free
GAS LISTING d:/github/AIOT_WORKSHOP/AIoT_MT2503AVE_SDK/11CW1418SP4_03_CORETEK03AE_11C_V1_GPRS_MMI/plutommi/Customer/ResGenerator/gcctmp/ccmAfaaa.s 			page 223


   7:d:/github/AIOT_WORKSHOP/AIoT_MT2503AVE_SDK/11CW1418SP4_03_CORETEK03AE_11C_V1_GPRS_MMI/Tools/MinGW/include/c++/3.3.1/cstring **** // software; you can redistribute it and/or modify it under the
   8:d:/github/AIOT_WORKSHOP/AIoT_MT2503AVE_SDK/11CW1418SP4_03_CORETEK03AE_11C_V1_GPRS_MMI/Tools/MinGW/include/c++/3.3.1/cstring **** // terms of the GNU General Public License as published by the
   9:d:/github/AIOT_WORKSHOP/AIoT_MT2503AVE_SDK/11CW1418SP4_03_CORETEK03AE_11C_V1_GPRS_MMI/Tools/MinGW/include/c++/3.3.1/cstring **** // Free Software Foundation; either version 2, or (at your option)
  10:d:/github/AIOT_WORKSHOP/AIoT_MT2503AVE_SDK/11CW1418SP4_03_CORETEK03AE_11C_V1_GPRS_MMI/Tools/MinGW/include/c++/3.3.1/cstring **** // any later version.
  11:d:/github/AIOT_WORKSHOP/AIoT_MT2503AVE_SDK/11CW1418SP4_03_CORETEK03AE_11C_V1_GPRS_MMI/Tools/MinGW/include/c++/3.3.1/cstring **** 
  12:d:/github/AIOT_WORKSHOP/AIoT_MT2503AVE_SDK/11CW1418SP4_03_CORETEK03AE_11C_V1_GPRS_MMI/Tools/MinGW/include/c++/3.3.1/cstring **** // This library is distributed in the hope that it will be useful,
  13:d:/github/AIOT_WORKSHOP/AIoT_MT2503AVE_SDK/11CW1418SP4_03_CORETEK03AE_11C_V1_GPRS_MMI/Tools/MinGW/include/c++/3.3.1/cstring **** // but WITHOUT ANY WARRANTY; without even the implied warranty of
  14:d:/github/AIOT_WORKSHOP/AIoT_MT2503AVE_SDK/11CW1418SP4_03_CORETEK03AE_11C_V1_GPRS_MMI/Tools/MinGW/include/c++/3.3.1/cstring **** // MERCHANTABILITY or FITNESS FOR A PARTICULAR PURPOSE.  See the
  15:d:/github/AIOT_WORKSHOP/AIoT_MT2503AVE_SDK/11CW1418SP4_03_CORETEK03AE_11C_V1_GPRS_MMI/Tools/MinGW/include/c++/3.3.1/cstring **** // GNU General Public License for more details.
  16:d:/github/AIOT_WORKSHOP/AIoT_MT2503AVE_SDK/11CW1418SP4_03_CORETEK03AE_11C_V1_GPRS_MMI/Tools/MinGW/include/c++/3.3.1/cstring **** 
  17:d:/github/AIOT_WORKSHOP/AIoT_MT2503AVE_SDK/11CW1418SP4_03_CORETEK03AE_11C_V1_GPRS_MMI/Tools/MinGW/include/c++/3.3.1/cstring **** // You should have received a copy of the GNU General Public License along
  18:d:/github/AIOT_WORKSHOP/AIoT_MT2503AVE_SDK/11CW1418SP4_03_CORETEK03AE_11C_V1_GPRS_MMI/Tools/MinGW/include/c++/3.3.1/cstring **** // with this library; see the file COPYING.  If not, write to the Free
  19:d:/github/AIOT_WORKSHOP/AIoT_MT2503AVE_SDK/11CW1418SP4_03_CORETEK03AE_11C_V1_GPRS_MMI/Tools/MinGW/include/c++/3.3.1/cstring **** // Software Foundation, 59 Temple Place - Suite 330, Boston, MA 02111-1307,
  20:d:/github/AIOT_WORKSHOP/AIoT_MT2503AVE_SDK/11CW1418SP4_03_CORETEK03AE_11C_V1_GPRS_MMI/Tools/MinGW/include/c++/3.3.1/cstring **** // USA.
  21:d:/github/AIOT_WORKSHOP/AIoT_MT2503AVE_SDK/11CW1418SP4_03_CORETEK03AE_11C_V1_GPRS_MMI/Tools/MinGW/include/c++/3.3.1/cstring **** 
  22:d:/github/AIOT_WORKSHOP/AIoT_MT2503AVE_SDK/11CW1418SP4_03_CORETEK03AE_11C_V1_GPRS_MMI/Tools/MinGW/include/c++/3.3.1/cstring **** // As a special exception, you may use this file as part of a free software
  23:d:/github/AIOT_WORKSHOP/AIoT_MT2503AVE_SDK/11CW1418SP4_03_CORETEK03AE_11C_V1_GPRS_MMI/Tools/MinGW/include/c++/3.3.1/cstring **** // library without restriction.  Specifically, if other files instantiate
  24:d:/github/AIOT_WORKSHOP/AIoT_MT2503AVE_SDK/11CW1418SP4_03_CORETEK03AE_11C_V1_GPRS_MMI/Tools/MinGW/include/c++/3.3.1/cstring **** // templates or use macros or inline functions from this file, or you compile
  25:d:/github/AIOT_WORKSHOP/AIoT_MT2503AVE_SDK/11CW1418SP4_03_CORETEK03AE_11C_V1_GPRS_MMI/Tools/MinGW/include/c++/3.3.1/cstring **** // this file and link it with other files to produce an executable, this
  26:d:/github/AIOT_WORKSHOP/AIoT_MT2503AVE_SDK/11CW1418SP4_03_CORETEK03AE_11C_V1_GPRS_MMI/Tools/MinGW/include/c++/3.3.1/cstring **** // file does not by itself cause the resulting executable to be covered by
  27:d:/github/AIOT_WORKSHOP/AIoT_MT2503AVE_SDK/11CW1418SP4_03_CORETEK03AE_11C_V1_GPRS_MMI/Tools/MinGW/include/c++/3.3.1/cstring **** // the GNU General Public License.  This exception does not however
  28:d:/github/AIOT_WORKSHOP/AIoT_MT2503AVE_SDK/11CW1418SP4_03_CORETEK03AE_11C_V1_GPRS_MMI/Tools/MinGW/include/c++/3.3.1/cstring **** // invalidate any other reasons why the executable file might be covered by
  29:d:/github/AIOT_WORKSHOP/AIoT_MT2503AVE_SDK/11CW1418SP4_03_CORETEK03AE_11C_V1_GPRS_MMI/Tools/MinGW/include/c++/3.3.1/cstring **** // the GNU General Public License.
  30:d:/github/AIOT_WORKSHOP/AIoT_MT2503AVE_SDK/11CW1418SP4_03_CORETEK03AE_11C_V1_GPRS_MMI/Tools/MinGW/include/c++/3.3.1/cstring **** 
  31:d:/github/AIOT_WORKSHOP/AIoT_MT2503AVE_SDK/11CW1418SP4_03_CORETEK03AE_11C_V1_GPRS_MMI/Tools/MinGW/include/c++/3.3.1/cstring **** //
  32:d:/github/AIOT_WORKSHOP/AIoT_MT2503AVE_SDK/11CW1418SP4_03_CORETEK03AE_11C_V1_GPRS_MMI/Tools/MinGW/include/c++/3.3.1/cstring **** // ISO C++ 14882: 20.4.6  C library
  33:d:/github/AIOT_WORKSHOP/AIoT_MT2503AVE_SDK/11CW1418SP4_03_CORETEK03AE_11C_V1_GPRS_MMI/Tools/MinGW/include/c++/3.3.1/cstring **** //
  34:d:/github/AIOT_WORKSHOP/AIoT_MT2503AVE_SDK/11CW1418SP4_03_CORETEK03AE_11C_V1_GPRS_MMI/Tools/MinGW/include/c++/3.3.1/cstring **** 
  35:d:/github/AIOT_WORKSHOP/AIoT_MT2503AVE_SDK/11CW1418SP4_03_CORETEK03AE_11C_V1_GPRS_MMI/Tools/MinGW/include/c++/3.3.1/cstring **** /** @file cstring
  36:d:/github/AIOT_WORKSHOP/AIoT_MT2503AVE_SDK/11CW1418SP4_03_CORETEK03AE_11C_V1_GPRS_MMI/Tools/MinGW/include/c++/3.3.1/cstring ****  *  This is a Standard C++ Library file.  You should @c #include this file
  37:d:/github/AIOT_WORKSHOP/AIoT_MT2503AVE_SDK/11CW1418SP4_03_CORETEK03AE_11C_V1_GPRS_MMI/Tools/MinGW/include/c++/3.3.1/cstring ****  *  in your programs, rather than any of the "*.h" implementation files.
  38:d:/github/AIOT_WORKSHOP/AIoT_MT2503AVE_SDK/11CW1418SP4_03_CORETEK03AE_11C_V1_GPRS_MMI/Tools/MinGW/include/c++/3.3.1/cstring ****  *
  39:d:/github/AIOT_WORKSHOP/AIoT_MT2503AVE_SDK/11CW1418SP4_03_CORETEK03AE_11C_V1_GPRS_MMI/Tools/MinGW/include/c++/3.3.1/cstring ****  *  This is the C++ version of the Standard C Library header @c string.h,
  40:d:/github/AIOT_WORKSHOP/AIoT_MT2503AVE_SDK/11CW1418SP4_03_CORETEK03AE_11C_V1_GPRS_MMI/Tools/MinGW/include/c++/3.3.1/cstring ****  *  and its contents are (mostly) the same as that header, but are all
  41:d:/github/AIOT_WORKSHOP/AIoT_MT2503AVE_SDK/11CW1418SP4_03_CORETEK03AE_11C_V1_GPRS_MMI/Tools/MinGW/include/c++/3.3.1/cstring ****  *  contained in the namespace @c std.
  42:d:/github/AIOT_WORKSHOP/AIoT_MT2503AVE_SDK/11CW1418SP4_03_CORETEK03AE_11C_V1_GPRS_MMI/Tools/MinGW/include/c++/3.3.1/cstring ****  */
  43:d:/github/AIOT_WORKSHOP/AIoT_MT2503AVE_SDK/11CW1418SP4_03_CORETEK03AE_11C_V1_GPRS_MMI/Tools/MinGW/include/c++/3.3.1/cstring **** 
  44:d:/github/AIOT_WORKSHOP/AIoT_MT2503AVE_SDK/11CW1418SP4_03_CORETEK03AE_11C_V1_GPRS_MMI/Tools/MinGW/include/c++/3.3.1/cstring **** #ifndef _CPP_CSTRING
  45:d:/github/AIOT_WORKSHOP/AIoT_MT2503AVE_SDK/11CW1418SP4_03_CORETEK03AE_11C_V1_GPRS_MMI/Tools/MinGW/include/c++/3.3.1/cstring **** #define _CPP_CSTRING 1
  46:d:/github/AIOT_WORKSHOP/AIoT_MT2503AVE_SDK/11CW1418SP4_03_CORETEK03AE_11C_V1_GPRS_MMI/Tools/MinGW/include/c++/3.3.1/cstring **** 
  47:d:/github/AIOT_WORKSHOP/AIoT_MT2503AVE_SDK/11CW1418SP4_03_CORETEK03AE_11C_V1_GPRS_MMI/Tools/MinGW/include/c++/3.3.1/cstring **** #pragma GCC system_header
  48:d:/github/AIOT_WORKSHOP/AIoT_MT2503AVE_SDK/11CW1418SP4_03_CORETEK03AE_11C_V1_GPRS_MMI/Tools/MinGW/include/c++/3.3.1/cstring **** 
  49:d:/github/AIOT_WORKSHOP/AIoT_MT2503AVE_SDK/11CW1418SP4_03_CORETEK03AE_11C_V1_GPRS_MMI/Tools/MinGW/include/c++/3.3.1/cstring **** #include <cstddef>
  50:d:/github/AIOT_WORKSHOP/AIoT_MT2503AVE_SDK/11CW1418SP4_03_CORETEK03AE_11C_V1_GPRS_MMI/Tools/MinGW/include/c++/3.3.1/cstring **** 
  51:d:/github/AIOT_WORKSHOP/AIoT_MT2503AVE_SDK/11CW1418SP4_03_CORETEK03AE_11C_V1_GPRS_MMI/Tools/MinGW/include/c++/3.3.1/cstring **** #include <string.h>
  52:d:/github/AIOT_WORKSHOP/AIoT_MT2503AVE_SDK/11CW1418SP4_03_CORETEK03AE_11C_V1_GPRS_MMI/Tools/MinGW/include/c++/3.3.1/cstring **** 
  53:d:/github/AIOT_WORKSHOP/AIoT_MT2503AVE_SDK/11CW1418SP4_03_CORETEK03AE_11C_V1_GPRS_MMI/Tools/MinGW/include/c++/3.3.1/cstring **** // Get rid of those macros defined in <string.h> in lieu of real functions.
  54:d:/github/AIOT_WORKSHOP/AIoT_MT2503AVE_SDK/11CW1418SP4_03_CORETEK03AE_11C_V1_GPRS_MMI/Tools/MinGW/include/c++/3.3.1/cstring **** #undef memcpy
  55:d:/github/AIOT_WORKSHOP/AIoT_MT2503AVE_SDK/11CW1418SP4_03_CORETEK03AE_11C_V1_GPRS_MMI/Tools/MinGW/include/c++/3.3.1/cstring **** #undef memmove
  56:d:/github/AIOT_WORKSHOP/AIoT_MT2503AVE_SDK/11CW1418SP4_03_CORETEK03AE_11C_V1_GPRS_MMI/Tools/MinGW/include/c++/3.3.1/cstring **** #undef strcpy
  57:d:/github/AIOT_WORKSHOP/AIoT_MT2503AVE_SDK/11CW1418SP4_03_CORETEK03AE_11C_V1_GPRS_MMI/Tools/MinGW/include/c++/3.3.1/cstring **** #undef strncpy
  58:d:/github/AIOT_WORKSHOP/AIoT_MT2503AVE_SDK/11CW1418SP4_03_CORETEK03AE_11C_V1_GPRS_MMI/Tools/MinGW/include/c++/3.3.1/cstring **** #undef strcat
  59:d:/github/AIOT_WORKSHOP/AIoT_MT2503AVE_SDK/11CW1418SP4_03_CORETEK03AE_11C_V1_GPRS_MMI/Tools/MinGW/include/c++/3.3.1/cstring **** #undef strncat
  60:d:/github/AIOT_WORKSHOP/AIoT_MT2503AVE_SDK/11CW1418SP4_03_CORETEK03AE_11C_V1_GPRS_MMI/Tools/MinGW/include/c++/3.3.1/cstring **** #undef memcmp
  61:d:/github/AIOT_WORKSHOP/AIoT_MT2503AVE_SDK/11CW1418SP4_03_CORETEK03AE_11C_V1_GPRS_MMI/Tools/MinGW/include/c++/3.3.1/cstring **** #undef strcmp
  62:d:/github/AIOT_WORKSHOP/AIoT_MT2503AVE_SDK/11CW1418SP4_03_CORETEK03AE_11C_V1_GPRS_MMI/Tools/MinGW/include/c++/3.3.1/cstring **** #undef strcoll
  63:d:/github/AIOT_WORKSHOP/AIoT_MT2503AVE_SDK/11CW1418SP4_03_CORETEK03AE_11C_V1_GPRS_MMI/Tools/MinGW/include/c++/3.3.1/cstring **** #undef strncmp
GAS LISTING d:/github/AIOT_WORKSHOP/AIoT_MT2503AVE_SDK/11CW1418SP4_03_CORETEK03AE_11C_V1_GPRS_MMI/plutommi/Customer/ResGenerator/gcctmp/ccmAfaaa.s 			page 224


  64:d:/github/AIOT_WORKSHOP/AIoT_MT2503AVE_SDK/11CW1418SP4_03_CORETEK03AE_11C_V1_GPRS_MMI/Tools/MinGW/include/c++/3.3.1/cstring **** #undef strxfrm
  65:d:/github/AIOT_WORKSHOP/AIoT_MT2503AVE_SDK/11CW1418SP4_03_CORETEK03AE_11C_V1_GPRS_MMI/Tools/MinGW/include/c++/3.3.1/cstring **** #undef memchr
  66:d:/github/AIOT_WORKSHOP/AIoT_MT2503AVE_SDK/11CW1418SP4_03_CORETEK03AE_11C_V1_GPRS_MMI/Tools/MinGW/include/c++/3.3.1/cstring **** #undef strchr
  67:d:/github/AIOT_WORKSHOP/AIoT_MT2503AVE_SDK/11CW1418SP4_03_CORETEK03AE_11C_V1_GPRS_MMI/Tools/MinGW/include/c++/3.3.1/cstring **** #undef strcspn
  68:d:/github/AIOT_WORKSHOP/AIoT_MT2503AVE_SDK/11CW1418SP4_03_CORETEK03AE_11C_V1_GPRS_MMI/Tools/MinGW/include/c++/3.3.1/cstring **** #undef strpbrk
  69:d:/github/AIOT_WORKSHOP/AIoT_MT2503AVE_SDK/11CW1418SP4_03_CORETEK03AE_11C_V1_GPRS_MMI/Tools/MinGW/include/c++/3.3.1/cstring **** #undef strrchr
  70:d:/github/AIOT_WORKSHOP/AIoT_MT2503AVE_SDK/11CW1418SP4_03_CORETEK03AE_11C_V1_GPRS_MMI/Tools/MinGW/include/c++/3.3.1/cstring **** #undef strspn
  71:d:/github/AIOT_WORKSHOP/AIoT_MT2503AVE_SDK/11CW1418SP4_03_CORETEK03AE_11C_V1_GPRS_MMI/Tools/MinGW/include/c++/3.3.1/cstring **** #undef strstr
  72:d:/github/AIOT_WORKSHOP/AIoT_MT2503AVE_SDK/11CW1418SP4_03_CORETEK03AE_11C_V1_GPRS_MMI/Tools/MinGW/include/c++/3.3.1/cstring **** #undef strtok
  73:d:/github/AIOT_WORKSHOP/AIoT_MT2503AVE_SDK/11CW1418SP4_03_CORETEK03AE_11C_V1_GPRS_MMI/Tools/MinGW/include/c++/3.3.1/cstring **** #undef memset
  74:d:/github/AIOT_WORKSHOP/AIoT_MT2503AVE_SDK/11CW1418SP4_03_CORETEK03AE_11C_V1_GPRS_MMI/Tools/MinGW/include/c++/3.3.1/cstring **** #undef strerror
  75:d:/github/AIOT_WORKSHOP/AIoT_MT2503AVE_SDK/11CW1418SP4_03_CORETEK03AE_11C_V1_GPRS_MMI/Tools/MinGW/include/c++/3.3.1/cstring **** #undef strlen
  76:d:/github/AIOT_WORKSHOP/AIoT_MT2503AVE_SDK/11CW1418SP4_03_CORETEK03AE_11C_V1_GPRS_MMI/Tools/MinGW/include/c++/3.3.1/cstring **** 
  77:d:/github/AIOT_WORKSHOP/AIoT_MT2503AVE_SDK/11CW1418SP4_03_CORETEK03AE_11C_V1_GPRS_MMI/Tools/MinGW/include/c++/3.3.1/cstring **** namespace std 
  78:d:/github/AIOT_WORKSHOP/AIoT_MT2503AVE_SDK/11CW1418SP4_03_CORETEK03AE_11C_V1_GPRS_MMI/Tools/MinGW/include/c++/3.3.1/cstring **** {
  79:d:/github/AIOT_WORKSHOP/AIoT_MT2503AVE_SDK/11CW1418SP4_03_CORETEK03AE_11C_V1_GPRS_MMI/Tools/MinGW/include/c++/3.3.1/cstring ****   using ::memcpy;
  80:d:/github/AIOT_WORKSHOP/AIoT_MT2503AVE_SDK/11CW1418SP4_03_CORETEK03AE_11C_V1_GPRS_MMI/Tools/MinGW/include/c++/3.3.1/cstring ****   using ::memmove;
  81:d:/github/AIOT_WORKSHOP/AIoT_MT2503AVE_SDK/11CW1418SP4_03_CORETEK03AE_11C_V1_GPRS_MMI/Tools/MinGW/include/c++/3.3.1/cstring ****   using ::strcpy;
  82:d:/github/AIOT_WORKSHOP/AIoT_MT2503AVE_SDK/11CW1418SP4_03_CORETEK03AE_11C_V1_GPRS_MMI/Tools/MinGW/include/c++/3.3.1/cstring ****   using ::strncpy;
  83:d:/github/AIOT_WORKSHOP/AIoT_MT2503AVE_SDK/11CW1418SP4_03_CORETEK03AE_11C_V1_GPRS_MMI/Tools/MinGW/include/c++/3.3.1/cstring ****   using ::strcat;
  84:d:/github/AIOT_WORKSHOP/AIoT_MT2503AVE_SDK/11CW1418SP4_03_CORETEK03AE_11C_V1_GPRS_MMI/Tools/MinGW/include/c++/3.3.1/cstring ****   using ::strncat;
  85:d:/github/AIOT_WORKSHOP/AIoT_MT2503AVE_SDK/11CW1418SP4_03_CORETEK03AE_11C_V1_GPRS_MMI/Tools/MinGW/include/c++/3.3.1/cstring ****   using ::memcmp;
  86:d:/github/AIOT_WORKSHOP/AIoT_MT2503AVE_SDK/11CW1418SP4_03_CORETEK03AE_11C_V1_GPRS_MMI/Tools/MinGW/include/c++/3.3.1/cstring ****   using ::strcmp;
  87:d:/github/AIOT_WORKSHOP/AIoT_MT2503AVE_SDK/11CW1418SP4_03_CORETEK03AE_11C_V1_GPRS_MMI/Tools/MinGW/include/c++/3.3.1/cstring ****   using ::strcoll;
  88:d:/github/AIOT_WORKSHOP/AIoT_MT2503AVE_SDK/11CW1418SP4_03_CORETEK03AE_11C_V1_GPRS_MMI/Tools/MinGW/include/c++/3.3.1/cstring ****   using ::strncmp;
  89:d:/github/AIOT_WORKSHOP/AIoT_MT2503AVE_SDK/11CW1418SP4_03_CORETEK03AE_11C_V1_GPRS_MMI/Tools/MinGW/include/c++/3.3.1/cstring ****   using ::strxfrm;
  90:d:/github/AIOT_WORKSHOP/AIoT_MT2503AVE_SDK/11CW1418SP4_03_CORETEK03AE_11C_V1_GPRS_MMI/Tools/MinGW/include/c++/3.3.1/cstring ****   using ::strcspn;
  91:d:/github/AIOT_WORKSHOP/AIoT_MT2503AVE_SDK/11CW1418SP4_03_CORETEK03AE_11C_V1_GPRS_MMI/Tools/MinGW/include/c++/3.3.1/cstring ****   using ::strspn;
  92:d:/github/AIOT_WORKSHOP/AIoT_MT2503AVE_SDK/11CW1418SP4_03_CORETEK03AE_11C_V1_GPRS_MMI/Tools/MinGW/include/c++/3.3.1/cstring ****   using ::strtok;
  93:d:/github/AIOT_WORKSHOP/AIoT_MT2503AVE_SDK/11CW1418SP4_03_CORETEK03AE_11C_V1_GPRS_MMI/Tools/MinGW/include/c++/3.3.1/cstring ****   using ::memset;
  94:d:/github/AIOT_WORKSHOP/AIoT_MT2503AVE_SDK/11CW1418SP4_03_CORETEK03AE_11C_V1_GPRS_MMI/Tools/MinGW/include/c++/3.3.1/cstring ****   using ::strerror;
  95:d:/github/AIOT_WORKSHOP/AIoT_MT2503AVE_SDK/11CW1418SP4_03_CORETEK03AE_11C_V1_GPRS_MMI/Tools/MinGW/include/c++/3.3.1/cstring ****   using ::strlen;
  96:d:/github/AIOT_WORKSHOP/AIoT_MT2503AVE_SDK/11CW1418SP4_03_CORETEK03AE_11C_V1_GPRS_MMI/Tools/MinGW/include/c++/3.3.1/cstring **** 
  97:d:/github/AIOT_WORKSHOP/AIoT_MT2503AVE_SDK/11CW1418SP4_03_CORETEK03AE_11C_V1_GPRS_MMI/Tools/MinGW/include/c++/3.3.1/cstring ****   using ::memchr;
  98:d:/github/AIOT_WORKSHOP/AIoT_MT2503AVE_SDK/11CW1418SP4_03_CORETEK03AE_11C_V1_GPRS_MMI/Tools/MinGW/include/c++/3.3.1/cstring **** 
  99:d:/github/AIOT_WORKSHOP/AIoT_MT2503AVE_SDK/11CW1418SP4_03_CORETEK03AE_11C_V1_GPRS_MMI/Tools/MinGW/include/c++/3.3.1/cstring ****   inline void*
 100:d:/github/AIOT_WORKSHOP/AIoT_MT2503AVE_SDK/11CW1418SP4_03_CORETEK03AE_11C_V1_GPRS_MMI/Tools/MinGW/include/c++/3.3.1/cstring ****   memchr(void* __p, int __c, size_t __n)
 101:d:/github/AIOT_WORKSHOP/AIoT_MT2503AVE_SDK/11CW1418SP4_03_CORETEK03AE_11C_V1_GPRS_MMI/Tools/MinGW/include/c++/3.3.1/cstring ****   { return memchr(const_cast<const void*>(__p), __c, __n); }
 102:d:/github/AIOT_WORKSHOP/AIoT_MT2503AVE_SDK/11CW1418SP4_03_CORETEK03AE_11C_V1_GPRS_MMI/Tools/MinGW/include/c++/3.3.1/cstring **** 
 103:d:/github/AIOT_WORKSHOP/AIoT_MT2503AVE_SDK/11CW1418SP4_03_CORETEK03AE_11C_V1_GPRS_MMI/Tools/MinGW/include/c++/3.3.1/cstring ****   using ::strchr;
 104:d:/github/AIOT_WORKSHOP/AIoT_MT2503AVE_SDK/11CW1418SP4_03_CORETEK03AE_11C_V1_GPRS_MMI/Tools/MinGW/include/c++/3.3.1/cstring **** 
 105:d:/github/AIOT_WORKSHOP/AIoT_MT2503AVE_SDK/11CW1418SP4_03_CORETEK03AE_11C_V1_GPRS_MMI/Tools/MinGW/include/c++/3.3.1/cstring ****   inline char*
 106:d:/github/AIOT_WORKSHOP/AIoT_MT2503AVE_SDK/11CW1418SP4_03_CORETEK03AE_11C_V1_GPRS_MMI/Tools/MinGW/include/c++/3.3.1/cstring ****   strchr(char* __s1, int __n)
 107:d:/github/AIOT_WORKSHOP/AIoT_MT2503AVE_SDK/11CW1418SP4_03_CORETEK03AE_11C_V1_GPRS_MMI/Tools/MinGW/include/c++/3.3.1/cstring ****   { return __builtin_strchr(const_cast<const char*>(__s1), __n); }
 9488              	LM755:
 9489 0000 55       		pushl	%ebp
 9490 0001 89E5     		movl	%esp, %ebp
 9491 0003 83EC08   		subl	$8, %esp
 9493              	LM756:
 9494              	LBB89:
 9495 0006 8B450C   		movl	12(%ebp), %eax
 9496 0009 89442404 		movl	%eax, 4(%esp)
 9497 000d 8B4508   		movl	8(%ebp), %eax
 9498 0010 890424   		movl	%eax, (%esp)
 9499 0013 E8000000 		call	_strchr
 9499      00
 9500 0018 C9       		leave
GAS LISTING d:/github/AIOT_WORKSHOP/AIoT_MT2503AVE_SDK/11CW1418SP4_03_CORETEK03AE_11C_V1_GPRS_MMI/plutommi/Customer/ResGenerator/gcctmp/ccmAfaaa.s 			page 225


 9501 0019 C3       		ret
 9502              	LBE89:
 9503              	Lscope38:
 9505 001a 9090     		.section	.text$_ZSt6strstrPcPKc,"x"
 9506              		.linkonce discard
 9507              		.align 2
 9511              	.globl __ZSt6strstrPcPKc
 9513              	__ZSt6strstrPcPKc:
 108:d:/github/AIOT_WORKSHOP/AIoT_MT2503AVE_SDK/11CW1418SP4_03_CORETEK03AE_11C_V1_GPRS_MMI/Tools/MinGW/include/c++/3.3.1/cstring **** 
 109:d:/github/AIOT_WORKSHOP/AIoT_MT2503AVE_SDK/11CW1418SP4_03_CORETEK03AE_11C_V1_GPRS_MMI/Tools/MinGW/include/c++/3.3.1/cstring ****   using ::strpbrk;
 110:d:/github/AIOT_WORKSHOP/AIoT_MT2503AVE_SDK/11CW1418SP4_03_CORETEK03AE_11C_V1_GPRS_MMI/Tools/MinGW/include/c++/3.3.1/cstring **** 
 111:d:/github/AIOT_WORKSHOP/AIoT_MT2503AVE_SDK/11CW1418SP4_03_CORETEK03AE_11C_V1_GPRS_MMI/Tools/MinGW/include/c++/3.3.1/cstring ****   inline char*
 112:d:/github/AIOT_WORKSHOP/AIoT_MT2503AVE_SDK/11CW1418SP4_03_CORETEK03AE_11C_V1_GPRS_MMI/Tools/MinGW/include/c++/3.3.1/cstring ****   strpbrk(char* __s1, const char* __s2)
 113:d:/github/AIOT_WORKSHOP/AIoT_MT2503AVE_SDK/11CW1418SP4_03_CORETEK03AE_11C_V1_GPRS_MMI/Tools/MinGW/include/c++/3.3.1/cstring ****   { return __builtin_strpbrk(const_cast<const char*>(__s1), __s2); }
 114:d:/github/AIOT_WORKSHOP/AIoT_MT2503AVE_SDK/11CW1418SP4_03_CORETEK03AE_11C_V1_GPRS_MMI/Tools/MinGW/include/c++/3.3.1/cstring **** 
 115:d:/github/AIOT_WORKSHOP/AIoT_MT2503AVE_SDK/11CW1418SP4_03_CORETEK03AE_11C_V1_GPRS_MMI/Tools/MinGW/include/c++/3.3.1/cstring ****   using ::strrchr;
 116:d:/github/AIOT_WORKSHOP/AIoT_MT2503AVE_SDK/11CW1418SP4_03_CORETEK03AE_11C_V1_GPRS_MMI/Tools/MinGW/include/c++/3.3.1/cstring **** 
 117:d:/github/AIOT_WORKSHOP/AIoT_MT2503AVE_SDK/11CW1418SP4_03_CORETEK03AE_11C_V1_GPRS_MMI/Tools/MinGW/include/c++/3.3.1/cstring ****   inline char*
 118:d:/github/AIOT_WORKSHOP/AIoT_MT2503AVE_SDK/11CW1418SP4_03_CORETEK03AE_11C_V1_GPRS_MMI/Tools/MinGW/include/c++/3.3.1/cstring ****   strrchr(char* __s1, int __n)
 119:d:/github/AIOT_WORKSHOP/AIoT_MT2503AVE_SDK/11CW1418SP4_03_CORETEK03AE_11C_V1_GPRS_MMI/Tools/MinGW/include/c++/3.3.1/cstring ****   { return __builtin_strrchr(const_cast<const char*>(__s1), __n); }
 120:d:/github/AIOT_WORKSHOP/AIoT_MT2503AVE_SDK/11CW1418SP4_03_CORETEK03AE_11C_V1_GPRS_MMI/Tools/MinGW/include/c++/3.3.1/cstring **** 
 121:d:/github/AIOT_WORKSHOP/AIoT_MT2503AVE_SDK/11CW1418SP4_03_CORETEK03AE_11C_V1_GPRS_MMI/Tools/MinGW/include/c++/3.3.1/cstring ****   using ::strstr;
 122:d:/github/AIOT_WORKSHOP/AIoT_MT2503AVE_SDK/11CW1418SP4_03_CORETEK03AE_11C_V1_GPRS_MMI/Tools/MinGW/include/c++/3.3.1/cstring **** 
 123:d:/github/AIOT_WORKSHOP/AIoT_MT2503AVE_SDK/11CW1418SP4_03_CORETEK03AE_11C_V1_GPRS_MMI/Tools/MinGW/include/c++/3.3.1/cstring ****   inline char*
 124:d:/github/AIOT_WORKSHOP/AIoT_MT2503AVE_SDK/11CW1418SP4_03_CORETEK03AE_11C_V1_GPRS_MMI/Tools/MinGW/include/c++/3.3.1/cstring ****   strstr(char* __s1, const char* __s2)
 125:d:/github/AIOT_WORKSHOP/AIoT_MT2503AVE_SDK/11CW1418SP4_03_CORETEK03AE_11C_V1_GPRS_MMI/Tools/MinGW/include/c++/3.3.1/cstring ****   { return __builtin_strstr(const_cast<const char*>(__s1), __s2); }
 9515              	LM757:
 9516 0000 55       		pushl	%ebp
 9517 0001 89E5     		movl	%esp, %ebp
 9518 0003 83EC08   		subl	$8, %esp
 9520              	LM758:
 9521              	LBB90:
 9522 0006 8B450C   		movl	12(%ebp), %eax
 9523 0009 89442404 		movl	%eax, 4(%esp)
 9524 000d 8B4508   		movl	8(%ebp), %eax
 9525 0010 890424   		movl	%eax, (%esp)
 9526 0013 E8000000 		call	_strstr
 9526      00
 9527 0018 C9       		leave
 9528 0019 C3       		ret
 9529              	LBE90:
 9530              	Lscope39:
 9532 001a 9090     		.section	.text$_ZN20OfflineResPopService21populateAudioResourceEPc,"x"
 9533              		.linkonce discard
 9534              		.align 2
 9538              	.globl __ZN20OfflineResPopService21populateAudioResourceEPc
 9540              	__ZN20OfflineResPopService21populateAudioResourceEPc:
 9542              	Ltext3:
 9544              	LM759:
 9545 0000 55       		pushl	%ebp
 9546 0001 89E5     		movl	%esp, %ebp
 9547 0003 57       		pushl	%edi
 9548 0004 56       		pushl	%esi
 9549 0005 53       		pushl	%ebx
 9550 0006 83EC6C   		subl	$108, %esp
 9551 0009 C745D400 		movl	$___gxx_personality_sj0, -44(%ebp)
 9551      000000
GAS LISTING d:/github/AIOT_WORKSHOP/AIoT_MT2503AVE_SDK/11CW1418SP4_03_CORETEK03AE_11C_V1_GPRS_MMI/plutommi/Customer/ResGenerator/gcctmp/ccmAfaaa.s 			page 226


 9552 0010 C745D806 		movl	$LLSDA2168, -40(%ebp)
 9552      000000
 9553 0017 8D45DC   		leal	-36(%ebp), %eax
 9554 001a 8D55F4   		leal	-12(%ebp), %edx
 9555 001d 8910     		movl	%edx, (%eax)
 9556 001f BA690000 		movl	$L349, %edx
 9556      00
 9557 0024 895004   		movl	%edx, 4(%eax)
 9558 0027 896008   		movl	%esp, 8(%eax)
 9559 002a 8D45BC   		leal	-68(%ebp), %eax
 9560 002d 890424   		movl	%eax, (%esp)
 9561 0030 E8000000 		call	__Unwind_SjLj_Register
 9561      00
 9563              	LM760:
 9564              	LBB91:
 9565 0035 C704241C 		movl	$28, (%esp)
 9565      000000
 9566 003c C745C0FF 		movl	$-1, -64(%ebp)
 9566      FFFFFF
 9567 0043 E8000000 		call	__Znwj
 9567      00
 9568 0048 8945B8   		movl	%eax, -72(%ebp)
 9569 004b C645B701 		movb	$1, -73(%ebp)
 9570 004f 8B45B8   		movl	-72(%ebp), %eax
 9571 0052 890424   		movl	%eax, (%esp)
 9572 0055 C745C001 		movl	$1, -64(%ebp)
 9572      000000
 9573 005c E8000000 		call	__ZN13ResParamModelC1Ev
 9573      00
 9574 0061 8B55B8   		movl	-72(%ebp), %edx
 9575 0064 8955F0   		movl	%edx, -16(%ebp)
 9576 0067 EB38     		jmp	L338
 9577              	L349:
 9578 0069 8D6D0C   		leal	12(%ebp), %ebp
 9579 006c 8B45C4   		movl	-60(%ebp), %eax
 9580 006f 8945AC   		movl	%eax, -84(%ebp)
 9581              	L337:
 9582 0072 8B55AC   		movl	-84(%ebp), %edx
 9583 0075 8955B0   		movl	%edx, -80(%ebp)
 9584 0078 807DB700 		cmpb	$0, -73(%ebp)
 9585 007c 740B     		je	L340
 9586 007e 8B45B8   		movl	-72(%ebp), %eax
 9587 0081 890424   		movl	%eax, (%esp)
 9588 0084 E8000000 		call	__ZdlPv
 9588      00
 9589              	L340:
 9590 0089 8B55B0   		movl	-80(%ebp), %edx
 9591 008c 8955AC   		movl	%edx, -84(%ebp)
 9592              	L341:
 9593 008f 8B45AC   		movl	-84(%ebp), %eax
 9594 0092 890424   		movl	%eax, (%esp)
 9595 0095 C745C0FF 		movl	$-1, -64(%ebp)
 9595      FFFFFF
 9596 009c E8000000 		call	__Unwind_SjLj_Resume
 9596      00
 9597              	L338:
 9599              	LM761:
GAS LISTING d:/github/AIOT_WORKSHOP/AIoT_MT2503AVE_SDK/11CW1418SP4_03_CORETEK03AE_11C_V1_GPRS_MMI/plutommi/Customer/ResGenerator/gcctmp/ccmAfaaa.s 			page 227


 9600 00a1 C7042408 		movl	$8, (%esp)
 9600      000000
 9601 00a8 C745C0FF 		movl	$-1, -64(%ebp)
 9601      FFFFFF
 9602 00af E8000000 		call	__Znwj
 9602      00
 9603 00b4 8945A8   		movl	%eax, -88(%ebp)
 9604 00b7 8B55A8   		movl	-88(%ebp), %edx
 9605 00ba 891424   		movl	%edx, (%esp)
 9606 00bd E8000000 		call	__ZN21AudioParamTextFileDAOC1Ev
 9606      00
 9607 00c2 8B45A8   		movl	-88(%ebp), %eax
 9608 00c5 8945EC   		movl	%eax, -20(%ebp)
 9609              	L343:
 9611              	LM762:
 9612 00c8 C7042408 		movl	$8, (%esp)
 9612      000000
 9613 00cf E8000000 		call	__Znwj
 9613      00
 9614 00d4 8945A4   		movl	%eax, -92(%ebp)
 9615 00d7 8B55A4   		movl	-92(%ebp), %edx
 9616 00da 891424   		movl	%edx, (%esp)
 9617 00dd E8000000 		call	__ZN25OfflineResPopAudioAdaptorC1Ev
 9617      00
 9618 00e2 8B45A4   		movl	-92(%ebp), %eax
 9619 00e5 8945E8   		movl	%eax, -24(%ebp)
 9620              	L345:
 9622              	LM763:
 9623 00e8 8B45E8   		movl	-24(%ebp), %eax
 9624 00eb 89442410 		movl	%eax, 16(%esp)
 9625 00ef 8B45EC   		movl	-20(%ebp), %eax
 9626 00f2 8944240C 		movl	%eax, 12(%esp)
 9627 00f6 8B450C   		movl	12(%ebp), %eax
 9628 00f9 89442408 		movl	%eax, 8(%esp)
 9629 00fd 8B45F0   		movl	-16(%ebp), %eax
 9630 0100 89442404 		movl	%eax, 4(%esp)
 9631 0104 8B4508   		movl	8(%ebp), %eax
 9632 0107 890424   		movl	%eax, (%esp)
 9633 010a E8000000 		call	__ZN20OfflineResPopService16populateResourceEP13ResParamModelPcP16ParamTextFileDAOP19OfflineR
 9633      00
 9635              	LM764:
 9636 010f 8B45F0   		movl	-16(%ebp), %eax
 9637 0112 8945A0   		movl	%eax, -96(%ebp)
 9638 0115 837DA000 		cmpl	$0, -96(%ebp)
 9639 0119 7416     		je	L348
 9640 011b 8B55A0   		movl	-96(%ebp), %edx
 9641 011e 891424   		movl	%edx, (%esp)
 9642 0121 E8000000 		call	__ZN13ResParamModelD1Ev
 9642      00
 9643 0126 8B45A0   		movl	-96(%ebp), %eax
 9644 0129 890424   		movl	%eax, (%esp)
 9645 012c E8000000 		call	__ZdlPv
 9645      00
 9646              	L348:
 9648              	LM765:
 9649 0131 8B45E8   		movl	-24(%ebp), %eax
 9650 0134 890424   		movl	%eax, (%esp)
GAS LISTING d:/github/AIOT_WORKSHOP/AIoT_MT2503AVE_SDK/11CW1418SP4_03_CORETEK03AE_11C_V1_GPRS_MMI/plutommi/Customer/ResGenerator/gcctmp/ccmAfaaa.s 			page 228


 9651 0137 E8000000 		call	__ZdlPv
 9651      00
 9653              	LM766:
 9654 013c 8B45EC   		movl	-20(%ebp), %eax
 9655 013f 890424   		movl	%eax, (%esp)
 9656 0142 E8000000 		call	__ZdlPv
 9656      00
 9658              	LM767:
 9659              	L336:
 9660 0147 8D45BC   		leal	-68(%ebp), %eax
 9661 014a 890424   		movl	%eax, (%esp)
 9662 014d E8000000 		call	__Unwind_SjLj_Unregister
 9662      00
 9663 0152 83C46C   		addl	$108, %esp
 9664 0155 5B       		popl	%ebx
 9665 0156 5E       		popl	%esi
 9666 0157 5F       		popl	%edi
 9667 0158 5D       		popl	%ebp
 9668 0159 C3       		ret
 9669              	LBE91:
 9670              		.section	.gcc_except_table,""
 9671              	LLSDA2168:
 9672 0006 FF       		.byte	0xff
 9673 0007 FF       		.byte	0xff
 9674 0008 01       		.byte	0x1
 9675 0009 02       		.uleb128 LLSDACSE2168-LLSDACSB2168
 9676              	LLSDACSB2168:
 9677 000a 00       		.uleb128 0x0
 9678 000b 00       		.uleb128 0x0
 9679              	LLSDACSE2168:
 9680              		.section	.text$_ZN20OfflineResPopService21populateAudioResourceEPc,"x"
 9681              		.linkonce discard
 9687              	Lscope40:
 9689 015a 9090     		.text
 9690              	LC311:
 9691 881e 5B494D41 		.ascii "[IMAGE] File mode: %s, %s\0"
 9691      47455D20 
 9691      46696C65 
 9691      206D6F64 
 9691      653A2025 
 9692              	LC312:
 9693 8838 5B466F6E 		.ascii "[Font] File mode: %s, %s\0"
 9693      745D2046 
 9693      696C6520 
 9693      6D6F6465 
 9693      3A202573 
 9694              	LC313:
 9695 8851 5B417564 		.ascii "[Audio] File mode: %s, %s\0"
 9695      696F5D20 
 9695      46696C65 
 9695      206D6F64 
 9695      653A2025 
 9696              		.section	.text$_ZN24BatchedResFileGenService16generateResourceEPc,"x"
 9697              		.linkonce discard
 9698              		.align 2
 9702              	.globl __ZN24BatchedResFileGenService16generateResourceEPc
 9704              	__ZN24BatchedResFileGenService16generateResourceEPc:
GAS LISTING d:/github/AIOT_WORKSHOP/AIoT_MT2503AVE_SDK/11CW1418SP4_03_CORETEK03AE_11C_V1_GPRS_MMI/plutommi/Customer/ResGenerator/gcctmp/ccmAfaaa.s 			page 229


 9706              	LM768:
 9707 0000 55       		pushl	%ebp
 9708 0001 89E5     		movl	%esp, %ebp
 9709 0003 57       		pushl	%edi
 9710 0004 56       		pushl	%esi
 9711 0005 53       		pushl	%ebx
 9712 0006 81EC8C00 		subl	$140, %esp
 9712      0000
 9713 000c C745BC00 		movl	$___gxx_personality_sj0, -68(%ebp)
 9713      000000
 9714 0013 C745C00C 		movl	$LLSDA2169, -64(%ebp)
 9714      000000
 9715 001a 8D45C4   		leal	-60(%ebp), %eax
 9716 001d 8D55F4   		leal	-12(%ebp), %edx
 9717 0020 8910     		movl	%edx, (%eax)
 9718 0022 BA730000 		movl	$L374, %edx
 9718      00
 9719 0027 895004   		movl	%edx, 4(%eax)
 9720 002a 896008   		movl	%esp, 8(%eax)
 9721 002d 8D45A4   		leal	-92(%ebp), %eax
 9722 0030 890424   		movl	%eax, (%esp)
 9723 0033 E8000000 		call	__Unwind_SjLj_Register
 9723      00
 9725              	LM769:
 9726              	LBB92:
 9727 0038 C745F000 		movl	$0, -16(%ebp)
 9727      000000
 9729              	LM770:
 9730 003f C704240C 		movl	$12, (%esp)
 9730      000000
 9731 0046 C745A8FF 		movl	$-1, -88(%ebp)
 9731      FFFFFF
 9732 004d E8000000 		call	__Znwj
 9732      00
 9733 0052 89459C   		movl	%eax, -100(%ebp)
 9734 0055 C6459B01 		movb	$1, -101(%ebp)
 9735 0059 8B459C   		movl	-100(%ebp), %eax
 9736 005c 890424   		movl	%eax, (%esp)
 9737 005f C745A801 		movl	$1, -88(%ebp)
 9737      000000
 9738 0066 E8000000 		call	__ZN20ResFileGenParamModelC1Ev
 9738      00
 9739 006b 8B559C   		movl	-100(%ebp), %edx
 9740 006e 8955EC   		movl	%edx, -20(%ebp)
 9741 0071 EB38     		jmp	L352
 9742              	L374:
 9743 0073 8D6D0C   		leal	12(%ebp), %ebp
 9744 0076 8B45AC   		movl	-84(%ebp), %eax
 9745 0079 894590   		movl	%eax, -112(%ebp)
 9746              	L351:
 9747 007c 8B5590   		movl	-112(%ebp), %edx
 9748 007f 895594   		movl	%edx, -108(%ebp)
 9749 0082 807D9B00 		cmpb	$0, -101(%ebp)
 9750 0086 740B     		je	L354
 9751 0088 8B459C   		movl	-100(%ebp), %eax
 9752 008b 890424   		movl	%eax, (%esp)
 9753 008e E8000000 		call	__ZdlPv
GAS LISTING d:/github/AIOT_WORKSHOP/AIoT_MT2503AVE_SDK/11CW1418SP4_03_CORETEK03AE_11C_V1_GPRS_MMI/plutommi/Customer/ResGenerator/gcctmp/ccmAfaaa.s 			page 230


 9753      00
 9754              	L354:
 9755 0093 8B5594   		movl	-108(%ebp), %edx
 9756 0096 895590   		movl	%edx, -112(%ebp)
 9757              	L355:
 9758 0099 8B4590   		movl	-112(%ebp), %eax
 9759 009c 890424   		movl	%eax, (%esp)
 9760 009f C745A8FF 		movl	$-1, -88(%ebp)
 9760      FFFFFF
 9761 00a6 E8000000 		call	__Unwind_SjLj_Resume
 9761      00
 9762              	L352:
 9764              	LM771:
 9765 00ab 8B450C   		movl	12(%ebp), %eax
 9766 00ae 89442404 		movl	%eax, 4(%esp)
 9767 00b2 8B45EC   		movl	-20(%ebp), %eax
 9768 00b5 890424   		movl	%eax, (%esp)
 9769 00b8 C745A8FF 		movl	$-1, -88(%ebp)
 9769      FFFFFF
 9770 00bf E8000000 		call	__ZN20ResFileGenParamModel21setRepositoryFileNameEPc
 9770      00
 9772              	LM772:
 9773 00c4 C7042404 		movl	$4, (%esp)
 9773      000000
 9774 00cb E8000000 		call	__Znwj
 9774      00
 9775 00d0 89458C   		movl	%eax, -116(%ebp)
 9776 00d3 8B558C   		movl	-116(%ebp), %edx
 9777 00d6 891424   		movl	%edx, (%esp)
 9778 00d9 E8000000 		call	__ZN26ResFileGenParamTextFileDAOC1Ev
 9778      00
 9779 00de 8B458C   		movl	-116(%ebp), %eax
 9780 00e1 8945E8   		movl	%eax, -24(%ebp)
 9781              	L357:
 9783              	LM773:
 9784 00e4 8B45EC   		movl	-20(%ebp), %eax
 9785 00e7 8B10     		movl	(%eax), %edx
 9786 00e9 83C210   		addl	$16, %edx
 9787 00ec 8B45E8   		movl	-24(%ebp), %eax
 9788 00ef 89442404 		movl	%eax, 4(%esp)
 9789 00f3 8B45EC   		movl	-20(%ebp), %eax
 9790 00f6 890424   		movl	%eax, (%esp)
 9791 00f9 8B02     		movl	(%edx), %eax
 9792 00fb FFD0     		call	*%eax
 9794              	LM774:
 9795 00fd 8B45EC   		movl	-20(%ebp), %eax
 9796 0100 8B10     		movl	(%eax), %edx
 9797 0102 83C204   		addl	$4, %edx
 9798 0105 8B45EC   		movl	-20(%ebp), %eax
 9799 0108 890424   		movl	%eax, (%esp)
 9800 010b 8B02     		movl	(%edx), %eax
 9801 010d FFD0     		call	*%eax
 9802 010f 8945E4   		movl	%eax, -28(%ebp)
 9804              	LM775:
 9805              	LBB93:
 9806 0112 C745E000 		movl	$0, -32(%ebp)
 9806      000000
GAS LISTING d:/github/AIOT_WORKSHOP/AIoT_MT2503AVE_SDK/11CW1418SP4_03_CORETEK03AE_11C_V1_GPRS_MMI/plutommi/Customer/ResGenerator/gcctmp/ccmAfaaa.s 			page 231


 9807              	L359:
 9808 0119 8B45E4   		movl	-28(%ebp), %eax
 9809 011c 890424   		movl	%eax, (%esp)
 9810 011f E8000000 		call	__ZNKSt6vectorIP15ResFileGenParamSaIS1_EE4sizeEv
 9810      00
 9811 0124 3945E0   		cmpl	%eax, -32(%ebp)
 9812 0127 7205     		jb	L362
 9813 0129 E9000200 		jmp	L360
 9813      00
 9814              	L362:
 9816              	LM776:
 9817              	LBB94:
 9818              	LBB95:
 9819 012e 8B45E0   		movl	-32(%ebp), %eax
 9820 0131 89442404 		movl	%eax, 4(%esp)
 9821 0135 8B45E4   		movl	-28(%ebp), %eax
 9822 0138 890424   		movl	%eax, (%esp)
 9823 013b E8000000 		call	__ZNSt6vectorIP15ResFileGenParamSaIS1_EEixEj
 9823      00
 9824 0140 8B00     		movl	(%eax), %eax
 9825 0142 8945DC   		movl	%eax, -36(%ebp)
 9827              	LM777:
 9828              	LBB96:
 9829 0145 837DDC00 		cmpl	$0, -36(%ebp)
 9830 0149 0F84D501 		je	L361
 9830      0000
 9832              	LM778:
 9833              	LBB97:
 9834 014f 8B45DC   		movl	-36(%ebp), %eax
 9835 0152 890424   		movl	%eax, (%esp)
 9836 0155 C745A8FF 		movl	$-1, -88(%ebp)
 9836      FFFFFF
 9837 015c E8000000 		call	__ZN15ResFileGenParam10getSrcPathEv
 9837      00
 9838 0161 890424   		movl	%eax, (%esp)
 9839 0164 E8000000 		call	__ZNKSs4sizeEv
 9839      00
 9840 0169 40       		incl	%eax
 9841 016a 890424   		movl	%eax, (%esp)
 9842 016d E8000000 		call	__Znaj
 9842      00
 9843 0172 8945D8   		movl	%eax, -40(%ebp)
 9845              	LM779:
 9846 0175 8B45DC   		movl	-36(%ebp), %eax
 9847 0178 890424   		movl	%eax, (%esp)
 9848 017b E8000000 		call	__ZN15ResFileGenParam10getSrcPathEv
 9848      00
 9849 0180 890424   		movl	%eax, (%esp)
 9850 0183 E8000000 		call	__ZNKSs5c_strEv
 9850      00
 9851 0188 89442404 		movl	%eax, 4(%esp)
 9852 018c 8B45D8   		movl	-40(%ebp), %eax
 9853 018f 890424   		movl	%eax, (%esp)
 9854 0192 E8000000 		call	_strcpy
 9854      00
 9856              	LM780:
 9857 0197 8B45DC   		movl	-36(%ebp), %eax
GAS LISTING d:/github/AIOT_WORKSHOP/AIoT_MT2503AVE_SDK/11CW1418SP4_03_CORETEK03AE_11C_V1_GPRS_MMI/plutommi/Customer/ResGenerator/gcctmp/ccmAfaaa.s 			page 232


 9858 019a 890424   		movl	%eax, (%esp)
 9859 019d E8000000 		call	__ZN15ResFileGenParam11getDestPathEv
 9859      00
 9860 01a2 890424   		movl	%eax, (%esp)
 9861 01a5 E8000000 		call	__ZNKSs4sizeEv
 9861      00
 9862 01aa 40       		incl	%eax
 9863 01ab 890424   		movl	%eax, (%esp)
 9864 01ae E8000000 		call	__Znaj
 9864      00
 9865 01b3 8945D4   		movl	%eax, -44(%ebp)
 9867              	LM781:
 9868 01b6 8B45DC   		movl	-36(%ebp), %eax
 9869 01b9 890424   		movl	%eax, (%esp)
 9870 01bc E8000000 		call	__ZN15ResFileGenParam11getDestPathEv
 9870      00
 9871 01c1 890424   		movl	%eax, (%esp)
 9872 01c4 E8000000 		call	__ZNKSs5c_strEv
 9872      00
 9873 01c9 89442404 		movl	%eax, 4(%esp)
 9874 01cd 8B45D4   		movl	-44(%ebp), %eax
 9875 01d0 890424   		movl	%eax, (%esp)
 9876 01d3 E8000000 		call	_strcpy
 9876      00
 9878              	LM782:
 9879 01d8 8B45DC   		movl	-36(%ebp), %eax
 9880 01db 890424   		movl	%eax, (%esp)
 9881 01de E8000000 		call	__ZN15ResFileGenParam7getTypeEv
 9881      00
 9882 01e3 8945D0   		movl	%eax, -48(%ebp)
 9884              	LM783:
 9885 01e6 8B45D0   		movl	-48(%ebp), %eax
 9886 01e9 3B050000 		cmpl	__ZN15ResFileGenParam10IMAGE_TYPEE, %eax
 9886      0000
 9887 01ef 7557     		jne	L364
 9889              	LM784:
 9890 01f1 8B45D4   		movl	-44(%ebp), %eax
 9891 01f4 89442408 		movl	%eax, 8(%esp)
 9892 01f8 8B45D8   		movl	-40(%ebp), %eax
 9893 01fb 89442404 		movl	%eax, 4(%esp)
 9894 01ff 8B4508   		movl	8(%ebp), %eax
 9895 0202 890424   		movl	%eax, (%esp)
 9896 0205 E8000000 		call	__ZN24BatchedResFileGenService16generateImageResEPcS0_
 9896      00
 9897 020a 85C0     		testl	%eax, %eax
 9898 020c 0F84FC00 		je	L366
 9898      0000
 9900              	LM785:
 9901 0212 8B45D4   		movl	-44(%ebp), %eax
 9902 0215 89442410 		movl	%eax, 16(%esp)
 9903 0219 8B45D8   		movl	-40(%ebp), %eax
 9904 021c 8944240C 		movl	%eax, 12(%esp)
 9905 0220 C7442408 		movl	$LC311, 8(%esp)
 9905      1E880000 
 9906 0228 C7442404 		movl	$LC1, 4(%esp)
 9906      3E000000 
 9907 0230 C7042403 		movl	$3, (%esp)
GAS LISTING d:/github/AIOT_WORKSHOP/AIoT_MT2503AVE_SDK/11CW1418SP4_03_CORETEK03AE_11C_V1_GPRS_MMI/plutommi/Customer/ResGenerator/gcctmp/ccmAfaaa.s 			page 233


 9907      000000
 9908 0237 E8000000 		call	_reslog_adaptor_log
 9908      00
 9910              	LM786:
 9911 023c C745F0FF 		movl	$-1, -16(%ebp)
 9911      FFFFFF
 9912 0243 E9C60000 		jmp	L366
 9912      00
 9913              	L364:
 9915              	LM787:
 9916 0248 8B45D0   		movl	-48(%ebp), %eax
 9917 024b 3B050000 		cmpl	__ZN15ResFileGenParam9FONT_TYPEE, %eax
 9917      0000
 9918 0251 755B     		jne	L367
 9920              	LM788:
 9921 0253 8B45D4   		movl	-44(%ebp), %eax
 9922 0256 89442408 		movl	%eax, 8(%esp)
 9923 025a 8B45D8   		movl	-40(%ebp), %eax
 9924 025d 89442404 		movl	%eax, 4(%esp)
 9925 0261 8B4508   		movl	8(%ebp), %eax
 9926 0264 890424   		movl	%eax, (%esp)
 9927 0267 C745A8FF 		movl	$-1, -88(%ebp)
 9927      FFFFFF
 9928 026e E8000000 		call	__ZN24BatchedResFileGenService15generateFontResEPcS0_
 9928      00
 9929 0273 85C0     		testl	%eax, %eax
 9930 0275 0F849300 		je	L366
 9930      0000
 9932              	LM789:
 9933 027b 8B45D4   		movl	-44(%ebp), %eax
 9934 027e 89442410 		movl	%eax, 16(%esp)
 9935 0282 8B45D8   		movl	-40(%ebp), %eax
 9936 0285 8944240C 		movl	%eax, 12(%esp)
 9937 0289 C7442408 		movl	$LC312, 8(%esp)
 9937      38880000 
 9938 0291 C7442404 		movl	$LC1, 4(%esp)
 9938      3E000000 
 9939 0299 C7042403 		movl	$3, (%esp)
 9939      000000
 9940 02a0 E8000000 		call	_reslog_adaptor_log
 9940      00
 9942              	LM790:
 9943 02a5 C745F0FF 		movl	$-1, -16(%ebp)
 9943      FFFFFF
 9944 02ac EB60     		jmp	L366
 9945              	L367:
 9947              	LM791:
 9948 02ae 8B45D0   		movl	-48(%ebp), %eax
 9949 02b1 3B050000 		cmpl	__ZN15ResFileGenParam10AUDIO_TYPEE, %eax
 9949      0000
 9950 02b7 7555     		jne	L366
 9952              	LM792:
 9953 02b9 8B45D4   		movl	-44(%ebp), %eax
 9954 02bc 89442408 		movl	%eax, 8(%esp)
 9955 02c0 8B45D8   		movl	-40(%ebp), %eax
 9956 02c3 89442404 		movl	%eax, 4(%esp)
 9957 02c7 8B4508   		movl	8(%ebp), %eax
GAS LISTING d:/github/AIOT_WORKSHOP/AIoT_MT2503AVE_SDK/11CW1418SP4_03_CORETEK03AE_11C_V1_GPRS_MMI/plutommi/Customer/ResGenerator/gcctmp/ccmAfaaa.s 			page 234


 9958 02ca 890424   		movl	%eax, (%esp)
 9959 02cd C745A8FF 		movl	$-1, -88(%ebp)
 9959      FFFFFF
 9960 02d4 E8000000 		call	__ZN24BatchedResFileGenService16generateAudioResEPcS0_
 9960      00
 9961 02d9 85C0     		testl	%eax, %eax
 9962 02db 7431     		je	L366
 9964              	LM793:
 9965 02dd 8B45D4   		movl	-44(%ebp), %eax
 9966 02e0 89442410 		movl	%eax, 16(%esp)
 9967 02e4 8B45D8   		movl	-40(%ebp), %eax
 9968 02e7 8944240C 		movl	%eax, 12(%esp)
 9969 02eb C7442408 		movl	$LC313, 8(%esp)
 9969      51880000 
 9970 02f3 C7442404 		movl	$LC1, 4(%esp)
 9970      3E000000 
 9971 02fb C7042403 		movl	$3, (%esp)
 9971      000000
 9972 0302 E8000000 		call	_reslog_adaptor_log
 9972      00
 9974              	LM794:
 9975 0307 C745F0FF 		movl	$-1, -16(%ebp)
 9975      FFFFFF
 9976              	L366:
 9978              	LM795:
 9979 030e 8B45D8   		movl	-40(%ebp), %eax
 9980 0311 890424   		movl	%eax, (%esp)
 9981 0314 E8000000 		call	__ZdlPv
 9981      00
 9983              	LM796:
 9984 0319 8B45D4   		movl	-44(%ebp), %eax
 9985 031c 890424   		movl	%eax, (%esp)
 9986 031f E8000000 		call	__ZdlPv
 9986      00
 9988              	LM797:
 9989              	L361:
 9990 0324 8D45E0   		leal	-32(%ebp), %eax
 9991              	LBE97:
 9992              	LBE96:
 9993              	LBE95:
 9994              	LBE94:
 9995 0327 FF00     		incl	(%eax)
 9996 0329 E9EBFDFF 		jmp	L359
 9996      FF
 9997              	L360:
 9999              	LM798:
 10000              	LBE93:
 10001 032e 8B45EC   		movl	-20(%ebp), %eax
 10002 0331 8B10     		movl	(%eax), %edx
 10003 0333 83C214   		addl	$20, %edx
 10004 0336 8B45EC   		movl	-20(%ebp), %eax
 10005 0339 890424   		movl	%eax, (%esp)
 10006 033c 8B02     		movl	(%edx), %eax
 10007 033e C745A8FF 		movl	$-1, -88(%ebp)
 10007      FFFFFF
 10008 0345 FFD0     		call	*%eax
 10010              	LM799:
GAS LISTING d:/github/AIOT_WORKSHOP/AIoT_MT2503AVE_SDK/11CW1418SP4_03_CORETEK03AE_11C_V1_GPRS_MMI/plutommi/Customer/ResGenerator/gcctmp/ccmAfaaa.s 			page 235


 10011 0347 8B55EC   		movl	-20(%ebp), %edx
 10012 034a 895588   		movl	%edx, -120(%ebp)
 10013 034d 837D8800 		cmpl	$0, -120(%ebp)
 10014 0351 7416     		je	L373
 10015 0353 8B4588   		movl	-120(%ebp), %eax
 10016 0356 890424   		movl	%eax, (%esp)
 10017 0359 E8000000 		call	__ZN20ResFileGenParamModelD1Ev
 10017      00
 10018 035e 8B5588   		movl	-120(%ebp), %edx
 10019 0361 891424   		movl	%edx, (%esp)
 10020 0364 E8000000 		call	__ZdlPv
 10020      00
 10021              	L373:
 10023              	LM800:
 10024 0369 8B45E8   		movl	-24(%ebp), %eax
 10025 036c 890424   		movl	%eax, (%esp)
 10026 036f E8000000 		call	__ZdlPv
 10026      00
 10028              	LM801:
 10029 0374 8B45F0   		movl	-16(%ebp), %eax
 10030 0377 8945A0   		movl	%eax, -96(%ebp)
 10032              	LM802:
 10033              	L350:
 10034 037a 8D45A4   		leal	-92(%ebp), %eax
 10035 037d 890424   		movl	%eax, (%esp)
 10036 0380 E8000000 		call	__Unwind_SjLj_Unregister
 10036      00
 10037              	LBE92:
 10038 0385 8B45A0   		movl	-96(%ebp), %eax
 10039 0388 81C48C00 		addl	$140, %esp
 10039      0000
 10040 038e 5B       		popl	%ebx
 10041 038f 5E       		popl	%esi
 10042 0390 5F       		popl	%edi
 10043 0391 5D       		popl	%ebp
 10044 0392 C3       		ret
 10045              		.section	.gcc_except_table,""
 10046              	LLSDA2169:
 10047 000c FF       		.byte	0xff
 10048 000d FF       		.byte	0xff
 10049 000e 01       		.byte	0x1
 10050 000f 02       		.uleb128 LLSDACSE2169-LLSDACSB2169
 10051              	LLSDACSB2169:
 10052 0010 00       		.uleb128 0x0
 10053 0011 00       		.uleb128 0x0
 10054              	LLSDACSE2169:
 10055 0012 0000     		.section	.text$_ZN24BatchedResFileGenService16generateResourceEPc,"x"
 10056              		.linkonce discard
 10074              	Lscope41:
 10076 0393 90       		.section	.text$_ZNKSt6vectorIP15ResFileGenParamSaIS1_EE4sizeEv,"x"
 10077              		.linkonce discard
 10078              		.align 2
 10081              	.globl __ZNKSt6vectorIP15ResFileGenParamSaIS1_EE4sizeEv
 10083              	__ZNKSt6vectorIP15ResFileGenParamSaIS1_EE4sizeEv:
 10085              	Ltext4:
   1:d:/github/AIOT_WORKSHOP/AIoT_MT2503AVE_SDK/11CW1418SP4_03_CORETEK03AE_11C_V1_GPRS_MMI/Tools/MinGW/include/c++/3.3.1/bits/stl_vector.h **** // Vector implementation -*- C++ -*-
   2:d:/github/AIOT_WORKSHOP/AIoT_MT2503AVE_SDK/11CW1418SP4_03_CORETEK03AE_11C_V1_GPRS_MMI/Tools/MinGW/include/c++/3.3.1/bits/stl_vector.h **** 
GAS LISTING d:/github/AIOT_WORKSHOP/AIoT_MT2503AVE_SDK/11CW1418SP4_03_CORETEK03AE_11C_V1_GPRS_MMI/plutommi/Customer/ResGenerator/gcctmp/ccmAfaaa.s 			page 236


   3:d:/github/AIOT_WORKSHOP/AIoT_MT2503AVE_SDK/11CW1418SP4_03_CORETEK03AE_11C_V1_GPRS_MMI/Tools/MinGW/include/c++/3.3.1/bits/stl_vector.h **** // Copyright (C) 2001, 2002 Free Software Foundation, Inc.
   4:d:/github/AIOT_WORKSHOP/AIoT_MT2503AVE_SDK/11CW1418SP4_03_CORETEK03AE_11C_V1_GPRS_MMI/Tools/MinGW/include/c++/3.3.1/bits/stl_vector.h **** //
   5:d:/github/AIOT_WORKSHOP/AIoT_MT2503AVE_SDK/11CW1418SP4_03_CORETEK03AE_11C_V1_GPRS_MMI/Tools/MinGW/include/c++/3.3.1/bits/stl_vector.h **** // This file is part of the GNU ISO C++ Library.  This library is free
   6:d:/github/AIOT_WORKSHOP/AIoT_MT2503AVE_SDK/11CW1418SP4_03_CORETEK03AE_11C_V1_GPRS_MMI/Tools/MinGW/include/c++/3.3.1/bits/stl_vector.h **** // software; you can redistribute it and/or modify it under the
   7:d:/github/AIOT_WORKSHOP/AIoT_MT2503AVE_SDK/11CW1418SP4_03_CORETEK03AE_11C_V1_GPRS_MMI/Tools/MinGW/include/c++/3.3.1/bits/stl_vector.h **** // terms of the GNU General Public License as published by the
   8:d:/github/AIOT_WORKSHOP/AIoT_MT2503AVE_SDK/11CW1418SP4_03_CORETEK03AE_11C_V1_GPRS_MMI/Tools/MinGW/include/c++/3.3.1/bits/stl_vector.h **** // Free Software Foundation; either version 2, or (at your option)
   9:d:/github/AIOT_WORKSHOP/AIoT_MT2503AVE_SDK/11CW1418SP4_03_CORETEK03AE_11C_V1_GPRS_MMI/Tools/MinGW/include/c++/3.3.1/bits/stl_vector.h **** // any later version.
  10:d:/github/AIOT_WORKSHOP/AIoT_MT2503AVE_SDK/11CW1418SP4_03_CORETEK03AE_11C_V1_GPRS_MMI/Tools/MinGW/include/c++/3.3.1/bits/stl_vector.h **** 
  11:d:/github/AIOT_WORKSHOP/AIoT_MT2503AVE_SDK/11CW1418SP4_03_CORETEK03AE_11C_V1_GPRS_MMI/Tools/MinGW/include/c++/3.3.1/bits/stl_vector.h **** // This library is distributed in the hope that it will be useful,
  12:d:/github/AIOT_WORKSHOP/AIoT_MT2503AVE_SDK/11CW1418SP4_03_CORETEK03AE_11C_V1_GPRS_MMI/Tools/MinGW/include/c++/3.3.1/bits/stl_vector.h **** // but WITHOUT ANY WARRANTY; without even the implied warranty of
  13:d:/github/AIOT_WORKSHOP/AIoT_MT2503AVE_SDK/11CW1418SP4_03_CORETEK03AE_11C_V1_GPRS_MMI/Tools/MinGW/include/c++/3.3.1/bits/stl_vector.h **** // MERCHANTABILITY or FITNESS FOR A PARTICULAR PURPOSE.  See the
  14:d:/github/AIOT_WORKSHOP/AIoT_MT2503AVE_SDK/11CW1418SP4_03_CORETEK03AE_11C_V1_GPRS_MMI/Tools/MinGW/include/c++/3.3.1/bits/stl_vector.h **** // GNU General Public License for more details.
  15:d:/github/AIOT_WORKSHOP/AIoT_MT2503AVE_SDK/11CW1418SP4_03_CORETEK03AE_11C_V1_GPRS_MMI/Tools/MinGW/include/c++/3.3.1/bits/stl_vector.h **** 
  16:d:/github/AIOT_WORKSHOP/AIoT_MT2503AVE_SDK/11CW1418SP4_03_CORETEK03AE_11C_V1_GPRS_MMI/Tools/MinGW/include/c++/3.3.1/bits/stl_vector.h **** // You should have received a copy of the GNU General Public License along
  17:d:/github/AIOT_WORKSHOP/AIoT_MT2503AVE_SDK/11CW1418SP4_03_CORETEK03AE_11C_V1_GPRS_MMI/Tools/MinGW/include/c++/3.3.1/bits/stl_vector.h **** // with this library; see the file COPYING.  If not, write to the Free
  18:d:/github/AIOT_WORKSHOP/AIoT_MT2503AVE_SDK/11CW1418SP4_03_CORETEK03AE_11C_V1_GPRS_MMI/Tools/MinGW/include/c++/3.3.1/bits/stl_vector.h **** // Software Foundation, 59 Temple Place - Suite 330, Boston, MA 02111-1307,
  19:d:/github/AIOT_WORKSHOP/AIoT_MT2503AVE_SDK/11CW1418SP4_03_CORETEK03AE_11C_V1_GPRS_MMI/Tools/MinGW/include/c++/3.3.1/bits/stl_vector.h **** // USA.
  20:d:/github/AIOT_WORKSHOP/AIoT_MT2503AVE_SDK/11CW1418SP4_03_CORETEK03AE_11C_V1_GPRS_MMI/Tools/MinGW/include/c++/3.3.1/bits/stl_vector.h **** 
  21:d:/github/AIOT_WORKSHOP/AIoT_MT2503AVE_SDK/11CW1418SP4_03_CORETEK03AE_11C_V1_GPRS_MMI/Tools/MinGW/include/c++/3.3.1/bits/stl_vector.h **** // As a special exception, you may use this file as part of a free software
  22:d:/github/AIOT_WORKSHOP/AIoT_MT2503AVE_SDK/11CW1418SP4_03_CORETEK03AE_11C_V1_GPRS_MMI/Tools/MinGW/include/c++/3.3.1/bits/stl_vector.h **** // library without restriction.  Specifically, if other files instantiate
  23:d:/github/AIOT_WORKSHOP/AIoT_MT2503AVE_SDK/11CW1418SP4_03_CORETEK03AE_11C_V1_GPRS_MMI/Tools/MinGW/include/c++/3.3.1/bits/stl_vector.h **** // templates or use macros or inline functions from this file, or you compile
  24:d:/github/AIOT_WORKSHOP/AIoT_MT2503AVE_SDK/11CW1418SP4_03_CORETEK03AE_11C_V1_GPRS_MMI/Tools/MinGW/include/c++/3.3.1/bits/stl_vector.h **** // this file and link it with other files to produce an executable, this
  25:d:/github/AIOT_WORKSHOP/AIoT_MT2503AVE_SDK/11CW1418SP4_03_CORETEK03AE_11C_V1_GPRS_MMI/Tools/MinGW/include/c++/3.3.1/bits/stl_vector.h **** // file does not by itself cause the resulting executable to be covered by
  26:d:/github/AIOT_WORKSHOP/AIoT_MT2503AVE_SDK/11CW1418SP4_03_CORETEK03AE_11C_V1_GPRS_MMI/Tools/MinGW/include/c++/3.3.1/bits/stl_vector.h **** // the GNU General Public License.  This exception does not however
  27:d:/github/AIOT_WORKSHOP/AIoT_MT2503AVE_SDK/11CW1418SP4_03_CORETEK03AE_11C_V1_GPRS_MMI/Tools/MinGW/include/c++/3.3.1/bits/stl_vector.h **** // invalidate any other reasons why the executable file might be covered by
  28:d:/github/AIOT_WORKSHOP/AIoT_MT2503AVE_SDK/11CW1418SP4_03_CORETEK03AE_11C_V1_GPRS_MMI/Tools/MinGW/include/c++/3.3.1/bits/stl_vector.h **** // the GNU General Public License.
  29:d:/github/AIOT_WORKSHOP/AIoT_MT2503AVE_SDK/11CW1418SP4_03_CORETEK03AE_11C_V1_GPRS_MMI/Tools/MinGW/include/c++/3.3.1/bits/stl_vector.h **** 
  30:d:/github/AIOT_WORKSHOP/AIoT_MT2503AVE_SDK/11CW1418SP4_03_CORETEK03AE_11C_V1_GPRS_MMI/Tools/MinGW/include/c++/3.3.1/bits/stl_vector.h **** /*
  31:d:/github/AIOT_WORKSHOP/AIoT_MT2503AVE_SDK/11CW1418SP4_03_CORETEK03AE_11C_V1_GPRS_MMI/Tools/MinGW/include/c++/3.3.1/bits/stl_vector.h ****  *
  32:d:/github/AIOT_WORKSHOP/AIoT_MT2503AVE_SDK/11CW1418SP4_03_CORETEK03AE_11C_V1_GPRS_MMI/Tools/MinGW/include/c++/3.3.1/bits/stl_vector.h ****  * Copyright (c) 1994
  33:d:/github/AIOT_WORKSHOP/AIoT_MT2503AVE_SDK/11CW1418SP4_03_CORETEK03AE_11C_V1_GPRS_MMI/Tools/MinGW/include/c++/3.3.1/bits/stl_vector.h ****  * Hewlett-Packard Company
  34:d:/github/AIOT_WORKSHOP/AIoT_MT2503AVE_SDK/11CW1418SP4_03_CORETEK03AE_11C_V1_GPRS_MMI/Tools/MinGW/include/c++/3.3.1/bits/stl_vector.h ****  *
  35:d:/github/AIOT_WORKSHOP/AIoT_MT2503AVE_SDK/11CW1418SP4_03_CORETEK03AE_11C_V1_GPRS_MMI/Tools/MinGW/include/c++/3.3.1/bits/stl_vector.h ****  * Permission to use, copy, modify, distribute and sell this software
  36:d:/github/AIOT_WORKSHOP/AIoT_MT2503AVE_SDK/11CW1418SP4_03_CORETEK03AE_11C_V1_GPRS_MMI/Tools/MinGW/include/c++/3.3.1/bits/stl_vector.h ****  * and its documentation for any purpose is hereby granted without fee,
  37:d:/github/AIOT_WORKSHOP/AIoT_MT2503AVE_SDK/11CW1418SP4_03_CORETEK03AE_11C_V1_GPRS_MMI/Tools/MinGW/include/c++/3.3.1/bits/stl_vector.h ****  * provided that the above copyright notice appear in all copies and
  38:d:/github/AIOT_WORKSHOP/AIoT_MT2503AVE_SDK/11CW1418SP4_03_CORETEK03AE_11C_V1_GPRS_MMI/Tools/MinGW/include/c++/3.3.1/bits/stl_vector.h ****  * that both that copyright notice and this permission notice appear
  39:d:/github/AIOT_WORKSHOP/AIoT_MT2503AVE_SDK/11CW1418SP4_03_CORETEK03AE_11C_V1_GPRS_MMI/Tools/MinGW/include/c++/3.3.1/bits/stl_vector.h ****  * in supporting documentation.  Hewlett-Packard Company makes no
  40:d:/github/AIOT_WORKSHOP/AIoT_MT2503AVE_SDK/11CW1418SP4_03_CORETEK03AE_11C_V1_GPRS_MMI/Tools/MinGW/include/c++/3.3.1/bits/stl_vector.h ****  * representations about the suitability of this software for any
  41:d:/github/AIOT_WORKSHOP/AIoT_MT2503AVE_SDK/11CW1418SP4_03_CORETEK03AE_11C_V1_GPRS_MMI/Tools/MinGW/include/c++/3.3.1/bits/stl_vector.h ****  * purpose.  It is provided "as is" without express or implied warranty.
  42:d:/github/AIOT_WORKSHOP/AIoT_MT2503AVE_SDK/11CW1418SP4_03_CORETEK03AE_11C_V1_GPRS_MMI/Tools/MinGW/include/c++/3.3.1/bits/stl_vector.h ****  *
  43:d:/github/AIOT_WORKSHOP/AIoT_MT2503AVE_SDK/11CW1418SP4_03_CORETEK03AE_11C_V1_GPRS_MMI/Tools/MinGW/include/c++/3.3.1/bits/stl_vector.h ****  *
  44:d:/github/AIOT_WORKSHOP/AIoT_MT2503AVE_SDK/11CW1418SP4_03_CORETEK03AE_11C_V1_GPRS_MMI/Tools/MinGW/include/c++/3.3.1/bits/stl_vector.h ****  * Copyright (c) 1996
  45:d:/github/AIOT_WORKSHOP/AIoT_MT2503AVE_SDK/11CW1418SP4_03_CORETEK03AE_11C_V1_GPRS_MMI/Tools/MinGW/include/c++/3.3.1/bits/stl_vector.h ****  * Silicon Graphics Computer Systems, Inc.
  46:d:/github/AIOT_WORKSHOP/AIoT_MT2503AVE_SDK/11CW1418SP4_03_CORETEK03AE_11C_V1_GPRS_MMI/Tools/MinGW/include/c++/3.3.1/bits/stl_vector.h ****  *
  47:d:/github/AIOT_WORKSHOP/AIoT_MT2503AVE_SDK/11CW1418SP4_03_CORETEK03AE_11C_V1_GPRS_MMI/Tools/MinGW/include/c++/3.3.1/bits/stl_vector.h ****  * Permission to use, copy, modify, distribute and sell this software
  48:d:/github/AIOT_WORKSHOP/AIoT_MT2503AVE_SDK/11CW1418SP4_03_CORETEK03AE_11C_V1_GPRS_MMI/Tools/MinGW/include/c++/3.3.1/bits/stl_vector.h ****  * and its documentation for any purpose is hereby granted without fee,
  49:d:/github/AIOT_WORKSHOP/AIoT_MT2503AVE_SDK/11CW1418SP4_03_CORETEK03AE_11C_V1_GPRS_MMI/Tools/MinGW/include/c++/3.3.1/bits/stl_vector.h ****  * provided that the above copyright notice appear in all copies and
  50:d:/github/AIOT_WORKSHOP/AIoT_MT2503AVE_SDK/11CW1418SP4_03_CORETEK03AE_11C_V1_GPRS_MMI/Tools/MinGW/include/c++/3.3.1/bits/stl_vector.h ****  * that both that copyright notice and this permission notice appear
  51:d:/github/AIOT_WORKSHOP/AIoT_MT2503AVE_SDK/11CW1418SP4_03_CORETEK03AE_11C_V1_GPRS_MMI/Tools/MinGW/include/c++/3.3.1/bits/stl_vector.h ****  * in supporting documentation.  Silicon Graphics makes no
  52:d:/github/AIOT_WORKSHOP/AIoT_MT2503AVE_SDK/11CW1418SP4_03_CORETEK03AE_11C_V1_GPRS_MMI/Tools/MinGW/include/c++/3.3.1/bits/stl_vector.h ****  * representations about the suitability of this  software for any
  53:d:/github/AIOT_WORKSHOP/AIoT_MT2503AVE_SDK/11CW1418SP4_03_CORETEK03AE_11C_V1_GPRS_MMI/Tools/MinGW/include/c++/3.3.1/bits/stl_vector.h ****  * purpose.  It is provided "as is" without express or implied warranty.
  54:d:/github/AIOT_WORKSHOP/AIoT_MT2503AVE_SDK/11CW1418SP4_03_CORETEK03AE_11C_V1_GPRS_MMI/Tools/MinGW/include/c++/3.3.1/bits/stl_vector.h ****  */
  55:d:/github/AIOT_WORKSHOP/AIoT_MT2503AVE_SDK/11CW1418SP4_03_CORETEK03AE_11C_V1_GPRS_MMI/Tools/MinGW/include/c++/3.3.1/bits/stl_vector.h **** 
  56:d:/github/AIOT_WORKSHOP/AIoT_MT2503AVE_SDK/11CW1418SP4_03_CORETEK03AE_11C_V1_GPRS_MMI/Tools/MinGW/include/c++/3.3.1/bits/stl_vector.h **** /** @file stl_vector.h
  57:d:/github/AIOT_WORKSHOP/AIoT_MT2503AVE_SDK/11CW1418SP4_03_CORETEK03AE_11C_V1_GPRS_MMI/Tools/MinGW/include/c++/3.3.1/bits/stl_vector.h ****  *  This is an internal header file, included by other library headers.
  58:d:/github/AIOT_WORKSHOP/AIoT_MT2503AVE_SDK/11CW1418SP4_03_CORETEK03AE_11C_V1_GPRS_MMI/Tools/MinGW/include/c++/3.3.1/bits/stl_vector.h ****  *  You should not attempt to use it directly.
  59:d:/github/AIOT_WORKSHOP/AIoT_MT2503AVE_SDK/11CW1418SP4_03_CORETEK03AE_11C_V1_GPRS_MMI/Tools/MinGW/include/c++/3.3.1/bits/stl_vector.h ****  */
GAS LISTING d:/github/AIOT_WORKSHOP/AIoT_MT2503AVE_SDK/11CW1418SP4_03_CORETEK03AE_11C_V1_GPRS_MMI/plutommi/Customer/ResGenerator/gcctmp/ccmAfaaa.s 			page 237


  60:d:/github/AIOT_WORKSHOP/AIoT_MT2503AVE_SDK/11CW1418SP4_03_CORETEK03AE_11C_V1_GPRS_MMI/Tools/MinGW/include/c++/3.3.1/bits/stl_vector.h **** 
  61:d:/github/AIOT_WORKSHOP/AIoT_MT2503AVE_SDK/11CW1418SP4_03_CORETEK03AE_11C_V1_GPRS_MMI/Tools/MinGW/include/c++/3.3.1/bits/stl_vector.h **** #ifndef __GLIBCPP_INTERNAL_VECTOR_H
  62:d:/github/AIOT_WORKSHOP/AIoT_MT2503AVE_SDK/11CW1418SP4_03_CORETEK03AE_11C_V1_GPRS_MMI/Tools/MinGW/include/c++/3.3.1/bits/stl_vector.h **** #define __GLIBCPP_INTERNAL_VECTOR_H
  63:d:/github/AIOT_WORKSHOP/AIoT_MT2503AVE_SDK/11CW1418SP4_03_CORETEK03AE_11C_V1_GPRS_MMI/Tools/MinGW/include/c++/3.3.1/bits/stl_vector.h **** 
  64:d:/github/AIOT_WORKSHOP/AIoT_MT2503AVE_SDK/11CW1418SP4_03_CORETEK03AE_11C_V1_GPRS_MMI/Tools/MinGW/include/c++/3.3.1/bits/stl_vector.h **** #include <bits/stl_iterator_base_funcs.h>
  65:d:/github/AIOT_WORKSHOP/AIoT_MT2503AVE_SDK/11CW1418SP4_03_CORETEK03AE_11C_V1_GPRS_MMI/Tools/MinGW/include/c++/3.3.1/bits/stl_vector.h **** #include <bits/functexcept.h>
  66:d:/github/AIOT_WORKSHOP/AIoT_MT2503AVE_SDK/11CW1418SP4_03_CORETEK03AE_11C_V1_GPRS_MMI/Tools/MinGW/include/c++/3.3.1/bits/stl_vector.h **** #include <bits/concept_check.h>
  67:d:/github/AIOT_WORKSHOP/AIoT_MT2503AVE_SDK/11CW1418SP4_03_CORETEK03AE_11C_V1_GPRS_MMI/Tools/MinGW/include/c++/3.3.1/bits/stl_vector.h **** 
  68:d:/github/AIOT_WORKSHOP/AIoT_MT2503AVE_SDK/11CW1418SP4_03_CORETEK03AE_11C_V1_GPRS_MMI/Tools/MinGW/include/c++/3.3.1/bits/stl_vector.h **** namespace std
  69:d:/github/AIOT_WORKSHOP/AIoT_MT2503AVE_SDK/11CW1418SP4_03_CORETEK03AE_11C_V1_GPRS_MMI/Tools/MinGW/include/c++/3.3.1/bits/stl_vector.h **** {
  70:d:/github/AIOT_WORKSHOP/AIoT_MT2503AVE_SDK/11CW1418SP4_03_CORETEK03AE_11C_V1_GPRS_MMI/Tools/MinGW/include/c++/3.3.1/bits/stl_vector.h ****   /// @if maint Primary default version.  @endif
  71:d:/github/AIOT_WORKSHOP/AIoT_MT2503AVE_SDK/11CW1418SP4_03_CORETEK03AE_11C_V1_GPRS_MMI/Tools/MinGW/include/c++/3.3.1/bits/stl_vector.h ****   /**
  72:d:/github/AIOT_WORKSHOP/AIoT_MT2503AVE_SDK/11CW1418SP4_03_CORETEK03AE_11C_V1_GPRS_MMI/Tools/MinGW/include/c++/3.3.1/bits/stl_vector.h ****    *  @if maint
  73:d:/github/AIOT_WORKSHOP/AIoT_MT2503AVE_SDK/11CW1418SP4_03_CORETEK03AE_11C_V1_GPRS_MMI/Tools/MinGW/include/c++/3.3.1/bits/stl_vector.h ****    *  See bits/stl_deque.h's _Deque_alloc_base for an explanation.
  74:d:/github/AIOT_WORKSHOP/AIoT_MT2503AVE_SDK/11CW1418SP4_03_CORETEK03AE_11C_V1_GPRS_MMI/Tools/MinGW/include/c++/3.3.1/bits/stl_vector.h ****    *  @endif
  75:d:/github/AIOT_WORKSHOP/AIoT_MT2503AVE_SDK/11CW1418SP4_03_CORETEK03AE_11C_V1_GPRS_MMI/Tools/MinGW/include/c++/3.3.1/bits/stl_vector.h ****   */
  76:d:/github/AIOT_WORKSHOP/AIoT_MT2503AVE_SDK/11CW1418SP4_03_CORETEK03AE_11C_V1_GPRS_MMI/Tools/MinGW/include/c++/3.3.1/bits/stl_vector.h ****   template<typename _Tp, typename _Allocator, bool _IsStatic>
  77:d:/github/AIOT_WORKSHOP/AIoT_MT2503AVE_SDK/11CW1418SP4_03_CORETEK03AE_11C_V1_GPRS_MMI/Tools/MinGW/include/c++/3.3.1/bits/stl_vector.h ****     class _Vector_alloc_base
  78:d:/github/AIOT_WORKSHOP/AIoT_MT2503AVE_SDK/11CW1418SP4_03_CORETEK03AE_11C_V1_GPRS_MMI/Tools/MinGW/include/c++/3.3.1/bits/stl_vector.h ****     {
  79:d:/github/AIOT_WORKSHOP/AIoT_MT2503AVE_SDK/11CW1418SP4_03_CORETEK03AE_11C_V1_GPRS_MMI/Tools/MinGW/include/c++/3.3.1/bits/stl_vector.h ****     public:
  80:d:/github/AIOT_WORKSHOP/AIoT_MT2503AVE_SDK/11CW1418SP4_03_CORETEK03AE_11C_V1_GPRS_MMI/Tools/MinGW/include/c++/3.3.1/bits/stl_vector.h ****       typedef typename _Alloc_traits<_Tp, _Allocator>::allocator_type
  81:d:/github/AIOT_WORKSHOP/AIoT_MT2503AVE_SDK/11CW1418SP4_03_CORETEK03AE_11C_V1_GPRS_MMI/Tools/MinGW/include/c++/3.3.1/bits/stl_vector.h ****       allocator_type;
  82:d:/github/AIOT_WORKSHOP/AIoT_MT2503AVE_SDK/11CW1418SP4_03_CORETEK03AE_11C_V1_GPRS_MMI/Tools/MinGW/include/c++/3.3.1/bits/stl_vector.h **** 
  83:d:/github/AIOT_WORKSHOP/AIoT_MT2503AVE_SDK/11CW1418SP4_03_CORETEK03AE_11C_V1_GPRS_MMI/Tools/MinGW/include/c++/3.3.1/bits/stl_vector.h ****       allocator_type
  84:d:/github/AIOT_WORKSHOP/AIoT_MT2503AVE_SDK/11CW1418SP4_03_CORETEK03AE_11C_V1_GPRS_MMI/Tools/MinGW/include/c++/3.3.1/bits/stl_vector.h ****       get_allocator() const { return _M_data_allocator; }
  85:d:/github/AIOT_WORKSHOP/AIoT_MT2503AVE_SDK/11CW1418SP4_03_CORETEK03AE_11C_V1_GPRS_MMI/Tools/MinGW/include/c++/3.3.1/bits/stl_vector.h ****   
  86:d:/github/AIOT_WORKSHOP/AIoT_MT2503AVE_SDK/11CW1418SP4_03_CORETEK03AE_11C_V1_GPRS_MMI/Tools/MinGW/include/c++/3.3.1/bits/stl_vector.h ****       _Vector_alloc_base(const allocator_type& __a)
  87:d:/github/AIOT_WORKSHOP/AIoT_MT2503AVE_SDK/11CW1418SP4_03_CORETEK03AE_11C_V1_GPRS_MMI/Tools/MinGW/include/c++/3.3.1/bits/stl_vector.h ****       : _M_data_allocator(__a), _M_start(0), _M_finish(0), _M_end_of_storage(0)
  88:d:/github/AIOT_WORKSHOP/AIoT_MT2503AVE_SDK/11CW1418SP4_03_CORETEK03AE_11C_V1_GPRS_MMI/Tools/MinGW/include/c++/3.3.1/bits/stl_vector.h ****       { }
  89:d:/github/AIOT_WORKSHOP/AIoT_MT2503AVE_SDK/11CW1418SP4_03_CORETEK03AE_11C_V1_GPRS_MMI/Tools/MinGW/include/c++/3.3.1/bits/stl_vector.h ****   
  90:d:/github/AIOT_WORKSHOP/AIoT_MT2503AVE_SDK/11CW1418SP4_03_CORETEK03AE_11C_V1_GPRS_MMI/Tools/MinGW/include/c++/3.3.1/bits/stl_vector.h ****     protected:
  91:d:/github/AIOT_WORKSHOP/AIoT_MT2503AVE_SDK/11CW1418SP4_03_CORETEK03AE_11C_V1_GPRS_MMI/Tools/MinGW/include/c++/3.3.1/bits/stl_vector.h ****       allocator_type _M_data_allocator;
  92:d:/github/AIOT_WORKSHOP/AIoT_MT2503AVE_SDK/11CW1418SP4_03_CORETEK03AE_11C_V1_GPRS_MMI/Tools/MinGW/include/c++/3.3.1/bits/stl_vector.h ****       _Tp*           _M_start;
  93:d:/github/AIOT_WORKSHOP/AIoT_MT2503AVE_SDK/11CW1418SP4_03_CORETEK03AE_11C_V1_GPRS_MMI/Tools/MinGW/include/c++/3.3.1/bits/stl_vector.h ****       _Tp*           _M_finish;
  94:d:/github/AIOT_WORKSHOP/AIoT_MT2503AVE_SDK/11CW1418SP4_03_CORETEK03AE_11C_V1_GPRS_MMI/Tools/MinGW/include/c++/3.3.1/bits/stl_vector.h ****       _Tp*           _M_end_of_storage;
  95:d:/github/AIOT_WORKSHOP/AIoT_MT2503AVE_SDK/11CW1418SP4_03_CORETEK03AE_11C_V1_GPRS_MMI/Tools/MinGW/include/c++/3.3.1/bits/stl_vector.h ****   
  96:d:/github/AIOT_WORKSHOP/AIoT_MT2503AVE_SDK/11CW1418SP4_03_CORETEK03AE_11C_V1_GPRS_MMI/Tools/MinGW/include/c++/3.3.1/bits/stl_vector.h ****       _Tp*
  97:d:/github/AIOT_WORKSHOP/AIoT_MT2503AVE_SDK/11CW1418SP4_03_CORETEK03AE_11C_V1_GPRS_MMI/Tools/MinGW/include/c++/3.3.1/bits/stl_vector.h ****       _M_allocate(size_t __n) { return _M_data_allocator.allocate(__n); }
  98:d:/github/AIOT_WORKSHOP/AIoT_MT2503AVE_SDK/11CW1418SP4_03_CORETEK03AE_11C_V1_GPRS_MMI/Tools/MinGW/include/c++/3.3.1/bits/stl_vector.h ****   
  99:d:/github/AIOT_WORKSHOP/AIoT_MT2503AVE_SDK/11CW1418SP4_03_CORETEK03AE_11C_V1_GPRS_MMI/Tools/MinGW/include/c++/3.3.1/bits/stl_vector.h ****       void
 100:d:/github/AIOT_WORKSHOP/AIoT_MT2503AVE_SDK/11CW1418SP4_03_CORETEK03AE_11C_V1_GPRS_MMI/Tools/MinGW/include/c++/3.3.1/bits/stl_vector.h ****       _M_deallocate(_Tp* __p, size_t __n)
 101:d:/github/AIOT_WORKSHOP/AIoT_MT2503AVE_SDK/11CW1418SP4_03_CORETEK03AE_11C_V1_GPRS_MMI/Tools/MinGW/include/c++/3.3.1/bits/stl_vector.h ****       { if (__p) _M_data_allocator.deallocate(__p, __n); }
 102:d:/github/AIOT_WORKSHOP/AIoT_MT2503AVE_SDK/11CW1418SP4_03_CORETEK03AE_11C_V1_GPRS_MMI/Tools/MinGW/include/c++/3.3.1/bits/stl_vector.h ****     };
 103:d:/github/AIOT_WORKSHOP/AIoT_MT2503AVE_SDK/11CW1418SP4_03_CORETEK03AE_11C_V1_GPRS_MMI/Tools/MinGW/include/c++/3.3.1/bits/stl_vector.h ****   
 104:d:/github/AIOT_WORKSHOP/AIoT_MT2503AVE_SDK/11CW1418SP4_03_CORETEK03AE_11C_V1_GPRS_MMI/Tools/MinGW/include/c++/3.3.1/bits/stl_vector.h ****   /// @if maint Specialization for instanceless allocators.  @endif
 105:d:/github/AIOT_WORKSHOP/AIoT_MT2503AVE_SDK/11CW1418SP4_03_CORETEK03AE_11C_V1_GPRS_MMI/Tools/MinGW/include/c++/3.3.1/bits/stl_vector.h ****   template<typename _Tp, typename _Allocator>
 106:d:/github/AIOT_WORKSHOP/AIoT_MT2503AVE_SDK/11CW1418SP4_03_CORETEK03AE_11C_V1_GPRS_MMI/Tools/MinGW/include/c++/3.3.1/bits/stl_vector.h ****     class _Vector_alloc_base<_Tp, _Allocator, true>
 107:d:/github/AIOT_WORKSHOP/AIoT_MT2503AVE_SDK/11CW1418SP4_03_CORETEK03AE_11C_V1_GPRS_MMI/Tools/MinGW/include/c++/3.3.1/bits/stl_vector.h ****     {
 108:d:/github/AIOT_WORKSHOP/AIoT_MT2503AVE_SDK/11CW1418SP4_03_CORETEK03AE_11C_V1_GPRS_MMI/Tools/MinGW/include/c++/3.3.1/bits/stl_vector.h ****     public:
 109:d:/github/AIOT_WORKSHOP/AIoT_MT2503AVE_SDK/11CW1418SP4_03_CORETEK03AE_11C_V1_GPRS_MMI/Tools/MinGW/include/c++/3.3.1/bits/stl_vector.h ****       typedef typename _Alloc_traits<_Tp, _Allocator>::allocator_type
 110:d:/github/AIOT_WORKSHOP/AIoT_MT2503AVE_SDK/11CW1418SP4_03_CORETEK03AE_11C_V1_GPRS_MMI/Tools/MinGW/include/c++/3.3.1/bits/stl_vector.h ****              allocator_type;
 111:d:/github/AIOT_WORKSHOP/AIoT_MT2503AVE_SDK/11CW1418SP4_03_CORETEK03AE_11C_V1_GPRS_MMI/Tools/MinGW/include/c++/3.3.1/bits/stl_vector.h ****   
 112:d:/github/AIOT_WORKSHOP/AIoT_MT2503AVE_SDK/11CW1418SP4_03_CORETEK03AE_11C_V1_GPRS_MMI/Tools/MinGW/include/c++/3.3.1/bits/stl_vector.h ****       allocator_type
 113:d:/github/AIOT_WORKSHOP/AIoT_MT2503AVE_SDK/11CW1418SP4_03_CORETEK03AE_11C_V1_GPRS_MMI/Tools/MinGW/include/c++/3.3.1/bits/stl_vector.h ****       get_allocator() const { return allocator_type(); }
 114:d:/github/AIOT_WORKSHOP/AIoT_MT2503AVE_SDK/11CW1418SP4_03_CORETEK03AE_11C_V1_GPRS_MMI/Tools/MinGW/include/c++/3.3.1/bits/stl_vector.h ****       
 115:d:/github/AIOT_WORKSHOP/AIoT_MT2503AVE_SDK/11CW1418SP4_03_CORETEK03AE_11C_V1_GPRS_MMI/Tools/MinGW/include/c++/3.3.1/bits/stl_vector.h ****       _Vector_alloc_base(const allocator_type&)
 116:d:/github/AIOT_WORKSHOP/AIoT_MT2503AVE_SDK/11CW1418SP4_03_CORETEK03AE_11C_V1_GPRS_MMI/Tools/MinGW/include/c++/3.3.1/bits/stl_vector.h ****       : _M_start(0), _M_finish(0), _M_end_of_storage(0)
GAS LISTING d:/github/AIOT_WORKSHOP/AIoT_MT2503AVE_SDK/11CW1418SP4_03_CORETEK03AE_11C_V1_GPRS_MMI/plutommi/Customer/ResGenerator/gcctmp/ccmAfaaa.s 			page 238


 117:d:/github/AIOT_WORKSHOP/AIoT_MT2503AVE_SDK/11CW1418SP4_03_CORETEK03AE_11C_V1_GPRS_MMI/Tools/MinGW/include/c++/3.3.1/bits/stl_vector.h ****       { }
 118:d:/github/AIOT_WORKSHOP/AIoT_MT2503AVE_SDK/11CW1418SP4_03_CORETEK03AE_11C_V1_GPRS_MMI/Tools/MinGW/include/c++/3.3.1/bits/stl_vector.h ****   
 119:d:/github/AIOT_WORKSHOP/AIoT_MT2503AVE_SDK/11CW1418SP4_03_CORETEK03AE_11C_V1_GPRS_MMI/Tools/MinGW/include/c++/3.3.1/bits/stl_vector.h ****     protected:
 120:d:/github/AIOT_WORKSHOP/AIoT_MT2503AVE_SDK/11CW1418SP4_03_CORETEK03AE_11C_V1_GPRS_MMI/Tools/MinGW/include/c++/3.3.1/bits/stl_vector.h ****       _Tp* _M_start;
 121:d:/github/AIOT_WORKSHOP/AIoT_MT2503AVE_SDK/11CW1418SP4_03_CORETEK03AE_11C_V1_GPRS_MMI/Tools/MinGW/include/c++/3.3.1/bits/stl_vector.h ****       _Tp* _M_finish;
 122:d:/github/AIOT_WORKSHOP/AIoT_MT2503AVE_SDK/11CW1418SP4_03_CORETEK03AE_11C_V1_GPRS_MMI/Tools/MinGW/include/c++/3.3.1/bits/stl_vector.h ****       _Tp* _M_end_of_storage;
 123:d:/github/AIOT_WORKSHOP/AIoT_MT2503AVE_SDK/11CW1418SP4_03_CORETEK03AE_11C_V1_GPRS_MMI/Tools/MinGW/include/c++/3.3.1/bits/stl_vector.h ****   
 124:d:/github/AIOT_WORKSHOP/AIoT_MT2503AVE_SDK/11CW1418SP4_03_CORETEK03AE_11C_V1_GPRS_MMI/Tools/MinGW/include/c++/3.3.1/bits/stl_vector.h ****       typedef typename _Alloc_traits<_Tp, _Allocator>::_Alloc_type _Alloc_type;
 125:d:/github/AIOT_WORKSHOP/AIoT_MT2503AVE_SDK/11CW1418SP4_03_CORETEK03AE_11C_V1_GPRS_MMI/Tools/MinGW/include/c++/3.3.1/bits/stl_vector.h ****       
 126:d:/github/AIOT_WORKSHOP/AIoT_MT2503AVE_SDK/11CW1418SP4_03_CORETEK03AE_11C_V1_GPRS_MMI/Tools/MinGW/include/c++/3.3.1/bits/stl_vector.h ****       _Tp*
 127:d:/github/AIOT_WORKSHOP/AIoT_MT2503AVE_SDK/11CW1418SP4_03_CORETEK03AE_11C_V1_GPRS_MMI/Tools/MinGW/include/c++/3.3.1/bits/stl_vector.h ****       _M_allocate(size_t __n) { return _Alloc_type::allocate(__n); }
 128:d:/github/AIOT_WORKSHOP/AIoT_MT2503AVE_SDK/11CW1418SP4_03_CORETEK03AE_11C_V1_GPRS_MMI/Tools/MinGW/include/c++/3.3.1/bits/stl_vector.h ****   
 129:d:/github/AIOT_WORKSHOP/AIoT_MT2503AVE_SDK/11CW1418SP4_03_CORETEK03AE_11C_V1_GPRS_MMI/Tools/MinGW/include/c++/3.3.1/bits/stl_vector.h ****       void
 130:d:/github/AIOT_WORKSHOP/AIoT_MT2503AVE_SDK/11CW1418SP4_03_CORETEK03AE_11C_V1_GPRS_MMI/Tools/MinGW/include/c++/3.3.1/bits/stl_vector.h ****       _M_deallocate(_Tp* __p, size_t __n) { _Alloc_type::deallocate(__p, __n);}
 131:d:/github/AIOT_WORKSHOP/AIoT_MT2503AVE_SDK/11CW1418SP4_03_CORETEK03AE_11C_V1_GPRS_MMI/Tools/MinGW/include/c++/3.3.1/bits/stl_vector.h ****     };
 132:d:/github/AIOT_WORKSHOP/AIoT_MT2503AVE_SDK/11CW1418SP4_03_CORETEK03AE_11C_V1_GPRS_MMI/Tools/MinGW/include/c++/3.3.1/bits/stl_vector.h ****   
 133:d:/github/AIOT_WORKSHOP/AIoT_MT2503AVE_SDK/11CW1418SP4_03_CORETEK03AE_11C_V1_GPRS_MMI/Tools/MinGW/include/c++/3.3.1/bits/stl_vector.h ****   
 134:d:/github/AIOT_WORKSHOP/AIoT_MT2503AVE_SDK/11CW1418SP4_03_CORETEK03AE_11C_V1_GPRS_MMI/Tools/MinGW/include/c++/3.3.1/bits/stl_vector.h ****   /**
 135:d:/github/AIOT_WORKSHOP/AIoT_MT2503AVE_SDK/11CW1418SP4_03_CORETEK03AE_11C_V1_GPRS_MMI/Tools/MinGW/include/c++/3.3.1/bits/stl_vector.h ****    *  @if maint
 136:d:/github/AIOT_WORKSHOP/AIoT_MT2503AVE_SDK/11CW1418SP4_03_CORETEK03AE_11C_V1_GPRS_MMI/Tools/MinGW/include/c++/3.3.1/bits/stl_vector.h ****    *  See bits/stl_deque.h's _Deque_base for an explanation.
 137:d:/github/AIOT_WORKSHOP/AIoT_MT2503AVE_SDK/11CW1418SP4_03_CORETEK03AE_11C_V1_GPRS_MMI/Tools/MinGW/include/c++/3.3.1/bits/stl_vector.h ****    *  @endif
 138:d:/github/AIOT_WORKSHOP/AIoT_MT2503AVE_SDK/11CW1418SP4_03_CORETEK03AE_11C_V1_GPRS_MMI/Tools/MinGW/include/c++/3.3.1/bits/stl_vector.h ****   */
 139:d:/github/AIOT_WORKSHOP/AIoT_MT2503AVE_SDK/11CW1418SP4_03_CORETEK03AE_11C_V1_GPRS_MMI/Tools/MinGW/include/c++/3.3.1/bits/stl_vector.h ****   template<typename _Tp, typename _Alloc>
 140:d:/github/AIOT_WORKSHOP/AIoT_MT2503AVE_SDK/11CW1418SP4_03_CORETEK03AE_11C_V1_GPRS_MMI/Tools/MinGW/include/c++/3.3.1/bits/stl_vector.h ****     struct _Vector_base
 141:d:/github/AIOT_WORKSHOP/AIoT_MT2503AVE_SDK/11CW1418SP4_03_CORETEK03AE_11C_V1_GPRS_MMI/Tools/MinGW/include/c++/3.3.1/bits/stl_vector.h ****     : public _Vector_alloc_base<_Tp, _Alloc,
 142:d:/github/AIOT_WORKSHOP/AIoT_MT2503AVE_SDK/11CW1418SP4_03_CORETEK03AE_11C_V1_GPRS_MMI/Tools/MinGW/include/c++/3.3.1/bits/stl_vector.h ****                                 _Alloc_traits<_Tp, _Alloc>::_S_instanceless>
 143:d:/github/AIOT_WORKSHOP/AIoT_MT2503AVE_SDK/11CW1418SP4_03_CORETEK03AE_11C_V1_GPRS_MMI/Tools/MinGW/include/c++/3.3.1/bits/stl_vector.h ****     {
 144:d:/github/AIOT_WORKSHOP/AIoT_MT2503AVE_SDK/11CW1418SP4_03_CORETEK03AE_11C_V1_GPRS_MMI/Tools/MinGW/include/c++/3.3.1/bits/stl_vector.h ****     public:
 145:d:/github/AIOT_WORKSHOP/AIoT_MT2503AVE_SDK/11CW1418SP4_03_CORETEK03AE_11C_V1_GPRS_MMI/Tools/MinGW/include/c++/3.3.1/bits/stl_vector.h ****       typedef _Vector_alloc_base<_Tp, _Alloc,
 146:d:/github/AIOT_WORKSHOP/AIoT_MT2503AVE_SDK/11CW1418SP4_03_CORETEK03AE_11C_V1_GPRS_MMI/Tools/MinGW/include/c++/3.3.1/bits/stl_vector.h **** 				 _Alloc_traits<_Tp, _Alloc>::_S_instanceless>
 147:d:/github/AIOT_WORKSHOP/AIoT_MT2503AVE_SDK/11CW1418SP4_03_CORETEK03AE_11C_V1_GPRS_MMI/Tools/MinGW/include/c++/3.3.1/bits/stl_vector.h ****          _Base;
 148:d:/github/AIOT_WORKSHOP/AIoT_MT2503AVE_SDK/11CW1418SP4_03_CORETEK03AE_11C_V1_GPRS_MMI/Tools/MinGW/include/c++/3.3.1/bits/stl_vector.h ****       typedef typename _Base::allocator_type allocator_type;
 149:d:/github/AIOT_WORKSHOP/AIoT_MT2503AVE_SDK/11CW1418SP4_03_CORETEK03AE_11C_V1_GPRS_MMI/Tools/MinGW/include/c++/3.3.1/bits/stl_vector.h **** 
 150:d:/github/AIOT_WORKSHOP/AIoT_MT2503AVE_SDK/11CW1418SP4_03_CORETEK03AE_11C_V1_GPRS_MMI/Tools/MinGW/include/c++/3.3.1/bits/stl_vector.h ****       _Vector_base(const allocator_type& __a)
 151:d:/github/AIOT_WORKSHOP/AIoT_MT2503AVE_SDK/11CW1418SP4_03_CORETEK03AE_11C_V1_GPRS_MMI/Tools/MinGW/include/c++/3.3.1/bits/stl_vector.h ****       : _Base(__a) { }
 152:d:/github/AIOT_WORKSHOP/AIoT_MT2503AVE_SDK/11CW1418SP4_03_CORETEK03AE_11C_V1_GPRS_MMI/Tools/MinGW/include/c++/3.3.1/bits/stl_vector.h ****       
 153:d:/github/AIOT_WORKSHOP/AIoT_MT2503AVE_SDK/11CW1418SP4_03_CORETEK03AE_11C_V1_GPRS_MMI/Tools/MinGW/include/c++/3.3.1/bits/stl_vector.h ****       _Vector_base(size_t __n, const allocator_type& __a)
 154:d:/github/AIOT_WORKSHOP/AIoT_MT2503AVE_SDK/11CW1418SP4_03_CORETEK03AE_11C_V1_GPRS_MMI/Tools/MinGW/include/c++/3.3.1/bits/stl_vector.h ****       : _Base(__a)
 155:d:/github/AIOT_WORKSHOP/AIoT_MT2503AVE_SDK/11CW1418SP4_03_CORETEK03AE_11C_V1_GPRS_MMI/Tools/MinGW/include/c++/3.3.1/bits/stl_vector.h ****       {
 156:d:/github/AIOT_WORKSHOP/AIoT_MT2503AVE_SDK/11CW1418SP4_03_CORETEK03AE_11C_V1_GPRS_MMI/Tools/MinGW/include/c++/3.3.1/bits/stl_vector.h **** 	_M_start = _M_allocate(__n);
 157:d:/github/AIOT_WORKSHOP/AIoT_MT2503AVE_SDK/11CW1418SP4_03_CORETEK03AE_11C_V1_GPRS_MMI/Tools/MinGW/include/c++/3.3.1/bits/stl_vector.h **** 	_M_finish = _M_start;
 158:d:/github/AIOT_WORKSHOP/AIoT_MT2503AVE_SDK/11CW1418SP4_03_CORETEK03AE_11C_V1_GPRS_MMI/Tools/MinGW/include/c++/3.3.1/bits/stl_vector.h **** 	_M_end_of_storage = _M_start + __n;
 159:d:/github/AIOT_WORKSHOP/AIoT_MT2503AVE_SDK/11CW1418SP4_03_CORETEK03AE_11C_V1_GPRS_MMI/Tools/MinGW/include/c++/3.3.1/bits/stl_vector.h ****       }
 160:d:/github/AIOT_WORKSHOP/AIoT_MT2503AVE_SDK/11CW1418SP4_03_CORETEK03AE_11C_V1_GPRS_MMI/Tools/MinGW/include/c++/3.3.1/bits/stl_vector.h ****       
 161:d:/github/AIOT_WORKSHOP/AIoT_MT2503AVE_SDK/11CW1418SP4_03_CORETEK03AE_11C_V1_GPRS_MMI/Tools/MinGW/include/c++/3.3.1/bits/stl_vector.h ****       ~_Vector_base() 
 162:d:/github/AIOT_WORKSHOP/AIoT_MT2503AVE_SDK/11CW1418SP4_03_CORETEK03AE_11C_V1_GPRS_MMI/Tools/MinGW/include/c++/3.3.1/bits/stl_vector.h ****       { _M_deallocate(_M_start, _M_end_of_storage - _M_start); }
 163:d:/github/AIOT_WORKSHOP/AIoT_MT2503AVE_SDK/11CW1418SP4_03_CORETEK03AE_11C_V1_GPRS_MMI/Tools/MinGW/include/c++/3.3.1/bits/stl_vector.h ****     };
 164:d:/github/AIOT_WORKSHOP/AIoT_MT2503AVE_SDK/11CW1418SP4_03_CORETEK03AE_11C_V1_GPRS_MMI/Tools/MinGW/include/c++/3.3.1/bits/stl_vector.h ****   
 165:d:/github/AIOT_WORKSHOP/AIoT_MT2503AVE_SDK/11CW1418SP4_03_CORETEK03AE_11C_V1_GPRS_MMI/Tools/MinGW/include/c++/3.3.1/bits/stl_vector.h ****   
 166:d:/github/AIOT_WORKSHOP/AIoT_MT2503AVE_SDK/11CW1418SP4_03_CORETEK03AE_11C_V1_GPRS_MMI/Tools/MinGW/include/c++/3.3.1/bits/stl_vector.h ****   /**
 167:d:/github/AIOT_WORKSHOP/AIoT_MT2503AVE_SDK/11CW1418SP4_03_CORETEK03AE_11C_V1_GPRS_MMI/Tools/MinGW/include/c++/3.3.1/bits/stl_vector.h ****    *  @brief  A standard container which offers fixed time access to individual
 168:d:/github/AIOT_WORKSHOP/AIoT_MT2503AVE_SDK/11CW1418SP4_03_CORETEK03AE_11C_V1_GPRS_MMI/Tools/MinGW/include/c++/3.3.1/bits/stl_vector.h ****    *  elements in any order.
 169:d:/github/AIOT_WORKSHOP/AIoT_MT2503AVE_SDK/11CW1418SP4_03_CORETEK03AE_11C_V1_GPRS_MMI/Tools/MinGW/include/c++/3.3.1/bits/stl_vector.h ****    *
 170:d:/github/AIOT_WORKSHOP/AIoT_MT2503AVE_SDK/11CW1418SP4_03_CORETEK03AE_11C_V1_GPRS_MMI/Tools/MinGW/include/c++/3.3.1/bits/stl_vector.h ****    *  @ingroup Containers
 171:d:/github/AIOT_WORKSHOP/AIoT_MT2503AVE_SDK/11CW1418SP4_03_CORETEK03AE_11C_V1_GPRS_MMI/Tools/MinGW/include/c++/3.3.1/bits/stl_vector.h ****    *  @ingroup Sequences
 172:d:/github/AIOT_WORKSHOP/AIoT_MT2503AVE_SDK/11CW1418SP4_03_CORETEK03AE_11C_V1_GPRS_MMI/Tools/MinGW/include/c++/3.3.1/bits/stl_vector.h ****    *
 173:d:/github/AIOT_WORKSHOP/AIoT_MT2503AVE_SDK/11CW1418SP4_03_CORETEK03AE_11C_V1_GPRS_MMI/Tools/MinGW/include/c++/3.3.1/bits/stl_vector.h ****    *  Meets the requirements of a <a href="tables.html#65">container</a>, a
GAS LISTING d:/github/AIOT_WORKSHOP/AIoT_MT2503AVE_SDK/11CW1418SP4_03_CORETEK03AE_11C_V1_GPRS_MMI/plutommi/Customer/ResGenerator/gcctmp/ccmAfaaa.s 			page 239


 174:d:/github/AIOT_WORKSHOP/AIoT_MT2503AVE_SDK/11CW1418SP4_03_CORETEK03AE_11C_V1_GPRS_MMI/Tools/MinGW/include/c++/3.3.1/bits/stl_vector.h ****    *  <a href="tables.html#66">reversible container</a>, and a
 175:d:/github/AIOT_WORKSHOP/AIoT_MT2503AVE_SDK/11CW1418SP4_03_CORETEK03AE_11C_V1_GPRS_MMI/Tools/MinGW/include/c++/3.3.1/bits/stl_vector.h ****    *  <a href="tables.html#67">sequence</a>, including the
 176:d:/github/AIOT_WORKSHOP/AIoT_MT2503AVE_SDK/11CW1418SP4_03_CORETEK03AE_11C_V1_GPRS_MMI/Tools/MinGW/include/c++/3.3.1/bits/stl_vector.h ****    *  <a href="tables.html#68">optional sequence requirements</a> with the
 177:d:/github/AIOT_WORKSHOP/AIoT_MT2503AVE_SDK/11CW1418SP4_03_CORETEK03AE_11C_V1_GPRS_MMI/Tools/MinGW/include/c++/3.3.1/bits/stl_vector.h ****    *  %exception of @c push_front and @c pop_front.
 178:d:/github/AIOT_WORKSHOP/AIoT_MT2503AVE_SDK/11CW1418SP4_03_CORETEK03AE_11C_V1_GPRS_MMI/Tools/MinGW/include/c++/3.3.1/bits/stl_vector.h ****    *
 179:d:/github/AIOT_WORKSHOP/AIoT_MT2503AVE_SDK/11CW1418SP4_03_CORETEK03AE_11C_V1_GPRS_MMI/Tools/MinGW/include/c++/3.3.1/bits/stl_vector.h ****    *  In some terminology a %vector can be described as a dynamic C-style array,
 180:d:/github/AIOT_WORKSHOP/AIoT_MT2503AVE_SDK/11CW1418SP4_03_CORETEK03AE_11C_V1_GPRS_MMI/Tools/MinGW/include/c++/3.3.1/bits/stl_vector.h ****    *  it offers fast and efficient access to individual elements in any order
 181:d:/github/AIOT_WORKSHOP/AIoT_MT2503AVE_SDK/11CW1418SP4_03_CORETEK03AE_11C_V1_GPRS_MMI/Tools/MinGW/include/c++/3.3.1/bits/stl_vector.h ****    *  and saves the user from worrying about memory and size allocation.
 182:d:/github/AIOT_WORKSHOP/AIoT_MT2503AVE_SDK/11CW1418SP4_03_CORETEK03AE_11C_V1_GPRS_MMI/Tools/MinGW/include/c++/3.3.1/bits/stl_vector.h ****    *  Subscripting ( @c [] ) access is also provided as with C-style arrays.
 183:d:/github/AIOT_WORKSHOP/AIoT_MT2503AVE_SDK/11CW1418SP4_03_CORETEK03AE_11C_V1_GPRS_MMI/Tools/MinGW/include/c++/3.3.1/bits/stl_vector.h ****   */
 184:d:/github/AIOT_WORKSHOP/AIoT_MT2503AVE_SDK/11CW1418SP4_03_CORETEK03AE_11C_V1_GPRS_MMI/Tools/MinGW/include/c++/3.3.1/bits/stl_vector.h ****   template<typename _Tp, typename _Alloc = allocator<_Tp> >
 185:d:/github/AIOT_WORKSHOP/AIoT_MT2503AVE_SDK/11CW1418SP4_03_CORETEK03AE_11C_V1_GPRS_MMI/Tools/MinGW/include/c++/3.3.1/bits/stl_vector.h ****     class vector : protected _Vector_base<_Tp, _Alloc>
 186:d:/github/AIOT_WORKSHOP/AIoT_MT2503AVE_SDK/11CW1418SP4_03_CORETEK03AE_11C_V1_GPRS_MMI/Tools/MinGW/include/c++/3.3.1/bits/stl_vector.h ****     {
 187:d:/github/AIOT_WORKSHOP/AIoT_MT2503AVE_SDK/11CW1418SP4_03_CORETEK03AE_11C_V1_GPRS_MMI/Tools/MinGW/include/c++/3.3.1/bits/stl_vector.h ****       // Concept requirements.
 188:d:/github/AIOT_WORKSHOP/AIoT_MT2503AVE_SDK/11CW1418SP4_03_CORETEK03AE_11C_V1_GPRS_MMI/Tools/MinGW/include/c++/3.3.1/bits/stl_vector.h ****       __glibcpp_class_requires(_Tp, _SGIAssignableConcept)
 189:d:/github/AIOT_WORKSHOP/AIoT_MT2503AVE_SDK/11CW1418SP4_03_CORETEK03AE_11C_V1_GPRS_MMI/Tools/MinGW/include/c++/3.3.1/bits/stl_vector.h ****   
 190:d:/github/AIOT_WORKSHOP/AIoT_MT2503AVE_SDK/11CW1418SP4_03_CORETEK03AE_11C_V1_GPRS_MMI/Tools/MinGW/include/c++/3.3.1/bits/stl_vector.h ****       typedef _Vector_base<_Tp, _Alloc>                     _Base;
 191:d:/github/AIOT_WORKSHOP/AIoT_MT2503AVE_SDK/11CW1418SP4_03_CORETEK03AE_11C_V1_GPRS_MMI/Tools/MinGW/include/c++/3.3.1/bits/stl_vector.h ****       typedef vector<_Tp, _Alloc>                           vector_type;
 192:d:/github/AIOT_WORKSHOP/AIoT_MT2503AVE_SDK/11CW1418SP4_03_CORETEK03AE_11C_V1_GPRS_MMI/Tools/MinGW/include/c++/3.3.1/bits/stl_vector.h ****   
 193:d:/github/AIOT_WORKSHOP/AIoT_MT2503AVE_SDK/11CW1418SP4_03_CORETEK03AE_11C_V1_GPRS_MMI/Tools/MinGW/include/c++/3.3.1/bits/stl_vector.h ****     public:
 194:d:/github/AIOT_WORKSHOP/AIoT_MT2503AVE_SDK/11CW1418SP4_03_CORETEK03AE_11C_V1_GPRS_MMI/Tools/MinGW/include/c++/3.3.1/bits/stl_vector.h ****       typedef _Tp 						value_type;
 195:d:/github/AIOT_WORKSHOP/AIoT_MT2503AVE_SDK/11CW1418SP4_03_CORETEK03AE_11C_V1_GPRS_MMI/Tools/MinGW/include/c++/3.3.1/bits/stl_vector.h ****       typedef value_type* 					pointer;
 196:d:/github/AIOT_WORKSHOP/AIoT_MT2503AVE_SDK/11CW1418SP4_03_CORETEK03AE_11C_V1_GPRS_MMI/Tools/MinGW/include/c++/3.3.1/bits/stl_vector.h ****       typedef const value_type* 				const_pointer;
 197:d:/github/AIOT_WORKSHOP/AIoT_MT2503AVE_SDK/11CW1418SP4_03_CORETEK03AE_11C_V1_GPRS_MMI/Tools/MinGW/include/c++/3.3.1/bits/stl_vector.h ****       typedef __gnu_cxx::__normal_iterator<pointer, vector_type> iterator;
 198:d:/github/AIOT_WORKSHOP/AIoT_MT2503AVE_SDK/11CW1418SP4_03_CORETEK03AE_11C_V1_GPRS_MMI/Tools/MinGW/include/c++/3.3.1/bits/stl_vector.h ****       typedef __gnu_cxx::__normal_iterator<const_pointer, vector_type>
 199:d:/github/AIOT_WORKSHOP/AIoT_MT2503AVE_SDK/11CW1418SP4_03_CORETEK03AE_11C_V1_GPRS_MMI/Tools/MinGW/include/c++/3.3.1/bits/stl_vector.h ****       const_iterator;
 200:d:/github/AIOT_WORKSHOP/AIoT_MT2503AVE_SDK/11CW1418SP4_03_CORETEK03AE_11C_V1_GPRS_MMI/Tools/MinGW/include/c++/3.3.1/bits/stl_vector.h ****       typedef std::reverse_iterator<const_iterator>    	const_reverse_iterator;
 201:d:/github/AIOT_WORKSHOP/AIoT_MT2503AVE_SDK/11CW1418SP4_03_CORETEK03AE_11C_V1_GPRS_MMI/Tools/MinGW/include/c++/3.3.1/bits/stl_vector.h ****       typedef std::reverse_iterator<iterator>                reverse_iterator;
 202:d:/github/AIOT_WORKSHOP/AIoT_MT2503AVE_SDK/11CW1418SP4_03_CORETEK03AE_11C_V1_GPRS_MMI/Tools/MinGW/include/c++/3.3.1/bits/stl_vector.h ****       typedef value_type& 					reference;
 203:d:/github/AIOT_WORKSHOP/AIoT_MT2503AVE_SDK/11CW1418SP4_03_CORETEK03AE_11C_V1_GPRS_MMI/Tools/MinGW/include/c++/3.3.1/bits/stl_vector.h ****       typedef const value_type& 				const_reference;
 204:d:/github/AIOT_WORKSHOP/AIoT_MT2503AVE_SDK/11CW1418SP4_03_CORETEK03AE_11C_V1_GPRS_MMI/Tools/MinGW/include/c++/3.3.1/bits/stl_vector.h ****       typedef size_t 					size_type;
 205:d:/github/AIOT_WORKSHOP/AIoT_MT2503AVE_SDK/11CW1418SP4_03_CORETEK03AE_11C_V1_GPRS_MMI/Tools/MinGW/include/c++/3.3.1/bits/stl_vector.h ****       typedef ptrdiff_t 					difference_type;
 206:d:/github/AIOT_WORKSHOP/AIoT_MT2503AVE_SDK/11CW1418SP4_03_CORETEK03AE_11C_V1_GPRS_MMI/Tools/MinGW/include/c++/3.3.1/bits/stl_vector.h ****       typedef typename _Base::allocator_type                allocator_type;
 207:d:/github/AIOT_WORKSHOP/AIoT_MT2503AVE_SDK/11CW1418SP4_03_CORETEK03AE_11C_V1_GPRS_MMI/Tools/MinGW/include/c++/3.3.1/bits/stl_vector.h ****       
 208:d:/github/AIOT_WORKSHOP/AIoT_MT2503AVE_SDK/11CW1418SP4_03_CORETEK03AE_11C_V1_GPRS_MMI/Tools/MinGW/include/c++/3.3.1/bits/stl_vector.h ****     protected:
 209:d:/github/AIOT_WORKSHOP/AIoT_MT2503AVE_SDK/11CW1418SP4_03_CORETEK03AE_11C_V1_GPRS_MMI/Tools/MinGW/include/c++/3.3.1/bits/stl_vector.h ****       /** @if maint
 210:d:/github/AIOT_WORKSHOP/AIoT_MT2503AVE_SDK/11CW1418SP4_03_CORETEK03AE_11C_V1_GPRS_MMI/Tools/MinGW/include/c++/3.3.1/bits/stl_vector.h ****        *  These two functions and three data members are all from the
 211:d:/github/AIOT_WORKSHOP/AIoT_MT2503AVE_SDK/11CW1418SP4_03_CORETEK03AE_11C_V1_GPRS_MMI/Tools/MinGW/include/c++/3.3.1/bits/stl_vector.h ****        *  top-most base class, which varies depending on the type of
 212:d:/github/AIOT_WORKSHOP/AIoT_MT2503AVE_SDK/11CW1418SP4_03_CORETEK03AE_11C_V1_GPRS_MMI/Tools/MinGW/include/c++/3.3.1/bits/stl_vector.h ****        *  %allocator.  They should be pretty self-explanatory, as
 213:d:/github/AIOT_WORKSHOP/AIoT_MT2503AVE_SDK/11CW1418SP4_03_CORETEK03AE_11C_V1_GPRS_MMI/Tools/MinGW/include/c++/3.3.1/bits/stl_vector.h ****        *  %vector uses a simple contiguous allocation scheme.  @endif
 214:d:/github/AIOT_WORKSHOP/AIoT_MT2503AVE_SDK/11CW1418SP4_03_CORETEK03AE_11C_V1_GPRS_MMI/Tools/MinGW/include/c++/3.3.1/bits/stl_vector.h ****        */
 215:d:/github/AIOT_WORKSHOP/AIoT_MT2503AVE_SDK/11CW1418SP4_03_CORETEK03AE_11C_V1_GPRS_MMI/Tools/MinGW/include/c++/3.3.1/bits/stl_vector.h ****       using _Base::_M_allocate;
 216:d:/github/AIOT_WORKSHOP/AIoT_MT2503AVE_SDK/11CW1418SP4_03_CORETEK03AE_11C_V1_GPRS_MMI/Tools/MinGW/include/c++/3.3.1/bits/stl_vector.h ****       using _Base::_M_deallocate;
 217:d:/github/AIOT_WORKSHOP/AIoT_MT2503AVE_SDK/11CW1418SP4_03_CORETEK03AE_11C_V1_GPRS_MMI/Tools/MinGW/include/c++/3.3.1/bits/stl_vector.h ****       using _Base::_M_start;
 218:d:/github/AIOT_WORKSHOP/AIoT_MT2503AVE_SDK/11CW1418SP4_03_CORETEK03AE_11C_V1_GPRS_MMI/Tools/MinGW/include/c++/3.3.1/bits/stl_vector.h ****       using _Base::_M_finish;
 219:d:/github/AIOT_WORKSHOP/AIoT_MT2503AVE_SDK/11CW1418SP4_03_CORETEK03AE_11C_V1_GPRS_MMI/Tools/MinGW/include/c++/3.3.1/bits/stl_vector.h ****       using _Base::_M_end_of_storage;
 220:d:/github/AIOT_WORKSHOP/AIoT_MT2503AVE_SDK/11CW1418SP4_03_CORETEK03AE_11C_V1_GPRS_MMI/Tools/MinGW/include/c++/3.3.1/bits/stl_vector.h ****       
 221:d:/github/AIOT_WORKSHOP/AIoT_MT2503AVE_SDK/11CW1418SP4_03_CORETEK03AE_11C_V1_GPRS_MMI/Tools/MinGW/include/c++/3.3.1/bits/stl_vector.h ****     public:
 222:d:/github/AIOT_WORKSHOP/AIoT_MT2503AVE_SDK/11CW1418SP4_03_CORETEK03AE_11C_V1_GPRS_MMI/Tools/MinGW/include/c++/3.3.1/bits/stl_vector.h ****       // [23.2.4.1] construct/copy/destroy
 223:d:/github/AIOT_WORKSHOP/AIoT_MT2503AVE_SDK/11CW1418SP4_03_CORETEK03AE_11C_V1_GPRS_MMI/Tools/MinGW/include/c++/3.3.1/bits/stl_vector.h ****       // (assign() and get_allocator() are also listed in this section)
 224:d:/github/AIOT_WORKSHOP/AIoT_MT2503AVE_SDK/11CW1418SP4_03_CORETEK03AE_11C_V1_GPRS_MMI/Tools/MinGW/include/c++/3.3.1/bits/stl_vector.h ****       /**
 225:d:/github/AIOT_WORKSHOP/AIoT_MT2503AVE_SDK/11CW1418SP4_03_CORETEK03AE_11C_V1_GPRS_MMI/Tools/MinGW/include/c++/3.3.1/bits/stl_vector.h ****        *  @brief  Default constructor creates no elements.
 226:d:/github/AIOT_WORKSHOP/AIoT_MT2503AVE_SDK/11CW1418SP4_03_CORETEK03AE_11C_V1_GPRS_MMI/Tools/MinGW/include/c++/3.3.1/bits/stl_vector.h ****        */
 227:d:/github/AIOT_WORKSHOP/AIoT_MT2503AVE_SDK/11CW1418SP4_03_CORETEK03AE_11C_V1_GPRS_MMI/Tools/MinGW/include/c++/3.3.1/bits/stl_vector.h ****       explicit
 228:d:/github/AIOT_WORKSHOP/AIoT_MT2503AVE_SDK/11CW1418SP4_03_CORETEK03AE_11C_V1_GPRS_MMI/Tools/MinGW/include/c++/3.3.1/bits/stl_vector.h ****       vector(const allocator_type& __a = allocator_type())
 229:d:/github/AIOT_WORKSHOP/AIoT_MT2503AVE_SDK/11CW1418SP4_03_CORETEK03AE_11C_V1_GPRS_MMI/Tools/MinGW/include/c++/3.3.1/bits/stl_vector.h ****       : _Base(__a) { }
 230:d:/github/AIOT_WORKSHOP/AIoT_MT2503AVE_SDK/11CW1418SP4_03_CORETEK03AE_11C_V1_GPRS_MMI/Tools/MinGW/include/c++/3.3.1/bits/stl_vector.h ****   
GAS LISTING d:/github/AIOT_WORKSHOP/AIoT_MT2503AVE_SDK/11CW1418SP4_03_CORETEK03AE_11C_V1_GPRS_MMI/plutommi/Customer/ResGenerator/gcctmp/ccmAfaaa.s 			page 240


 231:d:/github/AIOT_WORKSHOP/AIoT_MT2503AVE_SDK/11CW1418SP4_03_CORETEK03AE_11C_V1_GPRS_MMI/Tools/MinGW/include/c++/3.3.1/bits/stl_vector.h ****       /**
 232:d:/github/AIOT_WORKSHOP/AIoT_MT2503AVE_SDK/11CW1418SP4_03_CORETEK03AE_11C_V1_GPRS_MMI/Tools/MinGW/include/c++/3.3.1/bits/stl_vector.h ****        *  @brief  Create a %vector with copies of an exemplar element.
 233:d:/github/AIOT_WORKSHOP/AIoT_MT2503AVE_SDK/11CW1418SP4_03_CORETEK03AE_11C_V1_GPRS_MMI/Tools/MinGW/include/c++/3.3.1/bits/stl_vector.h ****        *  @param  n  The number of elements to initially create.
 234:d:/github/AIOT_WORKSHOP/AIoT_MT2503AVE_SDK/11CW1418SP4_03_CORETEK03AE_11C_V1_GPRS_MMI/Tools/MinGW/include/c++/3.3.1/bits/stl_vector.h ****        *  @param  value  An element to copy.
 235:d:/github/AIOT_WORKSHOP/AIoT_MT2503AVE_SDK/11CW1418SP4_03_CORETEK03AE_11C_V1_GPRS_MMI/Tools/MinGW/include/c++/3.3.1/bits/stl_vector.h ****        * 
 236:d:/github/AIOT_WORKSHOP/AIoT_MT2503AVE_SDK/11CW1418SP4_03_CORETEK03AE_11C_V1_GPRS_MMI/Tools/MinGW/include/c++/3.3.1/bits/stl_vector.h ****        *  This constructor fills the %vector with @a n copies of @a value.
 237:d:/github/AIOT_WORKSHOP/AIoT_MT2503AVE_SDK/11CW1418SP4_03_CORETEK03AE_11C_V1_GPRS_MMI/Tools/MinGW/include/c++/3.3.1/bits/stl_vector.h ****        */
 238:d:/github/AIOT_WORKSHOP/AIoT_MT2503AVE_SDK/11CW1418SP4_03_CORETEK03AE_11C_V1_GPRS_MMI/Tools/MinGW/include/c++/3.3.1/bits/stl_vector.h ****       vector(size_type __n, const value_type& __value,
 239:d:/github/AIOT_WORKSHOP/AIoT_MT2503AVE_SDK/11CW1418SP4_03_CORETEK03AE_11C_V1_GPRS_MMI/Tools/MinGW/include/c++/3.3.1/bits/stl_vector.h **** 	     const allocator_type& __a = allocator_type())
 240:d:/github/AIOT_WORKSHOP/AIoT_MT2503AVE_SDK/11CW1418SP4_03_CORETEK03AE_11C_V1_GPRS_MMI/Tools/MinGW/include/c++/3.3.1/bits/stl_vector.h ****       : _Base(__n, __a)
 241:d:/github/AIOT_WORKSHOP/AIoT_MT2503AVE_SDK/11CW1418SP4_03_CORETEK03AE_11C_V1_GPRS_MMI/Tools/MinGW/include/c++/3.3.1/bits/stl_vector.h ****       { _M_finish = uninitialized_fill_n(_M_start, __n, __value); }
 242:d:/github/AIOT_WORKSHOP/AIoT_MT2503AVE_SDK/11CW1418SP4_03_CORETEK03AE_11C_V1_GPRS_MMI/Tools/MinGW/include/c++/3.3.1/bits/stl_vector.h ****   
 243:d:/github/AIOT_WORKSHOP/AIoT_MT2503AVE_SDK/11CW1418SP4_03_CORETEK03AE_11C_V1_GPRS_MMI/Tools/MinGW/include/c++/3.3.1/bits/stl_vector.h ****       /**
 244:d:/github/AIOT_WORKSHOP/AIoT_MT2503AVE_SDK/11CW1418SP4_03_CORETEK03AE_11C_V1_GPRS_MMI/Tools/MinGW/include/c++/3.3.1/bits/stl_vector.h ****        *  @brief  Create a %vector with default elements.
 245:d:/github/AIOT_WORKSHOP/AIoT_MT2503AVE_SDK/11CW1418SP4_03_CORETEK03AE_11C_V1_GPRS_MMI/Tools/MinGW/include/c++/3.3.1/bits/stl_vector.h ****        *  @param  n  The number of elements to initially create.
 246:d:/github/AIOT_WORKSHOP/AIoT_MT2503AVE_SDK/11CW1418SP4_03_CORETEK03AE_11C_V1_GPRS_MMI/Tools/MinGW/include/c++/3.3.1/bits/stl_vector.h ****        * 
 247:d:/github/AIOT_WORKSHOP/AIoT_MT2503AVE_SDK/11CW1418SP4_03_CORETEK03AE_11C_V1_GPRS_MMI/Tools/MinGW/include/c++/3.3.1/bits/stl_vector.h ****        *  This constructor fills the %vector with @a n copies of a
 248:d:/github/AIOT_WORKSHOP/AIoT_MT2503AVE_SDK/11CW1418SP4_03_CORETEK03AE_11C_V1_GPRS_MMI/Tools/MinGW/include/c++/3.3.1/bits/stl_vector.h ****        *  default-constructed element.
 249:d:/github/AIOT_WORKSHOP/AIoT_MT2503AVE_SDK/11CW1418SP4_03_CORETEK03AE_11C_V1_GPRS_MMI/Tools/MinGW/include/c++/3.3.1/bits/stl_vector.h ****        */
 250:d:/github/AIOT_WORKSHOP/AIoT_MT2503AVE_SDK/11CW1418SP4_03_CORETEK03AE_11C_V1_GPRS_MMI/Tools/MinGW/include/c++/3.3.1/bits/stl_vector.h ****       explicit
 251:d:/github/AIOT_WORKSHOP/AIoT_MT2503AVE_SDK/11CW1418SP4_03_CORETEK03AE_11C_V1_GPRS_MMI/Tools/MinGW/include/c++/3.3.1/bits/stl_vector.h ****       vector(size_type __n)
 252:d:/github/AIOT_WORKSHOP/AIoT_MT2503AVE_SDK/11CW1418SP4_03_CORETEK03AE_11C_V1_GPRS_MMI/Tools/MinGW/include/c++/3.3.1/bits/stl_vector.h ****       : _Base(__n, allocator_type())
 253:d:/github/AIOT_WORKSHOP/AIoT_MT2503AVE_SDK/11CW1418SP4_03_CORETEK03AE_11C_V1_GPRS_MMI/Tools/MinGW/include/c++/3.3.1/bits/stl_vector.h ****       { _M_finish = uninitialized_fill_n(_M_start, __n, value_type()); }
 254:d:/github/AIOT_WORKSHOP/AIoT_MT2503AVE_SDK/11CW1418SP4_03_CORETEK03AE_11C_V1_GPRS_MMI/Tools/MinGW/include/c++/3.3.1/bits/stl_vector.h ****       
 255:d:/github/AIOT_WORKSHOP/AIoT_MT2503AVE_SDK/11CW1418SP4_03_CORETEK03AE_11C_V1_GPRS_MMI/Tools/MinGW/include/c++/3.3.1/bits/stl_vector.h ****       /**
 256:d:/github/AIOT_WORKSHOP/AIoT_MT2503AVE_SDK/11CW1418SP4_03_CORETEK03AE_11C_V1_GPRS_MMI/Tools/MinGW/include/c++/3.3.1/bits/stl_vector.h ****        *  @brief  %Vector copy constructor.
 257:d:/github/AIOT_WORKSHOP/AIoT_MT2503AVE_SDK/11CW1418SP4_03_CORETEK03AE_11C_V1_GPRS_MMI/Tools/MinGW/include/c++/3.3.1/bits/stl_vector.h ****        *  @param  x  A %vector of identical element and allocator types.
 258:d:/github/AIOT_WORKSHOP/AIoT_MT2503AVE_SDK/11CW1418SP4_03_CORETEK03AE_11C_V1_GPRS_MMI/Tools/MinGW/include/c++/3.3.1/bits/stl_vector.h ****        * 
 259:d:/github/AIOT_WORKSHOP/AIoT_MT2503AVE_SDK/11CW1418SP4_03_CORETEK03AE_11C_V1_GPRS_MMI/Tools/MinGW/include/c++/3.3.1/bits/stl_vector.h ****        *  The newly-created %vector uses a copy of the allocation
 260:d:/github/AIOT_WORKSHOP/AIoT_MT2503AVE_SDK/11CW1418SP4_03_CORETEK03AE_11C_V1_GPRS_MMI/Tools/MinGW/include/c++/3.3.1/bits/stl_vector.h ****        *  object used by @a x.  All the elements of @a x are copied,
 261:d:/github/AIOT_WORKSHOP/AIoT_MT2503AVE_SDK/11CW1418SP4_03_CORETEK03AE_11C_V1_GPRS_MMI/Tools/MinGW/include/c++/3.3.1/bits/stl_vector.h ****        *  but any extra memory in
 262:d:/github/AIOT_WORKSHOP/AIoT_MT2503AVE_SDK/11CW1418SP4_03_CORETEK03AE_11C_V1_GPRS_MMI/Tools/MinGW/include/c++/3.3.1/bits/stl_vector.h ****        *  @a x (for fast expansion) will not be copied.
 263:d:/github/AIOT_WORKSHOP/AIoT_MT2503AVE_SDK/11CW1418SP4_03_CORETEK03AE_11C_V1_GPRS_MMI/Tools/MinGW/include/c++/3.3.1/bits/stl_vector.h ****        */
 264:d:/github/AIOT_WORKSHOP/AIoT_MT2503AVE_SDK/11CW1418SP4_03_CORETEK03AE_11C_V1_GPRS_MMI/Tools/MinGW/include/c++/3.3.1/bits/stl_vector.h ****       vector(const vector& __x)
 265:d:/github/AIOT_WORKSHOP/AIoT_MT2503AVE_SDK/11CW1418SP4_03_CORETEK03AE_11C_V1_GPRS_MMI/Tools/MinGW/include/c++/3.3.1/bits/stl_vector.h ****       : _Base(__x.size(), __x.get_allocator())
 266:d:/github/AIOT_WORKSHOP/AIoT_MT2503AVE_SDK/11CW1418SP4_03_CORETEK03AE_11C_V1_GPRS_MMI/Tools/MinGW/include/c++/3.3.1/bits/stl_vector.h ****       { _M_finish = uninitialized_copy(__x.begin(), __x.end(), _M_start); }
 267:d:/github/AIOT_WORKSHOP/AIoT_MT2503AVE_SDK/11CW1418SP4_03_CORETEK03AE_11C_V1_GPRS_MMI/Tools/MinGW/include/c++/3.3.1/bits/stl_vector.h ****   
 268:d:/github/AIOT_WORKSHOP/AIoT_MT2503AVE_SDK/11CW1418SP4_03_CORETEK03AE_11C_V1_GPRS_MMI/Tools/MinGW/include/c++/3.3.1/bits/stl_vector.h ****       /**
 269:d:/github/AIOT_WORKSHOP/AIoT_MT2503AVE_SDK/11CW1418SP4_03_CORETEK03AE_11C_V1_GPRS_MMI/Tools/MinGW/include/c++/3.3.1/bits/stl_vector.h ****        *  @brief  Builds a %vector from a range.
 270:d:/github/AIOT_WORKSHOP/AIoT_MT2503AVE_SDK/11CW1418SP4_03_CORETEK03AE_11C_V1_GPRS_MMI/Tools/MinGW/include/c++/3.3.1/bits/stl_vector.h ****        *  @param  first  An input iterator.
 271:d:/github/AIOT_WORKSHOP/AIoT_MT2503AVE_SDK/11CW1418SP4_03_CORETEK03AE_11C_V1_GPRS_MMI/Tools/MinGW/include/c++/3.3.1/bits/stl_vector.h ****        *  @param  last  An input iterator.
 272:d:/github/AIOT_WORKSHOP/AIoT_MT2503AVE_SDK/11CW1418SP4_03_CORETEK03AE_11C_V1_GPRS_MMI/Tools/MinGW/include/c++/3.3.1/bits/stl_vector.h ****        * 
 273:d:/github/AIOT_WORKSHOP/AIoT_MT2503AVE_SDK/11CW1418SP4_03_CORETEK03AE_11C_V1_GPRS_MMI/Tools/MinGW/include/c++/3.3.1/bits/stl_vector.h ****        *  Create a %vector consisting of copies of the elements from
 274:d:/github/AIOT_WORKSHOP/AIoT_MT2503AVE_SDK/11CW1418SP4_03_CORETEK03AE_11C_V1_GPRS_MMI/Tools/MinGW/include/c++/3.3.1/bits/stl_vector.h ****        *  [first,last).
 275:d:/github/AIOT_WORKSHOP/AIoT_MT2503AVE_SDK/11CW1418SP4_03_CORETEK03AE_11C_V1_GPRS_MMI/Tools/MinGW/include/c++/3.3.1/bits/stl_vector.h ****        *
 276:d:/github/AIOT_WORKSHOP/AIoT_MT2503AVE_SDK/11CW1418SP4_03_CORETEK03AE_11C_V1_GPRS_MMI/Tools/MinGW/include/c++/3.3.1/bits/stl_vector.h ****        *  If the iterators are forward, bidirectional, or random-access, then
 277:d:/github/AIOT_WORKSHOP/AIoT_MT2503AVE_SDK/11CW1418SP4_03_CORETEK03AE_11C_V1_GPRS_MMI/Tools/MinGW/include/c++/3.3.1/bits/stl_vector.h ****        *  this will call the elements' copy constructor N times (where N is
 278:d:/github/AIOT_WORKSHOP/AIoT_MT2503AVE_SDK/11CW1418SP4_03_CORETEK03AE_11C_V1_GPRS_MMI/Tools/MinGW/include/c++/3.3.1/bits/stl_vector.h ****        *  distance(first,last)) and do no memory reallocation.  But if only
 279:d:/github/AIOT_WORKSHOP/AIoT_MT2503AVE_SDK/11CW1418SP4_03_CORETEK03AE_11C_V1_GPRS_MMI/Tools/MinGW/include/c++/3.3.1/bits/stl_vector.h ****        *  input iterators are used, then this will do at most 2N calls to the
 280:d:/github/AIOT_WORKSHOP/AIoT_MT2503AVE_SDK/11CW1418SP4_03_CORETEK03AE_11C_V1_GPRS_MMI/Tools/MinGW/include/c++/3.3.1/bits/stl_vector.h ****        *  copy constructor, and logN memory reallocations.
 281:d:/github/AIOT_WORKSHOP/AIoT_MT2503AVE_SDK/11CW1418SP4_03_CORETEK03AE_11C_V1_GPRS_MMI/Tools/MinGW/include/c++/3.3.1/bits/stl_vector.h ****        */
 282:d:/github/AIOT_WORKSHOP/AIoT_MT2503AVE_SDK/11CW1418SP4_03_CORETEK03AE_11C_V1_GPRS_MMI/Tools/MinGW/include/c++/3.3.1/bits/stl_vector.h ****       template<typename _InputIterator>
 283:d:/github/AIOT_WORKSHOP/AIoT_MT2503AVE_SDK/11CW1418SP4_03_CORETEK03AE_11C_V1_GPRS_MMI/Tools/MinGW/include/c++/3.3.1/bits/stl_vector.h ****         vector(_InputIterator __first, _InputIterator __last,
 284:d:/github/AIOT_WORKSHOP/AIoT_MT2503AVE_SDK/11CW1418SP4_03_CORETEK03AE_11C_V1_GPRS_MMI/Tools/MinGW/include/c++/3.3.1/bits/stl_vector.h **** 	       const allocator_type& __a = allocator_type())
 285:d:/github/AIOT_WORKSHOP/AIoT_MT2503AVE_SDK/11CW1418SP4_03_CORETEK03AE_11C_V1_GPRS_MMI/Tools/MinGW/include/c++/3.3.1/bits/stl_vector.h **** 	: _Base(__a)
 286:d:/github/AIOT_WORKSHOP/AIoT_MT2503AVE_SDK/11CW1418SP4_03_CORETEK03AE_11C_V1_GPRS_MMI/Tools/MinGW/include/c++/3.3.1/bits/stl_vector.h ****         {
 287:d:/github/AIOT_WORKSHOP/AIoT_MT2503AVE_SDK/11CW1418SP4_03_CORETEK03AE_11C_V1_GPRS_MMI/Tools/MinGW/include/c++/3.3.1/bits/stl_vector.h **** 	  // Check whether it's an integral type.  If so, it's not an iterator.
GAS LISTING d:/github/AIOT_WORKSHOP/AIoT_MT2503AVE_SDK/11CW1418SP4_03_CORETEK03AE_11C_V1_GPRS_MMI/plutommi/Customer/ResGenerator/gcctmp/ccmAfaaa.s 			page 241


 288:d:/github/AIOT_WORKSHOP/AIoT_MT2503AVE_SDK/11CW1418SP4_03_CORETEK03AE_11C_V1_GPRS_MMI/Tools/MinGW/include/c++/3.3.1/bits/stl_vector.h **** 	  typedef typename _Is_integer<_InputIterator>::_Integral _Integral;
 289:d:/github/AIOT_WORKSHOP/AIoT_MT2503AVE_SDK/11CW1418SP4_03_CORETEK03AE_11C_V1_GPRS_MMI/Tools/MinGW/include/c++/3.3.1/bits/stl_vector.h **** 	  _M_initialize_dispatch(__first, __last, _Integral());
 290:d:/github/AIOT_WORKSHOP/AIoT_MT2503AVE_SDK/11CW1418SP4_03_CORETEK03AE_11C_V1_GPRS_MMI/Tools/MinGW/include/c++/3.3.1/bits/stl_vector.h **** 	}
 291:d:/github/AIOT_WORKSHOP/AIoT_MT2503AVE_SDK/11CW1418SP4_03_CORETEK03AE_11C_V1_GPRS_MMI/Tools/MinGW/include/c++/3.3.1/bits/stl_vector.h ****       
 292:d:/github/AIOT_WORKSHOP/AIoT_MT2503AVE_SDK/11CW1418SP4_03_CORETEK03AE_11C_V1_GPRS_MMI/Tools/MinGW/include/c++/3.3.1/bits/stl_vector.h ****       /**
 293:d:/github/AIOT_WORKSHOP/AIoT_MT2503AVE_SDK/11CW1418SP4_03_CORETEK03AE_11C_V1_GPRS_MMI/Tools/MinGW/include/c++/3.3.1/bits/stl_vector.h ****        *  The dtor only erases the elements, and note that if the elements
 294:d:/github/AIOT_WORKSHOP/AIoT_MT2503AVE_SDK/11CW1418SP4_03_CORETEK03AE_11C_V1_GPRS_MMI/Tools/MinGW/include/c++/3.3.1/bits/stl_vector.h ****        *  themselves are pointers, the pointed-to memory is not touched in any
 295:d:/github/AIOT_WORKSHOP/AIoT_MT2503AVE_SDK/11CW1418SP4_03_CORETEK03AE_11C_V1_GPRS_MMI/Tools/MinGW/include/c++/3.3.1/bits/stl_vector.h ****        *  way.  Managing the pointer is the user's responsibilty.
 296:d:/github/AIOT_WORKSHOP/AIoT_MT2503AVE_SDK/11CW1418SP4_03_CORETEK03AE_11C_V1_GPRS_MMI/Tools/MinGW/include/c++/3.3.1/bits/stl_vector.h ****        */
 297:d:/github/AIOT_WORKSHOP/AIoT_MT2503AVE_SDK/11CW1418SP4_03_CORETEK03AE_11C_V1_GPRS_MMI/Tools/MinGW/include/c++/3.3.1/bits/stl_vector.h ****       ~vector() { _Destroy(_M_start, _M_finish); }
 298:d:/github/AIOT_WORKSHOP/AIoT_MT2503AVE_SDK/11CW1418SP4_03_CORETEK03AE_11C_V1_GPRS_MMI/Tools/MinGW/include/c++/3.3.1/bits/stl_vector.h ****   
 299:d:/github/AIOT_WORKSHOP/AIoT_MT2503AVE_SDK/11CW1418SP4_03_CORETEK03AE_11C_V1_GPRS_MMI/Tools/MinGW/include/c++/3.3.1/bits/stl_vector.h ****       /**
 300:d:/github/AIOT_WORKSHOP/AIoT_MT2503AVE_SDK/11CW1418SP4_03_CORETEK03AE_11C_V1_GPRS_MMI/Tools/MinGW/include/c++/3.3.1/bits/stl_vector.h ****        *  @brief  %Vector assignment operator.
 301:d:/github/AIOT_WORKSHOP/AIoT_MT2503AVE_SDK/11CW1418SP4_03_CORETEK03AE_11C_V1_GPRS_MMI/Tools/MinGW/include/c++/3.3.1/bits/stl_vector.h ****        *  @param  x  A %vector of identical element and allocator types.
 302:d:/github/AIOT_WORKSHOP/AIoT_MT2503AVE_SDK/11CW1418SP4_03_CORETEK03AE_11C_V1_GPRS_MMI/Tools/MinGW/include/c++/3.3.1/bits/stl_vector.h ****        * 
 303:d:/github/AIOT_WORKSHOP/AIoT_MT2503AVE_SDK/11CW1418SP4_03_CORETEK03AE_11C_V1_GPRS_MMI/Tools/MinGW/include/c++/3.3.1/bits/stl_vector.h ****        *  All the elements of @a x are copied, but any extra memory in
 304:d:/github/AIOT_WORKSHOP/AIoT_MT2503AVE_SDK/11CW1418SP4_03_CORETEK03AE_11C_V1_GPRS_MMI/Tools/MinGW/include/c++/3.3.1/bits/stl_vector.h ****        *  @a x (for fast expansion) will not be copied.  Unlike the
 305:d:/github/AIOT_WORKSHOP/AIoT_MT2503AVE_SDK/11CW1418SP4_03_CORETEK03AE_11C_V1_GPRS_MMI/Tools/MinGW/include/c++/3.3.1/bits/stl_vector.h ****        *  copy constructor, the allocator object is not copied.
 306:d:/github/AIOT_WORKSHOP/AIoT_MT2503AVE_SDK/11CW1418SP4_03_CORETEK03AE_11C_V1_GPRS_MMI/Tools/MinGW/include/c++/3.3.1/bits/stl_vector.h ****        */
 307:d:/github/AIOT_WORKSHOP/AIoT_MT2503AVE_SDK/11CW1418SP4_03_CORETEK03AE_11C_V1_GPRS_MMI/Tools/MinGW/include/c++/3.3.1/bits/stl_vector.h ****       vector&
 308:d:/github/AIOT_WORKSHOP/AIoT_MT2503AVE_SDK/11CW1418SP4_03_CORETEK03AE_11C_V1_GPRS_MMI/Tools/MinGW/include/c++/3.3.1/bits/stl_vector.h ****       operator=(const vector& __x);
 309:d:/github/AIOT_WORKSHOP/AIoT_MT2503AVE_SDK/11CW1418SP4_03_CORETEK03AE_11C_V1_GPRS_MMI/Tools/MinGW/include/c++/3.3.1/bits/stl_vector.h ****   
 310:d:/github/AIOT_WORKSHOP/AIoT_MT2503AVE_SDK/11CW1418SP4_03_CORETEK03AE_11C_V1_GPRS_MMI/Tools/MinGW/include/c++/3.3.1/bits/stl_vector.h ****       /**
 311:d:/github/AIOT_WORKSHOP/AIoT_MT2503AVE_SDK/11CW1418SP4_03_CORETEK03AE_11C_V1_GPRS_MMI/Tools/MinGW/include/c++/3.3.1/bits/stl_vector.h ****        *  @brief  Assigns a given value to a %vector.
 312:d:/github/AIOT_WORKSHOP/AIoT_MT2503AVE_SDK/11CW1418SP4_03_CORETEK03AE_11C_V1_GPRS_MMI/Tools/MinGW/include/c++/3.3.1/bits/stl_vector.h ****        *  @param  n  Number of elements to be assigned.
 313:d:/github/AIOT_WORKSHOP/AIoT_MT2503AVE_SDK/11CW1418SP4_03_CORETEK03AE_11C_V1_GPRS_MMI/Tools/MinGW/include/c++/3.3.1/bits/stl_vector.h ****        *  @param  val  Value to be assigned.
 314:d:/github/AIOT_WORKSHOP/AIoT_MT2503AVE_SDK/11CW1418SP4_03_CORETEK03AE_11C_V1_GPRS_MMI/Tools/MinGW/include/c++/3.3.1/bits/stl_vector.h ****        *
 315:d:/github/AIOT_WORKSHOP/AIoT_MT2503AVE_SDK/11CW1418SP4_03_CORETEK03AE_11C_V1_GPRS_MMI/Tools/MinGW/include/c++/3.3.1/bits/stl_vector.h ****        *  This function fills a %vector with @a n copies of the given
 316:d:/github/AIOT_WORKSHOP/AIoT_MT2503AVE_SDK/11CW1418SP4_03_CORETEK03AE_11C_V1_GPRS_MMI/Tools/MinGW/include/c++/3.3.1/bits/stl_vector.h ****        *  value.  Note that the assignment completely changes the
 317:d:/github/AIOT_WORKSHOP/AIoT_MT2503AVE_SDK/11CW1418SP4_03_CORETEK03AE_11C_V1_GPRS_MMI/Tools/MinGW/include/c++/3.3.1/bits/stl_vector.h ****        *  %vector and that the resulting %vector's size is the same as
 318:d:/github/AIOT_WORKSHOP/AIoT_MT2503AVE_SDK/11CW1418SP4_03_CORETEK03AE_11C_V1_GPRS_MMI/Tools/MinGW/include/c++/3.3.1/bits/stl_vector.h ****        *  the number of elements assigned.  Old data may be lost.
 319:d:/github/AIOT_WORKSHOP/AIoT_MT2503AVE_SDK/11CW1418SP4_03_CORETEK03AE_11C_V1_GPRS_MMI/Tools/MinGW/include/c++/3.3.1/bits/stl_vector.h ****        */
 320:d:/github/AIOT_WORKSHOP/AIoT_MT2503AVE_SDK/11CW1418SP4_03_CORETEK03AE_11C_V1_GPRS_MMI/Tools/MinGW/include/c++/3.3.1/bits/stl_vector.h ****       void
 321:d:/github/AIOT_WORKSHOP/AIoT_MT2503AVE_SDK/11CW1418SP4_03_CORETEK03AE_11C_V1_GPRS_MMI/Tools/MinGW/include/c++/3.3.1/bits/stl_vector.h ****       assign(size_type __n, const value_type& __val) 
 322:d:/github/AIOT_WORKSHOP/AIoT_MT2503AVE_SDK/11CW1418SP4_03_CORETEK03AE_11C_V1_GPRS_MMI/Tools/MinGW/include/c++/3.3.1/bits/stl_vector.h ****       { _M_fill_assign(__n, __val); }
 323:d:/github/AIOT_WORKSHOP/AIoT_MT2503AVE_SDK/11CW1418SP4_03_CORETEK03AE_11C_V1_GPRS_MMI/Tools/MinGW/include/c++/3.3.1/bits/stl_vector.h ****   
 324:d:/github/AIOT_WORKSHOP/AIoT_MT2503AVE_SDK/11CW1418SP4_03_CORETEK03AE_11C_V1_GPRS_MMI/Tools/MinGW/include/c++/3.3.1/bits/stl_vector.h ****       /**
 325:d:/github/AIOT_WORKSHOP/AIoT_MT2503AVE_SDK/11CW1418SP4_03_CORETEK03AE_11C_V1_GPRS_MMI/Tools/MinGW/include/c++/3.3.1/bits/stl_vector.h ****        *  @brief  Assigns a range to a %vector.
 326:d:/github/AIOT_WORKSHOP/AIoT_MT2503AVE_SDK/11CW1418SP4_03_CORETEK03AE_11C_V1_GPRS_MMI/Tools/MinGW/include/c++/3.3.1/bits/stl_vector.h ****        *  @param  first  An input iterator.
 327:d:/github/AIOT_WORKSHOP/AIoT_MT2503AVE_SDK/11CW1418SP4_03_CORETEK03AE_11C_V1_GPRS_MMI/Tools/MinGW/include/c++/3.3.1/bits/stl_vector.h ****        *  @param  last   An input iterator.
 328:d:/github/AIOT_WORKSHOP/AIoT_MT2503AVE_SDK/11CW1418SP4_03_CORETEK03AE_11C_V1_GPRS_MMI/Tools/MinGW/include/c++/3.3.1/bits/stl_vector.h ****        *
 329:d:/github/AIOT_WORKSHOP/AIoT_MT2503AVE_SDK/11CW1418SP4_03_CORETEK03AE_11C_V1_GPRS_MMI/Tools/MinGW/include/c++/3.3.1/bits/stl_vector.h ****        *  This function fills a %vector with copies of the elements in the
 330:d:/github/AIOT_WORKSHOP/AIoT_MT2503AVE_SDK/11CW1418SP4_03_CORETEK03AE_11C_V1_GPRS_MMI/Tools/MinGW/include/c++/3.3.1/bits/stl_vector.h ****        *  range [first,last).
 331:d:/github/AIOT_WORKSHOP/AIoT_MT2503AVE_SDK/11CW1418SP4_03_CORETEK03AE_11C_V1_GPRS_MMI/Tools/MinGW/include/c++/3.3.1/bits/stl_vector.h ****        *
 332:d:/github/AIOT_WORKSHOP/AIoT_MT2503AVE_SDK/11CW1418SP4_03_CORETEK03AE_11C_V1_GPRS_MMI/Tools/MinGW/include/c++/3.3.1/bits/stl_vector.h ****        *  Note that the assignment completely changes the %vector and
 333:d:/github/AIOT_WORKSHOP/AIoT_MT2503AVE_SDK/11CW1418SP4_03_CORETEK03AE_11C_V1_GPRS_MMI/Tools/MinGW/include/c++/3.3.1/bits/stl_vector.h ****        *  that the resulting %vector's size is the same as the number
 334:d:/github/AIOT_WORKSHOP/AIoT_MT2503AVE_SDK/11CW1418SP4_03_CORETEK03AE_11C_V1_GPRS_MMI/Tools/MinGW/include/c++/3.3.1/bits/stl_vector.h ****        *  of elements assigned.  Old data may be lost.
 335:d:/github/AIOT_WORKSHOP/AIoT_MT2503AVE_SDK/11CW1418SP4_03_CORETEK03AE_11C_V1_GPRS_MMI/Tools/MinGW/include/c++/3.3.1/bits/stl_vector.h ****        */
 336:d:/github/AIOT_WORKSHOP/AIoT_MT2503AVE_SDK/11CW1418SP4_03_CORETEK03AE_11C_V1_GPRS_MMI/Tools/MinGW/include/c++/3.3.1/bits/stl_vector.h ****       template<typename _InputIterator>
 337:d:/github/AIOT_WORKSHOP/AIoT_MT2503AVE_SDK/11CW1418SP4_03_CORETEK03AE_11C_V1_GPRS_MMI/Tools/MinGW/include/c++/3.3.1/bits/stl_vector.h ****         void
 338:d:/github/AIOT_WORKSHOP/AIoT_MT2503AVE_SDK/11CW1418SP4_03_CORETEK03AE_11C_V1_GPRS_MMI/Tools/MinGW/include/c++/3.3.1/bits/stl_vector.h ****         assign(_InputIterator __first, _InputIterator __last)
 339:d:/github/AIOT_WORKSHOP/AIoT_MT2503AVE_SDK/11CW1418SP4_03_CORETEK03AE_11C_V1_GPRS_MMI/Tools/MinGW/include/c++/3.3.1/bits/stl_vector.h ****         {
 340:d:/github/AIOT_WORKSHOP/AIoT_MT2503AVE_SDK/11CW1418SP4_03_CORETEK03AE_11C_V1_GPRS_MMI/Tools/MinGW/include/c++/3.3.1/bits/stl_vector.h **** 	  // Check whether it's an integral type.  If so, it's not an iterator.
 341:d:/github/AIOT_WORKSHOP/AIoT_MT2503AVE_SDK/11CW1418SP4_03_CORETEK03AE_11C_V1_GPRS_MMI/Tools/MinGW/include/c++/3.3.1/bits/stl_vector.h **** 	  typedef typename _Is_integer<_InputIterator>::_Integral _Integral;
 342:d:/github/AIOT_WORKSHOP/AIoT_MT2503AVE_SDK/11CW1418SP4_03_CORETEK03AE_11C_V1_GPRS_MMI/Tools/MinGW/include/c++/3.3.1/bits/stl_vector.h **** 	  _M_assign_dispatch(__first, __last, _Integral());
 343:d:/github/AIOT_WORKSHOP/AIoT_MT2503AVE_SDK/11CW1418SP4_03_CORETEK03AE_11C_V1_GPRS_MMI/Tools/MinGW/include/c++/3.3.1/bits/stl_vector.h **** 	}
 344:d:/github/AIOT_WORKSHOP/AIoT_MT2503AVE_SDK/11CW1418SP4_03_CORETEK03AE_11C_V1_GPRS_MMI/Tools/MinGW/include/c++/3.3.1/bits/stl_vector.h ****   
GAS LISTING d:/github/AIOT_WORKSHOP/AIoT_MT2503AVE_SDK/11CW1418SP4_03_CORETEK03AE_11C_V1_GPRS_MMI/plutommi/Customer/ResGenerator/gcctmp/ccmAfaaa.s 			page 242


 345:d:/github/AIOT_WORKSHOP/AIoT_MT2503AVE_SDK/11CW1418SP4_03_CORETEK03AE_11C_V1_GPRS_MMI/Tools/MinGW/include/c++/3.3.1/bits/stl_vector.h ****       /// Get a copy of the memory allocation object.
 346:d:/github/AIOT_WORKSHOP/AIoT_MT2503AVE_SDK/11CW1418SP4_03_CORETEK03AE_11C_V1_GPRS_MMI/Tools/MinGW/include/c++/3.3.1/bits/stl_vector.h ****       allocator_type
 347:d:/github/AIOT_WORKSHOP/AIoT_MT2503AVE_SDK/11CW1418SP4_03_CORETEK03AE_11C_V1_GPRS_MMI/Tools/MinGW/include/c++/3.3.1/bits/stl_vector.h ****       get_allocator() const { return _Base::get_allocator(); }
 348:d:/github/AIOT_WORKSHOP/AIoT_MT2503AVE_SDK/11CW1418SP4_03_CORETEK03AE_11C_V1_GPRS_MMI/Tools/MinGW/include/c++/3.3.1/bits/stl_vector.h ****       
 349:d:/github/AIOT_WORKSHOP/AIoT_MT2503AVE_SDK/11CW1418SP4_03_CORETEK03AE_11C_V1_GPRS_MMI/Tools/MinGW/include/c++/3.3.1/bits/stl_vector.h ****       // iterators
 350:d:/github/AIOT_WORKSHOP/AIoT_MT2503AVE_SDK/11CW1418SP4_03_CORETEK03AE_11C_V1_GPRS_MMI/Tools/MinGW/include/c++/3.3.1/bits/stl_vector.h ****       /**
 351:d:/github/AIOT_WORKSHOP/AIoT_MT2503AVE_SDK/11CW1418SP4_03_CORETEK03AE_11C_V1_GPRS_MMI/Tools/MinGW/include/c++/3.3.1/bits/stl_vector.h ****        *  Returns a read/write iterator that points to the first element in the
 352:d:/github/AIOT_WORKSHOP/AIoT_MT2503AVE_SDK/11CW1418SP4_03_CORETEK03AE_11C_V1_GPRS_MMI/Tools/MinGW/include/c++/3.3.1/bits/stl_vector.h ****        *  %vector.  Iteration is done in ordinary element order.
 353:d:/github/AIOT_WORKSHOP/AIoT_MT2503AVE_SDK/11CW1418SP4_03_CORETEK03AE_11C_V1_GPRS_MMI/Tools/MinGW/include/c++/3.3.1/bits/stl_vector.h ****        */
 354:d:/github/AIOT_WORKSHOP/AIoT_MT2503AVE_SDK/11CW1418SP4_03_CORETEK03AE_11C_V1_GPRS_MMI/Tools/MinGW/include/c++/3.3.1/bits/stl_vector.h ****       iterator
 355:d:/github/AIOT_WORKSHOP/AIoT_MT2503AVE_SDK/11CW1418SP4_03_CORETEK03AE_11C_V1_GPRS_MMI/Tools/MinGW/include/c++/3.3.1/bits/stl_vector.h ****       begin() { return iterator (_M_start); }
 356:d:/github/AIOT_WORKSHOP/AIoT_MT2503AVE_SDK/11CW1418SP4_03_CORETEK03AE_11C_V1_GPRS_MMI/Tools/MinGW/include/c++/3.3.1/bits/stl_vector.h ****       
 357:d:/github/AIOT_WORKSHOP/AIoT_MT2503AVE_SDK/11CW1418SP4_03_CORETEK03AE_11C_V1_GPRS_MMI/Tools/MinGW/include/c++/3.3.1/bits/stl_vector.h ****       /**
 358:d:/github/AIOT_WORKSHOP/AIoT_MT2503AVE_SDK/11CW1418SP4_03_CORETEK03AE_11C_V1_GPRS_MMI/Tools/MinGW/include/c++/3.3.1/bits/stl_vector.h ****        *  Returns a read-only (constant) iterator that points to the
 359:d:/github/AIOT_WORKSHOP/AIoT_MT2503AVE_SDK/11CW1418SP4_03_CORETEK03AE_11C_V1_GPRS_MMI/Tools/MinGW/include/c++/3.3.1/bits/stl_vector.h ****        *  first element in the %vector.  Iteration is done in ordinary
 360:d:/github/AIOT_WORKSHOP/AIoT_MT2503AVE_SDK/11CW1418SP4_03_CORETEK03AE_11C_V1_GPRS_MMI/Tools/MinGW/include/c++/3.3.1/bits/stl_vector.h ****        *  element order.
 361:d:/github/AIOT_WORKSHOP/AIoT_MT2503AVE_SDK/11CW1418SP4_03_CORETEK03AE_11C_V1_GPRS_MMI/Tools/MinGW/include/c++/3.3.1/bits/stl_vector.h ****        */
 362:d:/github/AIOT_WORKSHOP/AIoT_MT2503AVE_SDK/11CW1418SP4_03_CORETEK03AE_11C_V1_GPRS_MMI/Tools/MinGW/include/c++/3.3.1/bits/stl_vector.h ****       const_iterator
 363:d:/github/AIOT_WORKSHOP/AIoT_MT2503AVE_SDK/11CW1418SP4_03_CORETEK03AE_11C_V1_GPRS_MMI/Tools/MinGW/include/c++/3.3.1/bits/stl_vector.h ****       begin() const { return const_iterator (_M_start); }
 364:d:/github/AIOT_WORKSHOP/AIoT_MT2503AVE_SDK/11CW1418SP4_03_CORETEK03AE_11C_V1_GPRS_MMI/Tools/MinGW/include/c++/3.3.1/bits/stl_vector.h ****       
 365:d:/github/AIOT_WORKSHOP/AIoT_MT2503AVE_SDK/11CW1418SP4_03_CORETEK03AE_11C_V1_GPRS_MMI/Tools/MinGW/include/c++/3.3.1/bits/stl_vector.h ****       /**
 366:d:/github/AIOT_WORKSHOP/AIoT_MT2503AVE_SDK/11CW1418SP4_03_CORETEK03AE_11C_V1_GPRS_MMI/Tools/MinGW/include/c++/3.3.1/bits/stl_vector.h ****        *  Returns a read/write iterator that points one past the last
 367:d:/github/AIOT_WORKSHOP/AIoT_MT2503AVE_SDK/11CW1418SP4_03_CORETEK03AE_11C_V1_GPRS_MMI/Tools/MinGW/include/c++/3.3.1/bits/stl_vector.h ****        *  element in the %vector.  Iteration is done in ordinary
 368:d:/github/AIOT_WORKSHOP/AIoT_MT2503AVE_SDK/11CW1418SP4_03_CORETEK03AE_11C_V1_GPRS_MMI/Tools/MinGW/include/c++/3.3.1/bits/stl_vector.h ****        *  element order.
 369:d:/github/AIOT_WORKSHOP/AIoT_MT2503AVE_SDK/11CW1418SP4_03_CORETEK03AE_11C_V1_GPRS_MMI/Tools/MinGW/include/c++/3.3.1/bits/stl_vector.h ****        */
 370:d:/github/AIOT_WORKSHOP/AIoT_MT2503AVE_SDK/11CW1418SP4_03_CORETEK03AE_11C_V1_GPRS_MMI/Tools/MinGW/include/c++/3.3.1/bits/stl_vector.h ****       iterator
 371:d:/github/AIOT_WORKSHOP/AIoT_MT2503AVE_SDK/11CW1418SP4_03_CORETEK03AE_11C_V1_GPRS_MMI/Tools/MinGW/include/c++/3.3.1/bits/stl_vector.h ****       end() { return iterator (_M_finish); }
 372:d:/github/AIOT_WORKSHOP/AIoT_MT2503AVE_SDK/11CW1418SP4_03_CORETEK03AE_11C_V1_GPRS_MMI/Tools/MinGW/include/c++/3.3.1/bits/stl_vector.h ****       
 373:d:/github/AIOT_WORKSHOP/AIoT_MT2503AVE_SDK/11CW1418SP4_03_CORETEK03AE_11C_V1_GPRS_MMI/Tools/MinGW/include/c++/3.3.1/bits/stl_vector.h ****       /**
 374:d:/github/AIOT_WORKSHOP/AIoT_MT2503AVE_SDK/11CW1418SP4_03_CORETEK03AE_11C_V1_GPRS_MMI/Tools/MinGW/include/c++/3.3.1/bits/stl_vector.h ****        *  Returns a read-only (constant) iterator that points one past the last
 375:d:/github/AIOT_WORKSHOP/AIoT_MT2503AVE_SDK/11CW1418SP4_03_CORETEK03AE_11C_V1_GPRS_MMI/Tools/MinGW/include/c++/3.3.1/bits/stl_vector.h ****        *  element in the %vector.  Iteration is done in ordinary element order.
 376:d:/github/AIOT_WORKSHOP/AIoT_MT2503AVE_SDK/11CW1418SP4_03_CORETEK03AE_11C_V1_GPRS_MMI/Tools/MinGW/include/c++/3.3.1/bits/stl_vector.h ****        */
 377:d:/github/AIOT_WORKSHOP/AIoT_MT2503AVE_SDK/11CW1418SP4_03_CORETEK03AE_11C_V1_GPRS_MMI/Tools/MinGW/include/c++/3.3.1/bits/stl_vector.h ****       const_iterator
 378:d:/github/AIOT_WORKSHOP/AIoT_MT2503AVE_SDK/11CW1418SP4_03_CORETEK03AE_11C_V1_GPRS_MMI/Tools/MinGW/include/c++/3.3.1/bits/stl_vector.h ****       end() const { return const_iterator (_M_finish); }
 379:d:/github/AIOT_WORKSHOP/AIoT_MT2503AVE_SDK/11CW1418SP4_03_CORETEK03AE_11C_V1_GPRS_MMI/Tools/MinGW/include/c++/3.3.1/bits/stl_vector.h ****       
 380:d:/github/AIOT_WORKSHOP/AIoT_MT2503AVE_SDK/11CW1418SP4_03_CORETEK03AE_11C_V1_GPRS_MMI/Tools/MinGW/include/c++/3.3.1/bits/stl_vector.h ****       /**
 381:d:/github/AIOT_WORKSHOP/AIoT_MT2503AVE_SDK/11CW1418SP4_03_CORETEK03AE_11C_V1_GPRS_MMI/Tools/MinGW/include/c++/3.3.1/bits/stl_vector.h ****        *  Returns a read/write reverse iterator that points to the
 382:d:/github/AIOT_WORKSHOP/AIoT_MT2503AVE_SDK/11CW1418SP4_03_CORETEK03AE_11C_V1_GPRS_MMI/Tools/MinGW/include/c++/3.3.1/bits/stl_vector.h ****        *  last element in the %vector.  Iteration is done in reverse
 383:d:/github/AIOT_WORKSHOP/AIoT_MT2503AVE_SDK/11CW1418SP4_03_CORETEK03AE_11C_V1_GPRS_MMI/Tools/MinGW/include/c++/3.3.1/bits/stl_vector.h ****        *  element order.
 384:d:/github/AIOT_WORKSHOP/AIoT_MT2503AVE_SDK/11CW1418SP4_03_CORETEK03AE_11C_V1_GPRS_MMI/Tools/MinGW/include/c++/3.3.1/bits/stl_vector.h ****        */
 385:d:/github/AIOT_WORKSHOP/AIoT_MT2503AVE_SDK/11CW1418SP4_03_CORETEK03AE_11C_V1_GPRS_MMI/Tools/MinGW/include/c++/3.3.1/bits/stl_vector.h ****       reverse_iterator
 386:d:/github/AIOT_WORKSHOP/AIoT_MT2503AVE_SDK/11CW1418SP4_03_CORETEK03AE_11C_V1_GPRS_MMI/Tools/MinGW/include/c++/3.3.1/bits/stl_vector.h ****       rbegin() { return reverse_iterator(end()); }
 387:d:/github/AIOT_WORKSHOP/AIoT_MT2503AVE_SDK/11CW1418SP4_03_CORETEK03AE_11C_V1_GPRS_MMI/Tools/MinGW/include/c++/3.3.1/bits/stl_vector.h ****       
 388:d:/github/AIOT_WORKSHOP/AIoT_MT2503AVE_SDK/11CW1418SP4_03_CORETEK03AE_11C_V1_GPRS_MMI/Tools/MinGW/include/c++/3.3.1/bits/stl_vector.h ****       /**
 389:d:/github/AIOT_WORKSHOP/AIoT_MT2503AVE_SDK/11CW1418SP4_03_CORETEK03AE_11C_V1_GPRS_MMI/Tools/MinGW/include/c++/3.3.1/bits/stl_vector.h ****        *  Returns a read-only (constant) reverse iterator that points
 390:d:/github/AIOT_WORKSHOP/AIoT_MT2503AVE_SDK/11CW1418SP4_03_CORETEK03AE_11C_V1_GPRS_MMI/Tools/MinGW/include/c++/3.3.1/bits/stl_vector.h ****        *  to the last element in the %vector.  Iteration is done in
 391:d:/github/AIOT_WORKSHOP/AIoT_MT2503AVE_SDK/11CW1418SP4_03_CORETEK03AE_11C_V1_GPRS_MMI/Tools/MinGW/include/c++/3.3.1/bits/stl_vector.h ****        *  reverse element order.
 392:d:/github/AIOT_WORKSHOP/AIoT_MT2503AVE_SDK/11CW1418SP4_03_CORETEK03AE_11C_V1_GPRS_MMI/Tools/MinGW/include/c++/3.3.1/bits/stl_vector.h ****        */
 393:d:/github/AIOT_WORKSHOP/AIoT_MT2503AVE_SDK/11CW1418SP4_03_CORETEK03AE_11C_V1_GPRS_MMI/Tools/MinGW/include/c++/3.3.1/bits/stl_vector.h ****       const_reverse_iterator
 394:d:/github/AIOT_WORKSHOP/AIoT_MT2503AVE_SDK/11CW1418SP4_03_CORETEK03AE_11C_V1_GPRS_MMI/Tools/MinGW/include/c++/3.3.1/bits/stl_vector.h ****       rbegin() const { return const_reverse_iterator(end()); }
 395:d:/github/AIOT_WORKSHOP/AIoT_MT2503AVE_SDK/11CW1418SP4_03_CORETEK03AE_11C_V1_GPRS_MMI/Tools/MinGW/include/c++/3.3.1/bits/stl_vector.h ****       
 396:d:/github/AIOT_WORKSHOP/AIoT_MT2503AVE_SDK/11CW1418SP4_03_CORETEK03AE_11C_V1_GPRS_MMI/Tools/MinGW/include/c++/3.3.1/bits/stl_vector.h ****       /**
 397:d:/github/AIOT_WORKSHOP/AIoT_MT2503AVE_SDK/11CW1418SP4_03_CORETEK03AE_11C_V1_GPRS_MMI/Tools/MinGW/include/c++/3.3.1/bits/stl_vector.h ****        *  Returns a read/write reverse iterator that points to one before the
 398:d:/github/AIOT_WORKSHOP/AIoT_MT2503AVE_SDK/11CW1418SP4_03_CORETEK03AE_11C_V1_GPRS_MMI/Tools/MinGW/include/c++/3.3.1/bits/stl_vector.h ****        *  first element in the %vector.  Iteration is done in reverse element
 399:d:/github/AIOT_WORKSHOP/AIoT_MT2503AVE_SDK/11CW1418SP4_03_CORETEK03AE_11C_V1_GPRS_MMI/Tools/MinGW/include/c++/3.3.1/bits/stl_vector.h ****        *  order.
 400:d:/github/AIOT_WORKSHOP/AIoT_MT2503AVE_SDK/11CW1418SP4_03_CORETEK03AE_11C_V1_GPRS_MMI/Tools/MinGW/include/c++/3.3.1/bits/stl_vector.h ****        */
 401:d:/github/AIOT_WORKSHOP/AIoT_MT2503AVE_SDK/11CW1418SP4_03_CORETEK03AE_11C_V1_GPRS_MMI/Tools/MinGW/include/c++/3.3.1/bits/stl_vector.h ****       reverse_iterator
GAS LISTING d:/github/AIOT_WORKSHOP/AIoT_MT2503AVE_SDK/11CW1418SP4_03_CORETEK03AE_11C_V1_GPRS_MMI/plutommi/Customer/ResGenerator/gcctmp/ccmAfaaa.s 			page 243


 402:d:/github/AIOT_WORKSHOP/AIoT_MT2503AVE_SDK/11CW1418SP4_03_CORETEK03AE_11C_V1_GPRS_MMI/Tools/MinGW/include/c++/3.3.1/bits/stl_vector.h ****       rend() { return reverse_iterator(begin()); }
 403:d:/github/AIOT_WORKSHOP/AIoT_MT2503AVE_SDK/11CW1418SP4_03_CORETEK03AE_11C_V1_GPRS_MMI/Tools/MinGW/include/c++/3.3.1/bits/stl_vector.h ****       
 404:d:/github/AIOT_WORKSHOP/AIoT_MT2503AVE_SDK/11CW1418SP4_03_CORETEK03AE_11C_V1_GPRS_MMI/Tools/MinGW/include/c++/3.3.1/bits/stl_vector.h ****       /**
 405:d:/github/AIOT_WORKSHOP/AIoT_MT2503AVE_SDK/11CW1418SP4_03_CORETEK03AE_11C_V1_GPRS_MMI/Tools/MinGW/include/c++/3.3.1/bits/stl_vector.h ****        *  Returns a read-only (constant) reverse iterator that points
 406:d:/github/AIOT_WORKSHOP/AIoT_MT2503AVE_SDK/11CW1418SP4_03_CORETEK03AE_11C_V1_GPRS_MMI/Tools/MinGW/include/c++/3.3.1/bits/stl_vector.h ****        *  to one before the first element in the %vector.  Iteration
 407:d:/github/AIOT_WORKSHOP/AIoT_MT2503AVE_SDK/11CW1418SP4_03_CORETEK03AE_11C_V1_GPRS_MMI/Tools/MinGW/include/c++/3.3.1/bits/stl_vector.h ****        *  is done in reverse element order.
 408:d:/github/AIOT_WORKSHOP/AIoT_MT2503AVE_SDK/11CW1418SP4_03_CORETEK03AE_11C_V1_GPRS_MMI/Tools/MinGW/include/c++/3.3.1/bits/stl_vector.h ****        */
 409:d:/github/AIOT_WORKSHOP/AIoT_MT2503AVE_SDK/11CW1418SP4_03_CORETEK03AE_11C_V1_GPRS_MMI/Tools/MinGW/include/c++/3.3.1/bits/stl_vector.h ****       const_reverse_iterator
 410:d:/github/AIOT_WORKSHOP/AIoT_MT2503AVE_SDK/11CW1418SP4_03_CORETEK03AE_11C_V1_GPRS_MMI/Tools/MinGW/include/c++/3.3.1/bits/stl_vector.h ****       rend() const { return const_reverse_iterator(begin()); }
 411:d:/github/AIOT_WORKSHOP/AIoT_MT2503AVE_SDK/11CW1418SP4_03_CORETEK03AE_11C_V1_GPRS_MMI/Tools/MinGW/include/c++/3.3.1/bits/stl_vector.h ****   
 412:d:/github/AIOT_WORKSHOP/AIoT_MT2503AVE_SDK/11CW1418SP4_03_CORETEK03AE_11C_V1_GPRS_MMI/Tools/MinGW/include/c++/3.3.1/bits/stl_vector.h ****       // [23.2.4.2] capacity
 413:d:/github/AIOT_WORKSHOP/AIoT_MT2503AVE_SDK/11CW1418SP4_03_CORETEK03AE_11C_V1_GPRS_MMI/Tools/MinGW/include/c++/3.3.1/bits/stl_vector.h ****       /**  Returns the number of elements in the %vector.  */
 414:d:/github/AIOT_WORKSHOP/AIoT_MT2503AVE_SDK/11CW1418SP4_03_CORETEK03AE_11C_V1_GPRS_MMI/Tools/MinGW/include/c++/3.3.1/bits/stl_vector.h ****       size_type
 415:d:/github/AIOT_WORKSHOP/AIoT_MT2503AVE_SDK/11CW1418SP4_03_CORETEK03AE_11C_V1_GPRS_MMI/Tools/MinGW/include/c++/3.3.1/bits/stl_vector.h ****       size() const { return size_type(end() - begin()); }
 10087              	LM803:
 10088 0000 55       		pushl	%ebp
 10089 0001 89E5     		movl	%esp, %ebp
 10090 0003 53       		pushl	%ebx
 10091 0004 83EC14   		subl	$20, %esp
 10093              	LM804:
 10094              	LBB98:
 10095 0007 8B4508   		movl	8(%ebp), %eax
 10096 000a 890424   		movl	%eax, (%esp)
 10097 000d E8000000 		call	__ZNKSt6vectorIP15ResFileGenParamSaIS1_EE5beginEv
 10097      00
 10098 0012 8945F8   		movl	%eax, -8(%ebp)
 10099 0015 8D5DF8   		leal	-8(%ebp), %ebx
 10100 0018 8B4508   		movl	8(%ebp), %eax
 10101 001b 890424   		movl	%eax, (%esp)
 10102 001e E8000000 		call	__ZNKSt6vectorIP15ResFileGenParamSaIS1_EE3endEv
 10102      00
 10103 0023 8945F4   		movl	%eax, -12(%ebp)
 10104 0026 8D45F4   		leal	-12(%ebp), %eax
 10105 0029 895C2404 		movl	%ebx, 4(%esp)
 10106 002d 890424   		movl	%eax, (%esp)
 10107 0030 E8000000 		call	__ZN9__gnu_cxxmiIPKP15ResFileGenParamS4_St6vectorIS2_SaIS2_EEEENS_17__normal_iteratorIT_T1_E1
 10107      00
 10108 0035 83C414   		addl	$20, %esp
 10109 0038 5B       		popl	%ebx
 10110 0039 5D       		popl	%ebp
 10111 003a C3       		ret
 10112              	LBE98:
 10113              	Lscope42:
 10115 003b 90       		.section	.text$_ZNSt6vectorIP15ResFileGenParamSaIS1_EEixEj,"x"
 10116              		.linkonce discard
 10117              		.align 2
 10121              	.globl __ZNSt6vectorIP15ResFileGenParamSaIS1_EEixEj
 10123              	__ZNSt6vectorIP15ResFileGenParamSaIS1_EEixEj:
 416:d:/github/AIOT_WORKSHOP/AIoT_MT2503AVE_SDK/11CW1418SP4_03_CORETEK03AE_11C_V1_GPRS_MMI/Tools/MinGW/include/c++/3.3.1/bits/stl_vector.h ****       
 417:d:/github/AIOT_WORKSHOP/AIoT_MT2503AVE_SDK/11CW1418SP4_03_CORETEK03AE_11C_V1_GPRS_MMI/Tools/MinGW/include/c++/3.3.1/bits/stl_vector.h ****       /**  Returns the size() of the largest possible %vector.  */
 418:d:/github/AIOT_WORKSHOP/AIoT_MT2503AVE_SDK/11CW1418SP4_03_CORETEK03AE_11C_V1_GPRS_MMI/Tools/MinGW/include/c++/3.3.1/bits/stl_vector.h ****       size_type
 419:d:/github/AIOT_WORKSHOP/AIoT_MT2503AVE_SDK/11CW1418SP4_03_CORETEK03AE_11C_V1_GPRS_MMI/Tools/MinGW/include/c++/3.3.1/bits/stl_vector.h ****       max_size() const { return size_type(-1) / sizeof(value_type); }
 420:d:/github/AIOT_WORKSHOP/AIoT_MT2503AVE_SDK/11CW1418SP4_03_CORETEK03AE_11C_V1_GPRS_MMI/Tools/MinGW/include/c++/3.3.1/bits/stl_vector.h ****       
 421:d:/github/AIOT_WORKSHOP/AIoT_MT2503AVE_SDK/11CW1418SP4_03_CORETEK03AE_11C_V1_GPRS_MMI/Tools/MinGW/include/c++/3.3.1/bits/stl_vector.h ****       /**
 422:d:/github/AIOT_WORKSHOP/AIoT_MT2503AVE_SDK/11CW1418SP4_03_CORETEK03AE_11C_V1_GPRS_MMI/Tools/MinGW/include/c++/3.3.1/bits/stl_vector.h ****        *  @brief  Resizes the %vector to the specified number of elements.
 423:d:/github/AIOT_WORKSHOP/AIoT_MT2503AVE_SDK/11CW1418SP4_03_CORETEK03AE_11C_V1_GPRS_MMI/Tools/MinGW/include/c++/3.3.1/bits/stl_vector.h ****        *  @param  new_size  Number of elements the %vector should contain.
 424:d:/github/AIOT_WORKSHOP/AIoT_MT2503AVE_SDK/11CW1418SP4_03_CORETEK03AE_11C_V1_GPRS_MMI/Tools/MinGW/include/c++/3.3.1/bits/stl_vector.h ****        *  @param  x  Data with which new elements should be populated.
GAS LISTING d:/github/AIOT_WORKSHOP/AIoT_MT2503AVE_SDK/11CW1418SP4_03_CORETEK03AE_11C_V1_GPRS_MMI/plutommi/Customer/ResGenerator/gcctmp/ccmAfaaa.s 			page 244


 425:d:/github/AIOT_WORKSHOP/AIoT_MT2503AVE_SDK/11CW1418SP4_03_CORETEK03AE_11C_V1_GPRS_MMI/Tools/MinGW/include/c++/3.3.1/bits/stl_vector.h ****        *
 426:d:/github/AIOT_WORKSHOP/AIoT_MT2503AVE_SDK/11CW1418SP4_03_CORETEK03AE_11C_V1_GPRS_MMI/Tools/MinGW/include/c++/3.3.1/bits/stl_vector.h ****        *  This function will %resize the %vector to the specified
 427:d:/github/AIOT_WORKSHOP/AIoT_MT2503AVE_SDK/11CW1418SP4_03_CORETEK03AE_11C_V1_GPRS_MMI/Tools/MinGW/include/c++/3.3.1/bits/stl_vector.h ****        *  number of elements.  If the number is smaller than the
 428:d:/github/AIOT_WORKSHOP/AIoT_MT2503AVE_SDK/11CW1418SP4_03_CORETEK03AE_11C_V1_GPRS_MMI/Tools/MinGW/include/c++/3.3.1/bits/stl_vector.h ****        *  %vector's current size the %vector is truncated, otherwise
 429:d:/github/AIOT_WORKSHOP/AIoT_MT2503AVE_SDK/11CW1418SP4_03_CORETEK03AE_11C_V1_GPRS_MMI/Tools/MinGW/include/c++/3.3.1/bits/stl_vector.h ****        *  the %vector is extended and new elements are populated with
 430:d:/github/AIOT_WORKSHOP/AIoT_MT2503AVE_SDK/11CW1418SP4_03_CORETEK03AE_11C_V1_GPRS_MMI/Tools/MinGW/include/c++/3.3.1/bits/stl_vector.h ****        *  given data.
 431:d:/github/AIOT_WORKSHOP/AIoT_MT2503AVE_SDK/11CW1418SP4_03_CORETEK03AE_11C_V1_GPRS_MMI/Tools/MinGW/include/c++/3.3.1/bits/stl_vector.h ****        */
 432:d:/github/AIOT_WORKSHOP/AIoT_MT2503AVE_SDK/11CW1418SP4_03_CORETEK03AE_11C_V1_GPRS_MMI/Tools/MinGW/include/c++/3.3.1/bits/stl_vector.h ****       void
 433:d:/github/AIOT_WORKSHOP/AIoT_MT2503AVE_SDK/11CW1418SP4_03_CORETEK03AE_11C_V1_GPRS_MMI/Tools/MinGW/include/c++/3.3.1/bits/stl_vector.h ****       resize(size_type __new_size, const value_type& __x)
 434:d:/github/AIOT_WORKSHOP/AIoT_MT2503AVE_SDK/11CW1418SP4_03_CORETEK03AE_11C_V1_GPRS_MMI/Tools/MinGW/include/c++/3.3.1/bits/stl_vector.h ****       {
 435:d:/github/AIOT_WORKSHOP/AIoT_MT2503AVE_SDK/11CW1418SP4_03_CORETEK03AE_11C_V1_GPRS_MMI/Tools/MinGW/include/c++/3.3.1/bits/stl_vector.h **** 	if (__new_size < size())
 436:d:/github/AIOT_WORKSHOP/AIoT_MT2503AVE_SDK/11CW1418SP4_03_CORETEK03AE_11C_V1_GPRS_MMI/Tools/MinGW/include/c++/3.3.1/bits/stl_vector.h **** 	  erase(begin() + __new_size, end());
 437:d:/github/AIOT_WORKSHOP/AIoT_MT2503AVE_SDK/11CW1418SP4_03_CORETEK03AE_11C_V1_GPRS_MMI/Tools/MinGW/include/c++/3.3.1/bits/stl_vector.h **** 	else
 438:d:/github/AIOT_WORKSHOP/AIoT_MT2503AVE_SDK/11CW1418SP4_03_CORETEK03AE_11C_V1_GPRS_MMI/Tools/MinGW/include/c++/3.3.1/bits/stl_vector.h **** 	  insert(end(), __new_size - size(), __x);
 439:d:/github/AIOT_WORKSHOP/AIoT_MT2503AVE_SDK/11CW1418SP4_03_CORETEK03AE_11C_V1_GPRS_MMI/Tools/MinGW/include/c++/3.3.1/bits/stl_vector.h ****       }
 440:d:/github/AIOT_WORKSHOP/AIoT_MT2503AVE_SDK/11CW1418SP4_03_CORETEK03AE_11C_V1_GPRS_MMI/Tools/MinGW/include/c++/3.3.1/bits/stl_vector.h ****       
 441:d:/github/AIOT_WORKSHOP/AIoT_MT2503AVE_SDK/11CW1418SP4_03_CORETEK03AE_11C_V1_GPRS_MMI/Tools/MinGW/include/c++/3.3.1/bits/stl_vector.h ****       /**
 442:d:/github/AIOT_WORKSHOP/AIoT_MT2503AVE_SDK/11CW1418SP4_03_CORETEK03AE_11C_V1_GPRS_MMI/Tools/MinGW/include/c++/3.3.1/bits/stl_vector.h ****        *  @brief  Resizes the %vector to the specified number of elements.
 443:d:/github/AIOT_WORKSHOP/AIoT_MT2503AVE_SDK/11CW1418SP4_03_CORETEK03AE_11C_V1_GPRS_MMI/Tools/MinGW/include/c++/3.3.1/bits/stl_vector.h ****        *  @param  new_size  Number of elements the %vector should contain.
 444:d:/github/AIOT_WORKSHOP/AIoT_MT2503AVE_SDK/11CW1418SP4_03_CORETEK03AE_11C_V1_GPRS_MMI/Tools/MinGW/include/c++/3.3.1/bits/stl_vector.h ****        *
 445:d:/github/AIOT_WORKSHOP/AIoT_MT2503AVE_SDK/11CW1418SP4_03_CORETEK03AE_11C_V1_GPRS_MMI/Tools/MinGW/include/c++/3.3.1/bits/stl_vector.h ****        *  This function will resize the %vector to the specified
 446:d:/github/AIOT_WORKSHOP/AIoT_MT2503AVE_SDK/11CW1418SP4_03_CORETEK03AE_11C_V1_GPRS_MMI/Tools/MinGW/include/c++/3.3.1/bits/stl_vector.h ****        *  number of elements.  If the number is smaller than the
 447:d:/github/AIOT_WORKSHOP/AIoT_MT2503AVE_SDK/11CW1418SP4_03_CORETEK03AE_11C_V1_GPRS_MMI/Tools/MinGW/include/c++/3.3.1/bits/stl_vector.h ****        *  %vector's current size the %vector is truncated, otherwise
 448:d:/github/AIOT_WORKSHOP/AIoT_MT2503AVE_SDK/11CW1418SP4_03_CORETEK03AE_11C_V1_GPRS_MMI/Tools/MinGW/include/c++/3.3.1/bits/stl_vector.h ****        *  the %vector is extended and new elements are
 449:d:/github/AIOT_WORKSHOP/AIoT_MT2503AVE_SDK/11CW1418SP4_03_CORETEK03AE_11C_V1_GPRS_MMI/Tools/MinGW/include/c++/3.3.1/bits/stl_vector.h ****        *  default-constructed.
 450:d:/github/AIOT_WORKSHOP/AIoT_MT2503AVE_SDK/11CW1418SP4_03_CORETEK03AE_11C_V1_GPRS_MMI/Tools/MinGW/include/c++/3.3.1/bits/stl_vector.h ****        */
 451:d:/github/AIOT_WORKSHOP/AIoT_MT2503AVE_SDK/11CW1418SP4_03_CORETEK03AE_11C_V1_GPRS_MMI/Tools/MinGW/include/c++/3.3.1/bits/stl_vector.h ****       void
 452:d:/github/AIOT_WORKSHOP/AIoT_MT2503AVE_SDK/11CW1418SP4_03_CORETEK03AE_11C_V1_GPRS_MMI/Tools/MinGW/include/c++/3.3.1/bits/stl_vector.h ****       resize(size_type __new_size) { resize(__new_size, value_type()); }
 453:d:/github/AIOT_WORKSHOP/AIoT_MT2503AVE_SDK/11CW1418SP4_03_CORETEK03AE_11C_V1_GPRS_MMI/Tools/MinGW/include/c++/3.3.1/bits/stl_vector.h ****       
 454:d:/github/AIOT_WORKSHOP/AIoT_MT2503AVE_SDK/11CW1418SP4_03_CORETEK03AE_11C_V1_GPRS_MMI/Tools/MinGW/include/c++/3.3.1/bits/stl_vector.h ****       /**
 455:d:/github/AIOT_WORKSHOP/AIoT_MT2503AVE_SDK/11CW1418SP4_03_CORETEK03AE_11C_V1_GPRS_MMI/Tools/MinGW/include/c++/3.3.1/bits/stl_vector.h ****        *  Returns the total number of elements that the %vector can hold before
 456:d:/github/AIOT_WORKSHOP/AIoT_MT2503AVE_SDK/11CW1418SP4_03_CORETEK03AE_11C_V1_GPRS_MMI/Tools/MinGW/include/c++/3.3.1/bits/stl_vector.h ****        *  needing to allocate more memory.
 457:d:/github/AIOT_WORKSHOP/AIoT_MT2503AVE_SDK/11CW1418SP4_03_CORETEK03AE_11C_V1_GPRS_MMI/Tools/MinGW/include/c++/3.3.1/bits/stl_vector.h ****        */
 458:d:/github/AIOT_WORKSHOP/AIoT_MT2503AVE_SDK/11CW1418SP4_03_CORETEK03AE_11C_V1_GPRS_MMI/Tools/MinGW/include/c++/3.3.1/bits/stl_vector.h ****       size_type
 459:d:/github/AIOT_WORKSHOP/AIoT_MT2503AVE_SDK/11CW1418SP4_03_CORETEK03AE_11C_V1_GPRS_MMI/Tools/MinGW/include/c++/3.3.1/bits/stl_vector.h ****       capacity() const
 460:d:/github/AIOT_WORKSHOP/AIoT_MT2503AVE_SDK/11CW1418SP4_03_CORETEK03AE_11C_V1_GPRS_MMI/Tools/MinGW/include/c++/3.3.1/bits/stl_vector.h ****       { return size_type(const_iterator(_M_end_of_storage) - begin()); }
 461:d:/github/AIOT_WORKSHOP/AIoT_MT2503AVE_SDK/11CW1418SP4_03_CORETEK03AE_11C_V1_GPRS_MMI/Tools/MinGW/include/c++/3.3.1/bits/stl_vector.h ****       
 462:d:/github/AIOT_WORKSHOP/AIoT_MT2503AVE_SDK/11CW1418SP4_03_CORETEK03AE_11C_V1_GPRS_MMI/Tools/MinGW/include/c++/3.3.1/bits/stl_vector.h ****       /**
 463:d:/github/AIOT_WORKSHOP/AIoT_MT2503AVE_SDK/11CW1418SP4_03_CORETEK03AE_11C_V1_GPRS_MMI/Tools/MinGW/include/c++/3.3.1/bits/stl_vector.h ****        *  Returns true if the %vector is empty.  (Thus begin() would
 464:d:/github/AIOT_WORKSHOP/AIoT_MT2503AVE_SDK/11CW1418SP4_03_CORETEK03AE_11C_V1_GPRS_MMI/Tools/MinGW/include/c++/3.3.1/bits/stl_vector.h ****        *  equal end().)
 465:d:/github/AIOT_WORKSHOP/AIoT_MT2503AVE_SDK/11CW1418SP4_03_CORETEK03AE_11C_V1_GPRS_MMI/Tools/MinGW/include/c++/3.3.1/bits/stl_vector.h ****        */
 466:d:/github/AIOT_WORKSHOP/AIoT_MT2503AVE_SDK/11CW1418SP4_03_CORETEK03AE_11C_V1_GPRS_MMI/Tools/MinGW/include/c++/3.3.1/bits/stl_vector.h ****       bool
 467:d:/github/AIOT_WORKSHOP/AIoT_MT2503AVE_SDK/11CW1418SP4_03_CORETEK03AE_11C_V1_GPRS_MMI/Tools/MinGW/include/c++/3.3.1/bits/stl_vector.h ****       empty() const { return begin() == end(); }
 468:d:/github/AIOT_WORKSHOP/AIoT_MT2503AVE_SDK/11CW1418SP4_03_CORETEK03AE_11C_V1_GPRS_MMI/Tools/MinGW/include/c++/3.3.1/bits/stl_vector.h ****       
 469:d:/github/AIOT_WORKSHOP/AIoT_MT2503AVE_SDK/11CW1418SP4_03_CORETEK03AE_11C_V1_GPRS_MMI/Tools/MinGW/include/c++/3.3.1/bits/stl_vector.h ****       /**
 470:d:/github/AIOT_WORKSHOP/AIoT_MT2503AVE_SDK/11CW1418SP4_03_CORETEK03AE_11C_V1_GPRS_MMI/Tools/MinGW/include/c++/3.3.1/bits/stl_vector.h ****        *  @brief  Attempt to preallocate enough memory for specified number of
 471:d:/github/AIOT_WORKSHOP/AIoT_MT2503AVE_SDK/11CW1418SP4_03_CORETEK03AE_11C_V1_GPRS_MMI/Tools/MinGW/include/c++/3.3.1/bits/stl_vector.h ****        *          elements.
 472:d:/github/AIOT_WORKSHOP/AIoT_MT2503AVE_SDK/11CW1418SP4_03_CORETEK03AE_11C_V1_GPRS_MMI/Tools/MinGW/include/c++/3.3.1/bits/stl_vector.h ****        *  @param  n  Number of elements required.
 473:d:/github/AIOT_WORKSHOP/AIoT_MT2503AVE_SDK/11CW1418SP4_03_CORETEK03AE_11C_V1_GPRS_MMI/Tools/MinGW/include/c++/3.3.1/bits/stl_vector.h ****        *  @throw  std::length_error  If @a n exceeds @c max_size().
 474:d:/github/AIOT_WORKSHOP/AIoT_MT2503AVE_SDK/11CW1418SP4_03_CORETEK03AE_11C_V1_GPRS_MMI/Tools/MinGW/include/c++/3.3.1/bits/stl_vector.h ****        *
 475:d:/github/AIOT_WORKSHOP/AIoT_MT2503AVE_SDK/11CW1418SP4_03_CORETEK03AE_11C_V1_GPRS_MMI/Tools/MinGW/include/c++/3.3.1/bits/stl_vector.h ****        *  This function attempts to reserve enough memory for the
 476:d:/github/AIOT_WORKSHOP/AIoT_MT2503AVE_SDK/11CW1418SP4_03_CORETEK03AE_11C_V1_GPRS_MMI/Tools/MinGW/include/c++/3.3.1/bits/stl_vector.h ****        *  %vector to hold the specified number of elements.  If the
 477:d:/github/AIOT_WORKSHOP/AIoT_MT2503AVE_SDK/11CW1418SP4_03_CORETEK03AE_11C_V1_GPRS_MMI/Tools/MinGW/include/c++/3.3.1/bits/stl_vector.h ****        *  number requested is more than max_size(), length_error is
 478:d:/github/AIOT_WORKSHOP/AIoT_MT2503AVE_SDK/11CW1418SP4_03_CORETEK03AE_11C_V1_GPRS_MMI/Tools/MinGW/include/c++/3.3.1/bits/stl_vector.h ****        *  thrown.
 479:d:/github/AIOT_WORKSHOP/AIoT_MT2503AVE_SDK/11CW1418SP4_03_CORETEK03AE_11C_V1_GPRS_MMI/Tools/MinGW/include/c++/3.3.1/bits/stl_vector.h ****        *
 480:d:/github/AIOT_WORKSHOP/AIoT_MT2503AVE_SDK/11CW1418SP4_03_CORETEK03AE_11C_V1_GPRS_MMI/Tools/MinGW/include/c++/3.3.1/bits/stl_vector.h ****        *  The advantage of this function is that if optimal code is a
 481:d:/github/AIOT_WORKSHOP/AIoT_MT2503AVE_SDK/11CW1418SP4_03_CORETEK03AE_11C_V1_GPRS_MMI/Tools/MinGW/include/c++/3.3.1/bits/stl_vector.h ****        *  necessity and the user can determine the number of elements
GAS LISTING d:/github/AIOT_WORKSHOP/AIoT_MT2503AVE_SDK/11CW1418SP4_03_CORETEK03AE_11C_V1_GPRS_MMI/plutommi/Customer/ResGenerator/gcctmp/ccmAfaaa.s 			page 245


 482:d:/github/AIOT_WORKSHOP/AIoT_MT2503AVE_SDK/11CW1418SP4_03_CORETEK03AE_11C_V1_GPRS_MMI/Tools/MinGW/include/c++/3.3.1/bits/stl_vector.h ****        *  that will be required, the user can reserve the memory in
 483:d:/github/AIOT_WORKSHOP/AIoT_MT2503AVE_SDK/11CW1418SP4_03_CORETEK03AE_11C_V1_GPRS_MMI/Tools/MinGW/include/c++/3.3.1/bits/stl_vector.h ****        *  %advance, and thus prevent a possible reallocation of memory
 484:d:/github/AIOT_WORKSHOP/AIoT_MT2503AVE_SDK/11CW1418SP4_03_CORETEK03AE_11C_V1_GPRS_MMI/Tools/MinGW/include/c++/3.3.1/bits/stl_vector.h ****        *  and copying of %vector data.
 485:d:/github/AIOT_WORKSHOP/AIoT_MT2503AVE_SDK/11CW1418SP4_03_CORETEK03AE_11C_V1_GPRS_MMI/Tools/MinGW/include/c++/3.3.1/bits/stl_vector.h ****        */
 486:d:/github/AIOT_WORKSHOP/AIoT_MT2503AVE_SDK/11CW1418SP4_03_CORETEK03AE_11C_V1_GPRS_MMI/Tools/MinGW/include/c++/3.3.1/bits/stl_vector.h ****       void
 487:d:/github/AIOT_WORKSHOP/AIoT_MT2503AVE_SDK/11CW1418SP4_03_CORETEK03AE_11C_V1_GPRS_MMI/Tools/MinGW/include/c++/3.3.1/bits/stl_vector.h ****       reserve(size_type __n);
 488:d:/github/AIOT_WORKSHOP/AIoT_MT2503AVE_SDK/11CW1418SP4_03_CORETEK03AE_11C_V1_GPRS_MMI/Tools/MinGW/include/c++/3.3.1/bits/stl_vector.h ****       
 489:d:/github/AIOT_WORKSHOP/AIoT_MT2503AVE_SDK/11CW1418SP4_03_CORETEK03AE_11C_V1_GPRS_MMI/Tools/MinGW/include/c++/3.3.1/bits/stl_vector.h ****       // element access
 490:d:/github/AIOT_WORKSHOP/AIoT_MT2503AVE_SDK/11CW1418SP4_03_CORETEK03AE_11C_V1_GPRS_MMI/Tools/MinGW/include/c++/3.3.1/bits/stl_vector.h ****       /**
 491:d:/github/AIOT_WORKSHOP/AIoT_MT2503AVE_SDK/11CW1418SP4_03_CORETEK03AE_11C_V1_GPRS_MMI/Tools/MinGW/include/c++/3.3.1/bits/stl_vector.h ****        *  @brief  Subscript access to the data contained in the %vector.
 492:d:/github/AIOT_WORKSHOP/AIoT_MT2503AVE_SDK/11CW1418SP4_03_CORETEK03AE_11C_V1_GPRS_MMI/Tools/MinGW/include/c++/3.3.1/bits/stl_vector.h ****        *  @param  n  The index of the element for which data should be accessed.
 493:d:/github/AIOT_WORKSHOP/AIoT_MT2503AVE_SDK/11CW1418SP4_03_CORETEK03AE_11C_V1_GPRS_MMI/Tools/MinGW/include/c++/3.3.1/bits/stl_vector.h ****        *  @return  Read/write reference to data.
 494:d:/github/AIOT_WORKSHOP/AIoT_MT2503AVE_SDK/11CW1418SP4_03_CORETEK03AE_11C_V1_GPRS_MMI/Tools/MinGW/include/c++/3.3.1/bits/stl_vector.h ****        *
 495:d:/github/AIOT_WORKSHOP/AIoT_MT2503AVE_SDK/11CW1418SP4_03_CORETEK03AE_11C_V1_GPRS_MMI/Tools/MinGW/include/c++/3.3.1/bits/stl_vector.h ****        *  This operator allows for easy, array-style, data access.
 496:d:/github/AIOT_WORKSHOP/AIoT_MT2503AVE_SDK/11CW1418SP4_03_CORETEK03AE_11C_V1_GPRS_MMI/Tools/MinGW/include/c++/3.3.1/bits/stl_vector.h ****        *  Note that data access with this operator is unchecked and
 497:d:/github/AIOT_WORKSHOP/AIoT_MT2503AVE_SDK/11CW1418SP4_03_CORETEK03AE_11C_V1_GPRS_MMI/Tools/MinGW/include/c++/3.3.1/bits/stl_vector.h ****        *  out_of_range lookups are not defined. (For checked lookups
 498:d:/github/AIOT_WORKSHOP/AIoT_MT2503AVE_SDK/11CW1418SP4_03_CORETEK03AE_11C_V1_GPRS_MMI/Tools/MinGW/include/c++/3.3.1/bits/stl_vector.h ****        *  see at().)
 499:d:/github/AIOT_WORKSHOP/AIoT_MT2503AVE_SDK/11CW1418SP4_03_CORETEK03AE_11C_V1_GPRS_MMI/Tools/MinGW/include/c++/3.3.1/bits/stl_vector.h ****        */
 500:d:/github/AIOT_WORKSHOP/AIoT_MT2503AVE_SDK/11CW1418SP4_03_CORETEK03AE_11C_V1_GPRS_MMI/Tools/MinGW/include/c++/3.3.1/bits/stl_vector.h ****       reference
 501:d:/github/AIOT_WORKSHOP/AIoT_MT2503AVE_SDK/11CW1418SP4_03_CORETEK03AE_11C_V1_GPRS_MMI/Tools/MinGW/include/c++/3.3.1/bits/stl_vector.h ****       operator[](size_type __n) { return *(begin() + __n); }
 10125              	LM805:
 10126 0000 55       		pushl	%ebp
 10127 0001 89E5     		movl	%esp, %ebp
 10128 0003 83EC18   		subl	$24, %esp
 10130              	LM806:
 10131              	LBB99:
 10132 0006 8B4508   		movl	8(%ebp), %eax
 10133 0009 890424   		movl	%eax, (%esp)
 10134 000c E8000000 		call	__ZNSt6vectorIP15ResFileGenParamSaIS1_EE5beginEv
 10134      00
 10135 0011 8945F8   		movl	%eax, -8(%ebp)
 10136 0014 8D55F8   		leal	-8(%ebp), %edx
 10137 0017 8B450C   		movl	12(%ebp), %eax
 10138 001a 8945F4   		movl	%eax, -12(%ebp)
 10139 001d 8D45F4   		leal	-12(%ebp), %eax
 10140 0020 89442404 		movl	%eax, 4(%esp)
 10141 0024 891424   		movl	%edx, (%esp)
 10142 0027 E8000000 		call	__ZNK9__gnu_cxx17__normal_iteratorIPP15ResFileGenParamSt6vectorIS2_SaIS2_EEEplERKi
 10142      00
 10143 002c 8945FC   		movl	%eax, -4(%ebp)
 10144 002f 8D45FC   		leal	-4(%ebp), %eax
 10145 0032 890424   		movl	%eax, (%esp)
 10146 0035 E8000000 		call	__ZNK9__gnu_cxx17__normal_iteratorIPP15ResFileGenParamSt6vectorIS2_SaIS2_EEEdeEv
 10146      00
 10147 003a C9       		leave
 10148 003b C3       		ret
 10149              	LBE99:
 10150              	Lscope43:
 10152              		.text
 10153              	LC314:
 10154 886b 424D5000 		.ascii "BMP\0"
 10155              	LC315:
 10156 886f 50424D00 		.ascii "PBM\0"
 10157              	LC316:
 10158 8873 4A504700 		.ascii "JPG\0"
 10159              	LC317:
 10160 8877 47494600 		.ascii "GIF\0"
GAS LISTING d:/github/AIOT_WORKSHOP/AIoT_MT2503AVE_SDK/11CW1418SP4_03_CORETEK03AE_11C_V1_GPRS_MMI/plutommi/Customer/ResGenerator/gcctmp/ccmAfaaa.s 			page 246


 10161              	LC318:
 10162 887b 41424D00 		.ascii "ABM\0"
 10163              	LC319:
 10164 887f 41564900 		.ascii "AVI\0"
 10165              	LC320:
 10166 8883 33475000 		.ascii "3GP\0"
 10167              	LC321:
 10168 8887 4D503400 		.ascii "MP4\0"
 10169              	LC322:
 10170 888b 525600   		.ascii "RV\0"
 10171              	LC323:
 10172 888e 524D00   		.ascii "RM\0"
 10173              	LC324:
 10174 8891 524D5642 		.ascii "RMVB\0"
 10174      00
 10175              	LC325:
 10176 8896 504E4700 		.ascii "PNG\0"
 10177              	LC326:
 10178 889a 50504E00 		.ascii "PPN\0"
 10179              	LC327:
 10180 889e 4D334400 		.ascii "M3D\0"
 10181              	LC328:
 10182 88a2 434D5000 		.ascii "CMP\0"
 10183              	LC329:
 10184 88a6 56495300 		.ascii "VIS\0"
 10185              	LC330:
 10186 88aa 53564700 		.ascii "SVG\0"
 10187              	LC331:
 10188 88ae 54544600 		.ascii "TTF\0"
 10189              	LC332:
 10190 88b2 53544600 		.ascii "STF\0"
 10191              	LC333:
 10192 88b6 43434300 		.ascii "CCC\0"
 10193              	LC334:
 10194 88ba 4B545800 		.ascii "KTX\0"
 10195 88be 89F6     		.align 32
 10196              	_image_resource_info:
 10197 88c0 6B880000 		.long	LC314
 10198 88c4 01       		.byte	1
 10199 88c5 000000   		.space 3
 10200 88c8 6F880000 		.long	LC315
 10201 88cc 04       		.byte	4
 10202 88cd 000000   		.space 3
 10203 88d0 73880000 		.long	LC316
 10204 88d4 09       		.byte	9
 10205 88d5 000000   		.space 3
 10206 88d8 77880000 		.long	LC317
 10207 88dc 03       		.byte	3
 10208 88dd 000000   		.space 3
 10209 88e0 7B880000 		.long	LC318
 10210 88e4 28       		.byte	40
 10211 88e5 000000   		.space 3
 10212 88e8 7F880000 		.long	LC319
 10213 88ec 0C       		.byte	12
 10214 88ed 000000   		.space 3
 10215 88f0 83880000 		.long	LC320
 10216 88f4 0E       		.byte	14
GAS LISTING d:/github/AIOT_WORKSHOP/AIoT_MT2503AVE_SDK/11CW1418SP4_03_CORETEK03AE_11C_V1_GPRS_MMI/plutommi/Customer/ResGenerator/gcctmp/ccmAfaaa.s 			page 247


 10217 88f5 000000   		.space 3
 10218 88f8 87880000 		.long	LC321
 10219 88fc 10       		.byte	16
 10220 88fd 000000   		.space 3
 10221 8900 8B880000 		.long	LC322
 10222 8904 4A       		.byte	74
 10223 8905 000000   		.space 3
 10224 8908 8E880000 		.long	LC323
 10225 890c 4C       		.byte	76
 10226 890d 000000   		.space 3
 10227 8910 91880000 		.long	LC324
 10228 8914 4E       		.byte	78
 10229 8915 000000   		.space 3
 10230 8918 96880000 		.long	LC325
 10231 891c 13       		.byte	19
 10232 891d 000000   		.space 3
 10233 8920 9A880000 		.long	LC326
 10234 8924 48       		.byte	72
 10235 8925 000000   		.space 3
 10236 8928 9E880000 		.long	LC327
 10237 892c 19       		.byte	25
 10238 892d 000000   		.space 3
 10239 8930 A2880000 		.long	LC328
 10240 8934 1D       		.byte	29
 10241 8935 000000   		.space 3
 10242 8938 A6880000 		.long	LC329
 10243 893c 31       		.byte	49
 10244 893d 000000   		.space 3
 10245 8940 AA880000 		.long	LC330
 10246 8944 1B       		.byte	27
 10247 8945 000000   		.space 3
 10248 8948 AE880000 		.long	LC331
 10249 894c 49       		.byte	73
 10250 894d 000000   		.space 3
 10251 8950 B2880000 		.long	LC332
 10252 8954 49       		.byte	73
 10253 8955 000000   		.space 3
 10254 8958 B6880000 		.long	LC333
 10255 895c 49       		.byte	73
 10256 895d 000000   		.space 3
 10257 8960 BA880000 		.long	LC334
 10258 8964 43       		.byte	67
 10259 8965 000000   		.space 3
 10260              	_HEADER:
 10261 8968 5F5F616C 		.ascii "__align(4)\0"
 10261      69676E28 
 10261      342900
 10262              	_REP_HEADER:
 10263 8973 65787465 		.ascii "extern \0"
 10263      726E2000 
 10264              	.globl __ZNSt15basic_streambufIcSt11char_traitsIcEE13_S_pback_sizeE
 10265              		.section	.rdata$_ZNSt15basic_streambufIcSt11char_traitsIcEE13_S_pback_sizeE,""
 10266              		.linkonce same_size
 10267              		.align 4
 10268              	__ZNSt15basic_streambufIcSt11char_traitsIcEE13_S_pback_sizeE:
 10269 0000 01000000 		.long	1
 10270              		.section	.text$_ZN21AudioParamTextFileDAOC1Ev,"x"
GAS LISTING d:/github/AIOT_WORKSHOP/AIoT_MT2503AVE_SDK/11CW1418SP4_03_CORETEK03AE_11C_V1_GPRS_MMI/plutommi/Customer/ResGenerator/gcctmp/ccmAfaaa.s 			page 248


 10271              		.linkonce discard
 10272              		.align 2
 10275              	.globl __ZN21AudioParamTextFileDAOC1Ev
 10277              	__ZN21AudioParamTextFileDAOC1Ev:
 10279              	Ltext5:
 10281              	LM807:
 10282 0000 55       		pushl	%ebp
 10283 0001 89E5     		movl	%esp, %ebp
 10284 0003 83EC08   		subl	$8, %esp
 10286              	LM808:
 10287              	LBB100:
 10288 0006 8B4508   		movl	8(%ebp), %eax
 10289 0009 890424   		movl	%eax, (%esp)
 10290 000c E8000000 		call	__ZN16ParamTextFileDAOC2Ev
 10290      00
 10291 0011 8B4508   		movl	8(%ebp), %eax
 10292 0014 C7000800 		movl	$__ZTV21AudioParamTextFileDAO+8, (%eax)
 10292      0000
 10293 001a C9       		leave
 10294 001b C3       		ret
 10295              	L378:
 10296              	L377:
 10297              	LBE100:
 10298              	Lscope44:
 10300              		.section	.text$_ZN26ResFileGenParamTextFileDAOC1Ev,"x"
 10301              		.linkonce discard
 10302              		.align 2
 10305              	.globl __ZN26ResFileGenParamTextFileDAOC1Ev
 10307              	__ZN26ResFileGenParamTextFileDAOC1Ev:
 10309              	LM809:
 10310 0000 55       		pushl	%ebp
 10311 0001 89E5     		movl	%esp, %ebp
 10313              	LM810:
 10314              	LBB101:
 10315 0003 8B4508   		movl	8(%ebp), %eax
 10316 0006 C7000800 		movl	$__ZTV26ResFileGenParamTextFileDAO+8, (%eax)
 10316      0000
 10317 000c 5D       		popl	%ebp
 10318 000d C3       		ret
 10319              	L381:
 10320              	L380:
 10321              	LBE101:
 10322              	Lscope45:
 10324 000e 9090     		.section	.text$_ZN25OfflineResPopAudioAdaptorC1Ev,"x"
 10325              		.linkonce discard
 10326              		.align 2
 10329              	.globl __ZN25OfflineResPopAudioAdaptorC1Ev
 10331              	__ZN25OfflineResPopAudioAdaptorC1Ev:
 10333              	LM811:
 10334 0000 55       		pushl	%ebp
 10335 0001 89E5     		movl	%esp, %ebp
 10336 0003 83EC08   		subl	$8, %esp
 10338              	LM812:
 10339              	LBB102:
 10340 0006 8B4508   		movl	8(%ebp), %eax
 10341 0009 890424   		movl	%eax, (%esp)
 10342 000c E8000000 		call	__ZN20OfflineResPopAdaptorC2Ev
GAS LISTING d:/github/AIOT_WORKSHOP/AIoT_MT2503AVE_SDK/11CW1418SP4_03_CORETEK03AE_11C_V1_GPRS_MMI/plutommi/Customer/ResGenerator/gcctmp/ccmAfaaa.s 			page 249


 10342      00
 10343 0011 8B4508   		movl	8(%ebp), %eax
 10344 0014 C7000800 		movl	$__ZTV25OfflineResPopAudioAdaptor+8, (%eax)
 10344      0000
 10345 001a C9       		leave
 10346 001b C3       		ret
 10347              	L384:
 10348              	L383:
 10349              	LBE102:
 10350              	Lscope46:
 10352              		.section	.text$_ZN20OfflineResPopService16populateResourceEP13ResParamModelPcP16ParamTextFileDAOP1
 10353              		.linkonce discard
 10354              		.align 2
 10361              	.globl __ZN20OfflineResPopService16populateResourceEP13ResParamModelPcP16ParamTextFileDAOP19Offline
 10363              	__ZN20OfflineResPopService16populateResourceEP13ResParamModelPcP16ParamTextFileDAOP19OfflineResPopu
 10365              	LM813:
 10366 0000 55       		pushl	%ebp
 10367 0001 89E5     		movl	%esp, %ebp
 10368 0003 83EC08   		subl	$8, %esp
 10370              	LM814:
 10371              	LBB103:
 10372 0006 8B4510   		movl	16(%ebp), %eax
 10373 0009 89442404 		movl	%eax, 4(%esp)
 10374 000d 8B450C   		movl	12(%ebp), %eax
 10375 0010 890424   		movl	%eax, (%esp)
 10376 0013 E8000000 		call	__ZN13ResParamModel21setRepositoryFileNameEPc
 10376      00
 10378              	LM815:
 10379 0018 8B450C   		movl	12(%ebp), %eax
 10380 001b 8B10     		movl	(%eax), %edx
 10381 001d 83C218   		addl	$24, %edx
 10382 0020 8B4514   		movl	20(%ebp), %eax
 10383 0023 89442404 		movl	%eax, 4(%esp)
 10384 0027 8B450C   		movl	12(%ebp), %eax
 10385 002a 890424   		movl	%eax, (%esp)
 10386 002d 8B02     		movl	(%edx), %eax
 10387 002f FFD0     		call	*%eax
 10389              	LM816:
 10390 0031 8B4518   		movl	24(%ebp), %eax
 10391 0034 8B10     		movl	(%eax), %edx
 10392 0036 83C204   		addl	$4, %edx
 10393 0039 8B450C   		movl	12(%ebp), %eax
 10394 003c 89442404 		movl	%eax, 4(%esp)
 10395 0040 8B4518   		movl	24(%ebp), %eax
 10396 0043 890424   		movl	%eax, (%esp)
 10397 0046 8B02     		movl	(%edx), %eax
 10398 0048 FFD0     		call	*%eax
 10400              	LM817:
 10401 004a 8B4518   		movl	24(%ebp), %eax
 10402 004d 8B10     		movl	(%eax), %edx
 10403 004f 8B4518   		movl	24(%ebp), %eax
 10404 0052 890424   		movl	%eax, (%esp)
 10405 0055 8B02     		movl	(%edx), %eax
 10406 0057 FFD0     		call	*%eax
 10408              	LM818:
 10409 0059 C9       		leave
 10410 005a C3       		ret
GAS LISTING d:/github/AIOT_WORKSHOP/AIoT_MT2503AVE_SDK/11CW1418SP4_03_CORETEK03AE_11C_V1_GPRS_MMI/plutommi/Customer/ResGenerator/gcctmp/ccmAfaaa.s 			page 250


 10411              	LBE103:
 10412              	Lscope47:
 10414 005b 90       		.section	.text$_ZN24BatchedResFileGenService16generateImageResEPcS0_,"x"
 10415              		.linkonce discard
 10416              		.align 2
 10421              	.globl __ZN24BatchedResFileGenService16generateImageResEPcS0_
 10423              	__ZN24BatchedResFileGenService16generateImageResEPcS0_:
 10425              	LM819:
 10426 0000 55       		pushl	%ebp
 10427 0001 89E5     		movl	%esp, %ebp
 10428 0003 81EC5804 		subl	$1112, %esp
 10428      0000
 10430              	LM820:
 10431              	LBB104:
 10432 0009 C745F400 		movl	$0, -12(%ebp)
 10432      000000
 10434              	LM821:
 10435 0010 C7442408 		movl	$512, 8(%esp)
 10435      00020000 
 10436 0018 8B450C   		movl	12(%ebp), %eax
 10437 001b 89442404 		movl	%eax, 4(%esp)
 10438 001f 8D85E8FD 		leal	-536(%ebp), %eax
 10438      FFFF
 10439 0025 890424   		movl	%eax, (%esp)
 10440 0028 E8000000 		call	_strncpy
 10440      00
 10442              	LM822:
 10443 002d C7442404 		movl	$512, 4(%esp)
 10443      00020000 
 10444 0035 8D85E8FD 		leal	-536(%ebp), %eax
 10444      FFFF
 10445 003b 890424   		movl	%eax, (%esp)
 10446 003e E8000000 		call	_str_upper
 10446      00
 10448              	LM823:
 10449 0043 8B4510   		movl	16(%ebp), %eax
 10450 0046 89442404 		movl	%eax, 4(%esp)
 10451 004a 8B4508   		movl	8(%ebp), %eax
 10452 004d 890424   		movl	%eax, (%esp)
 10453 0050 E8000000 		call	__ZN24BatchedResFileGenService17initResFileOutputEPc
 10453      00
 10454 0055 85C0     		testl	%eax, %eax
 10455 0057 7407     		je	L388
 10457              	LM824:
 10458 0059 C745F4FF 		movl	$-1, -12(%ebp)
 10458      FFFFFF
 10459              	L388:
 10461              	LM825:
 10462 0060 8D85C8FB 		leal	-1080(%ebp), %eax
 10462      FFFF
 10463 0066 890424   		movl	%eax, (%esp)
 10464 0069 E8000000 		call	_initImageProcessData
 10464      00
 10466              	LM826:
 10467 006e 8D85C4FB 		leal	-1084(%ebp), %eax
 10467      FFFF
 10468 0074 890424   		movl	%eax, (%esp)
GAS LISTING d:/github/AIOT_WORKSHOP/AIoT_MT2503AVE_SDK/11CW1418SP4_03_CORETEK03AE_11C_V1_GPRS_MMI/plutommi/Customer/ResGenerator/gcctmp/ccmAfaaa.s 			page 251


 10469 0077 E8000000 		call	_ImageOutStreamInit
 10469      00
 10471              	LM827:
 10472 007c 8B85C4FB 		movl	-1084(%ebp), %eax
 10472      FFFF
 10473 0082 8985CCFD 		movl	%eax, -564(%ebp)
 10473      FFFF
 10475              	LM828:
 10476              	LBB105:
 10477 0088 8D85C8FB 		leal	-1080(%ebp), %eax
 10477      FFFF
 10478 008e 8944240C 		movl	%eax, 12(%esp)
 10479 0092 C7442408 		movl	$0, 8(%esp)
 10479      00000000 
 10480 009a C7442404 		movl	$0, 4(%esp)
 10480      00000000 
 10481 00a2 8D85E8FD 		leal	-536(%ebp), %eax
 10481      FFFF
 10482 00a8 890424   		movl	%eax, (%esp)
 10483 00ab E8000000 		call	_Iload
 10483      00
 10484 00b0 83F801   		cmpl	$1, %eax
 10485 00b3 0F85B100 		jne	L389
 10485      0000
 10487              	LM829:
 10488              	LBB106:
 10489 00b9 C785C0FB 		movl	$LC281, -1088(%ebp)
 10489      FFFFB479 
 10489      0000
 10491              	LM830:
 10492 00c3 C785BCFB 		movl	$0, -1092(%ebp)
 10492      FFFF0000 
 10492      0000
 10494              	LM831:
 10495 00cd C7442404 		movl	$LC282, 4(%esp)
 10495      BF790000 
 10496 00d5 8B85C0FB 		movl	-1088(%ebp), %eax
 10496      FFFF
 10497 00db 890424   		movl	%eax, (%esp)
 10498 00de E8000000 		call	_fopen
 10498      00
 10499 00e3 8985BCFB 		movl	%eax, -1092(%ebp)
 10499      FFFF
 10501              	LM832:
 10502              	L390:
 10503 00e9 83BDBCFB 		cmpl	$0, -1092(%ebp)
 10503      FFFF00
 10504 00f0 7402     		je	L392
 10505 00f2 EB2D     		jmp	L391
 10506              	L392:
 10508              	LM833:
 10509 00f4 C7042432 		movl	$50, (%esp)
 10509      000000
 10510 00fb E8000000 		call	_Sleep@4
 10510      00
 10511 0100 83EC04   		subl	$4, %esp
 10513              	LM834:
GAS LISTING d:/github/AIOT_WORKSHOP/AIoT_MT2503AVE_SDK/11CW1418SP4_03_CORETEK03AE_11C_V1_GPRS_MMI/plutommi/Customer/ResGenerator/gcctmp/ccmAfaaa.s 			page 252


 10514 0103 C7442404 		movl	$LC282, 4(%esp)
 10514      BF790000 
 10515 010b 8B85C0FB 		movl	-1088(%ebp), %eax
 10515      FFFF
 10516 0111 890424   		movl	%eax, (%esp)
 10517 0114 E8000000 		call	_fopen
 10517      00
 10518 0119 8985BCFB 		movl	%eax, -1092(%ebp)
 10518      FFFF
 10519 011f EBC8     		jmp	L390
 10520              	L391:
 10522              	LM835:
 10523 0121 8B85BCFB 		movl	-1092(%ebp), %eax
 10523      FFFF
 10524 0127 89442404 		movl	%eax, 4(%esp)
 10525 012b 8B85C4FB 		movl	-1084(%ebp), %eax
 10525      FFFF
 10526 0131 890424   		movl	%eax, (%esp)
 10527 0134 E8000000 		call	_ImageOutStreamOutputFile
 10527      00
 10529              	LM836:
 10530 0139 8D85C4FB 		leal	-1084(%ebp), %eax
 10530      FFFF
 10531 013f 890424   		movl	%eax, (%esp)
 10532 0142 E8000000 		call	_ImageOutStreamDeinit
 10532      00
 10534              	LM837:
 10535 0147 83BDBCFB 		cmpl	$0, -1092(%ebp)
 10535      FFFF00
 10536 014e 742F     		je	L395
 10537 0150 8B85BCFB 		movl	-1092(%ebp), %eax
 10537      FFFF
 10538 0156 890424   		movl	%eax, (%esp)
 10539 0159 E8000000 		call	_fclose
 10539      00
 10540 015e C785BCFB 		movl	$0, -1092(%ebp)
 10540      FFFF0000 
 10540      0000
 10541              	LBE106:
 10542 0168 EB15     		jmp	L395
 10543              	L389:
 10545              	LM838:
 10546 016a C745F4FF 		movl	$-1, -12(%ebp)
 10546      FFFFFF
 10548              	LM839:
 10549 0171 8D85C4FB 		leal	-1084(%ebp), %eax
 10549      FFFF
 10550 0177 890424   		movl	%eax, (%esp)
 10551 017a E8000000 		call	_ImageOutStreamDeinit
 10551      00
 10552              	L395:
 10554              	LM840:
 10555              	LBE105:
 10556 017f 8B4508   		movl	8(%ebp), %eax
 10557 0182 890424   		movl	%eax, (%esp)
 10558 0185 E8000000 		call	__ZN24BatchedResFileGenService19deInitResFileOutputEv
 10558      00
GAS LISTING d:/github/AIOT_WORKSHOP/AIoT_MT2503AVE_SDK/11CW1418SP4_03_CORETEK03AE_11C_V1_GPRS_MMI/plutommi/Customer/ResGenerator/gcctmp/ccmAfaaa.s 			page 253


 10559 018a 85C0     		testl	%eax, %eax
 10560 018c 7407     		je	L396
 10562              	LM841:
 10563 018e C745F4FF 		movl	$-1, -12(%ebp)
 10563      FFFFFF
 10564              	L396:
 10566              	LM842:
 10567 0195 8B45F4   		movl	-12(%ebp), %eax
 10569              	LM843:
 10570 0198 C9       		leave
 10571 0199 C3       		ret
 10572              	LBE104:
 10584              	Lscope48:
 10586 019a 9090     		.section	.text$_ZN24BatchedResFileGenService15generateFontResEPcS0_,"x"
 10587              		.linkonce discard
 10588              		.align 2
 10593              	.globl __ZN24BatchedResFileGenService15generateFontResEPcS0_
 10595              	__ZN24BatchedResFileGenService15generateFontResEPcS0_:
 10597              	LM844:
 10598 0000 55       		pushl	%ebp
 10599 0001 89E5     		movl	%esp, %ebp
 10600 0003 81EC2802 		subl	$552, %esp
 10600      0000
 10602              	LM845:
 10603              	LBB107:
 10604 0009 C745F400 		movl	$0, -12(%ebp)
 10604      000000
 10606              	LM846:
 10607 0010 C7442408 		movl	$512, 8(%esp)
 10607      00020000 
 10608 0018 8B450C   		movl	12(%ebp), %eax
 10609 001b 89442404 		movl	%eax, 4(%esp)
 10610 001f 8D85E8FD 		leal	-536(%ebp), %eax
 10610      FFFF
 10611 0025 890424   		movl	%eax, (%esp)
 10612 0028 E8000000 		call	_strncpy
 10612      00
 10614              	LM847:
 10615 002d C7442404 		movl	$512, 4(%esp)
 10615      00020000 
 10616 0035 8D85E8FD 		leal	-536(%ebp), %eax
 10616      FFFF
 10617 003b 890424   		movl	%eax, (%esp)
 10618 003e E8000000 		call	_str_upper
 10618      00
 10620              	LM848:
 10621 0043 8B4510   		movl	16(%ebp), %eax
 10622 0046 89442404 		movl	%eax, 4(%esp)
 10623 004a 8B4508   		movl	8(%ebp), %eax
 10624 004d 890424   		movl	%eax, (%esp)
 10625 0050 E8000000 		call	__ZN24BatchedResFileGenService17initResFileOutputEPc
 10625      00
 10626 0055 85C0     		testl	%eax, %eax
 10627 0057 7407     		je	L398
 10629              	LM849:
 10630 0059 C745F4FF 		movl	$-1, -12(%ebp)
 10630      FFFFFF
GAS LISTING d:/github/AIOT_WORKSHOP/AIoT_MT2503AVE_SDK/11CW1418SP4_03_CORETEK03AE_11C_V1_GPRS_MMI/plutommi/Customer/ResGenerator/gcctmp/ccmAfaaa.s 			page 254


 10631              	L398:
 10633              	LM850:
 10634 0060 8D45F2   		leal	-14(%ebp), %eax
 10635 0063 89442404 		movl	%eax, 4(%esp)
 10636 0067 8D85E8FD 		leal	-536(%ebp), %eax
 10636      FFFF
 10637 006d 890424   		movl	%eax, (%esp)
 10638 0070 E8000000 		call	_Fload
 10638      00
 10639 0075 83F801   		cmpl	$1, %eax
 10640 0078 7407     		je	L399
 10642              	LM851:
 10643 007a C745F4FF 		movl	$-1, -12(%ebp)
 10643      FFFFFF
 10644              	L399:
 10646              	LM852:
 10647 0081 8B4508   		movl	8(%ebp), %eax
 10648 0084 890424   		movl	%eax, (%esp)
 10649 0087 E8000000 		call	__ZN24BatchedResFileGenService19deInitResFileOutputEv
 10649      00
 10650 008c 85C0     		testl	%eax, %eax
 10651 008e 7407     		je	L400
 10653              	LM853:
 10654 0090 C745F4FF 		movl	$-1, -12(%ebp)
 10654      FFFFFF
 10655              	L400:
 10657              	LM854:
 10658 0097 8B45F4   		movl	-12(%ebp), %eax
 10660              	LM855:
 10661 009a C9       		leave
 10662 009b C3       		ret
 10663              	LBE107:
 10669              	Lscope49:
 10671              		.section	.text$_ZN24BatchedResFileGenService16generateAudioResEPcS0_,"x"
 10672              		.linkonce discard
 10673              		.align 2
 10678              	.globl __ZN24BatchedResFileGenService16generateAudioResEPcS0_
 10680              	__ZN24BatchedResFileGenService16generateAudioResEPcS0_:
 10682              	LM856:
 10683 0000 55       		pushl	%ebp
 10684 0001 89E5     		movl	%esp, %ebp
 10685 0003 81EC2802 		subl	$552, %esp
 10685      0000
 10687              	LM857:
 10688              	LBB108:
 10689 0009 C745F400 		movl	$0, -12(%ebp)
 10689      000000
 10691              	LM858:
 10692 0010 C7442408 		movl	$512, 8(%esp)
 10692      00020000 
 10693 0018 8B450C   		movl	12(%ebp), %eax
 10694 001b 89442404 		movl	%eax, 4(%esp)
 10695 001f 8D85E8FD 		leal	-536(%ebp), %eax
 10695      FFFF
 10696 0025 890424   		movl	%eax, (%esp)
 10697 0028 E8000000 		call	_strncpy
 10697      00
GAS LISTING d:/github/AIOT_WORKSHOP/AIoT_MT2503AVE_SDK/11CW1418SP4_03_CORETEK03AE_11C_V1_GPRS_MMI/plutommi/Customer/ResGenerator/gcctmp/ccmAfaaa.s 			page 255


 10699              	LM859:
 10700 002d C7442404 		movl	$512, 4(%esp)
 10700      00020000 
 10701 0035 8D85E8FD 		leal	-536(%ebp), %eax
 10701      FFFF
 10702 003b 890424   		movl	%eax, (%esp)
 10703 003e E8000000 		call	_str_upper
 10703      00
 10705              	LM860:
 10706 0043 8B4510   		movl	16(%ebp), %eax
 10707 0046 89442404 		movl	%eax, 4(%esp)
 10708 004a 8B4508   		movl	8(%ebp), %eax
 10709 004d 890424   		movl	%eax, (%esp)
 10710 0050 E8000000 		call	__ZN24BatchedResFileGenService17initResFileOutputEPc
 10710      00
 10711 0055 85C0     		testl	%eax, %eax
 10712 0057 7407     		je	L402
 10714              	LM861:
 10715 0059 C745F4FF 		movl	$-1, -12(%ebp)
 10715      FFFFFF
 10716              	L402:
 10718              	LM862:
 10719 0060 8D45F2   		leal	-14(%ebp), %eax
 10720 0063 89442404 		movl	%eax, 4(%esp)
 10721 0067 8D85E8FD 		leal	-536(%ebp), %eax
 10721      FFFF
 10722 006d 890424   		movl	%eax, (%esp)
 10723 0070 E8000000 		call	_Aload
 10723      00
 10724 0075 83F801   		cmpl	$1, %eax
 10725 0078 7407     		je	L403
 10727              	LM863:
 10728 007a C745F4FF 		movl	$-1, -12(%ebp)
 10728      FFFFFF
 10729              	L403:
 10731              	LM864:
 10732 0081 8B4508   		movl	8(%ebp), %eax
 10733 0084 890424   		movl	%eax, (%esp)
 10734 0087 E8000000 		call	__ZN24BatchedResFileGenService19deInitResFileOutputEv
 10734      00
 10735 008c 85C0     		testl	%eax, %eax
 10736 008e 7407     		je	L404
 10738              	LM865:
 10739 0090 C745F4FF 		movl	$-1, -12(%ebp)
 10739      FFFFFF
 10740              	L404:
 10742              	LM866:
 10743 0097 8B45F4   		movl	-12(%ebp), %eax
 10745              	LM867:
 10746 009a C9       		leave
 10747 009b C3       		ret
 10748              	LBE108:
 10754              	Lscope50:
 10756              		.section	.text$_ZNKSt6vectorIP15ResFileGenParamSaIS1_EE5beginEv,"x"
 10757              		.linkonce discard
 10758              		.align 2
 10761              	.globl __ZNKSt6vectorIP15ResFileGenParamSaIS1_EE5beginEv
GAS LISTING d:/github/AIOT_WORKSHOP/AIoT_MT2503AVE_SDK/11CW1418SP4_03_CORETEK03AE_11C_V1_GPRS_MMI/plutommi/Customer/ResGenerator/gcctmp/ccmAfaaa.s 			page 256


 10763              	__ZNKSt6vectorIP15ResFileGenParamSaIS1_EE5beginEv:
 10765              	Ltext6:
 10767              	LM868:
 10768 0000 55       		pushl	%ebp
 10769 0001 89E5     		movl	%esp, %ebp
 10770 0003 83EC18   		subl	$24, %esp
 10772              	LM869:
 10773              	LBB109:
 10774 0006 8B4508   		movl	8(%ebp), %eax
 10775 0009 8B00     		movl	(%eax), %eax
 10776 000b 8945F8   		movl	%eax, -8(%ebp)
 10777 000e 8D45F8   		leal	-8(%ebp), %eax
 10778 0011 89442404 		movl	%eax, 4(%esp)
 10779 0015 8D45FC   		leal	-4(%ebp), %eax
 10780 0018 890424   		movl	%eax, (%esp)
 10781 001b E8000000 		call	__ZN9__gnu_cxx17__normal_iteratorIPKP15ResFileGenParamSt6vectorIS2_SaIS2_EEEC1ERKS4_
 10781      00
 10782 0020 8B45FC   		movl	-4(%ebp), %eax
 10783 0023 C9       		leave
 10784 0024 C3       		ret
 10785              	LBE109:
 10786              	Lscope51:
 10788 0025 909090   		.section	.text$_ZN9__gnu_cxx17__normal_iteratorIPKP15ResFileGenParamSt6vectorIS2_SaIS2_EEEC1ERKS4_
 10789              		.linkonce discard
 10790              		.align 2
 10794              	.globl __ZN9__gnu_cxx17__normal_iteratorIPKP15ResFileGenParamSt6vectorIS2_SaIS2_EEEC1ERKS4_
 10796              	__ZN9__gnu_cxx17__normal_iteratorIPKP15ResFileGenParamSt6vectorIS2_SaIS2_EEEC1ERKS4_:
 10798              	Ltext7:
   1:d:/github/AIOT_WORKSHOP/AIoT_MT2503AVE_SDK/11CW1418SP4_03_CORETEK03AE_11C_V1_GPRS_MMI/Tools/MinGW/include/c++/3.3.1/bits/stl_iterator.h **** // Iterators -*- C++ -*-
   2:d:/github/AIOT_WORKSHOP/AIoT_MT2503AVE_SDK/11CW1418SP4_03_CORETEK03AE_11C_V1_GPRS_MMI/Tools/MinGW/include/c++/3.3.1/bits/stl_iterator.h **** 
   3:d:/github/AIOT_WORKSHOP/AIoT_MT2503AVE_SDK/11CW1418SP4_03_CORETEK03AE_11C_V1_GPRS_MMI/Tools/MinGW/include/c++/3.3.1/bits/stl_iterator.h **** // Copyright (C) 2001, 2002 Free Software Foundation, Inc.
   4:d:/github/AIOT_WORKSHOP/AIoT_MT2503AVE_SDK/11CW1418SP4_03_CORETEK03AE_11C_V1_GPRS_MMI/Tools/MinGW/include/c++/3.3.1/bits/stl_iterator.h **** //
   5:d:/github/AIOT_WORKSHOP/AIoT_MT2503AVE_SDK/11CW1418SP4_03_CORETEK03AE_11C_V1_GPRS_MMI/Tools/MinGW/include/c++/3.3.1/bits/stl_iterator.h **** // This file is part of the GNU ISO C++ Library.  This library is free
   6:d:/github/AIOT_WORKSHOP/AIoT_MT2503AVE_SDK/11CW1418SP4_03_CORETEK03AE_11C_V1_GPRS_MMI/Tools/MinGW/include/c++/3.3.1/bits/stl_iterator.h **** // software; you can redistribute it and/or modify it under the
   7:d:/github/AIOT_WORKSHOP/AIoT_MT2503AVE_SDK/11CW1418SP4_03_CORETEK03AE_11C_V1_GPRS_MMI/Tools/MinGW/include/c++/3.3.1/bits/stl_iterator.h **** // terms of the GNU General Public License as published by the
   8:d:/github/AIOT_WORKSHOP/AIoT_MT2503AVE_SDK/11CW1418SP4_03_CORETEK03AE_11C_V1_GPRS_MMI/Tools/MinGW/include/c++/3.3.1/bits/stl_iterator.h **** // Free Software Foundation; either version 2, or (at your option)
   9:d:/github/AIOT_WORKSHOP/AIoT_MT2503AVE_SDK/11CW1418SP4_03_CORETEK03AE_11C_V1_GPRS_MMI/Tools/MinGW/include/c++/3.3.1/bits/stl_iterator.h **** // any later version.
  10:d:/github/AIOT_WORKSHOP/AIoT_MT2503AVE_SDK/11CW1418SP4_03_CORETEK03AE_11C_V1_GPRS_MMI/Tools/MinGW/include/c++/3.3.1/bits/stl_iterator.h **** 
  11:d:/github/AIOT_WORKSHOP/AIoT_MT2503AVE_SDK/11CW1418SP4_03_CORETEK03AE_11C_V1_GPRS_MMI/Tools/MinGW/include/c++/3.3.1/bits/stl_iterator.h **** // This library is distributed in the hope that it will be useful,
  12:d:/github/AIOT_WORKSHOP/AIoT_MT2503AVE_SDK/11CW1418SP4_03_CORETEK03AE_11C_V1_GPRS_MMI/Tools/MinGW/include/c++/3.3.1/bits/stl_iterator.h **** // but WITHOUT ANY WARRANTY; without even the implied warranty of
  13:d:/github/AIOT_WORKSHOP/AIoT_MT2503AVE_SDK/11CW1418SP4_03_CORETEK03AE_11C_V1_GPRS_MMI/Tools/MinGW/include/c++/3.3.1/bits/stl_iterator.h **** // MERCHANTABILITY or FITNESS FOR A PARTICULAR PURPOSE.  See the
  14:d:/github/AIOT_WORKSHOP/AIoT_MT2503AVE_SDK/11CW1418SP4_03_CORETEK03AE_11C_V1_GPRS_MMI/Tools/MinGW/include/c++/3.3.1/bits/stl_iterator.h **** // GNU General Public License for more details.
  15:d:/github/AIOT_WORKSHOP/AIoT_MT2503AVE_SDK/11CW1418SP4_03_CORETEK03AE_11C_V1_GPRS_MMI/Tools/MinGW/include/c++/3.3.1/bits/stl_iterator.h **** 
  16:d:/github/AIOT_WORKSHOP/AIoT_MT2503AVE_SDK/11CW1418SP4_03_CORETEK03AE_11C_V1_GPRS_MMI/Tools/MinGW/include/c++/3.3.1/bits/stl_iterator.h **** // You should have received a copy of the GNU General Public License along
  17:d:/github/AIOT_WORKSHOP/AIoT_MT2503AVE_SDK/11CW1418SP4_03_CORETEK03AE_11C_V1_GPRS_MMI/Tools/MinGW/include/c++/3.3.1/bits/stl_iterator.h **** // with this library; see the file COPYING.  If not, write to the Free
  18:d:/github/AIOT_WORKSHOP/AIoT_MT2503AVE_SDK/11CW1418SP4_03_CORETEK03AE_11C_V1_GPRS_MMI/Tools/MinGW/include/c++/3.3.1/bits/stl_iterator.h **** // Software Foundation, 59 Temple Place - Suite 330, Boston, MA 02111-1307,
  19:d:/github/AIOT_WORKSHOP/AIoT_MT2503AVE_SDK/11CW1418SP4_03_CORETEK03AE_11C_V1_GPRS_MMI/Tools/MinGW/include/c++/3.3.1/bits/stl_iterator.h **** // USA.
  20:d:/github/AIOT_WORKSHOP/AIoT_MT2503AVE_SDK/11CW1418SP4_03_CORETEK03AE_11C_V1_GPRS_MMI/Tools/MinGW/include/c++/3.3.1/bits/stl_iterator.h **** 
  21:d:/github/AIOT_WORKSHOP/AIoT_MT2503AVE_SDK/11CW1418SP4_03_CORETEK03AE_11C_V1_GPRS_MMI/Tools/MinGW/include/c++/3.3.1/bits/stl_iterator.h **** // As a special exception, you may use this file as part of a free software
  22:d:/github/AIOT_WORKSHOP/AIoT_MT2503AVE_SDK/11CW1418SP4_03_CORETEK03AE_11C_V1_GPRS_MMI/Tools/MinGW/include/c++/3.3.1/bits/stl_iterator.h **** // library without restriction.  Specifically, if other files instantiate
  23:d:/github/AIOT_WORKSHOP/AIoT_MT2503AVE_SDK/11CW1418SP4_03_CORETEK03AE_11C_V1_GPRS_MMI/Tools/MinGW/include/c++/3.3.1/bits/stl_iterator.h **** // templates or use macros or inline functions from this file, or you compile
  24:d:/github/AIOT_WORKSHOP/AIoT_MT2503AVE_SDK/11CW1418SP4_03_CORETEK03AE_11C_V1_GPRS_MMI/Tools/MinGW/include/c++/3.3.1/bits/stl_iterator.h **** // this file and link it with other files to produce an executable, this
  25:d:/github/AIOT_WORKSHOP/AIoT_MT2503AVE_SDK/11CW1418SP4_03_CORETEK03AE_11C_V1_GPRS_MMI/Tools/MinGW/include/c++/3.3.1/bits/stl_iterator.h **** // file does not by itself cause the resulting executable to be covered by
  26:d:/github/AIOT_WORKSHOP/AIoT_MT2503AVE_SDK/11CW1418SP4_03_CORETEK03AE_11C_V1_GPRS_MMI/Tools/MinGW/include/c++/3.3.1/bits/stl_iterator.h **** // the GNU General Public License.  This exception does not however
  27:d:/github/AIOT_WORKSHOP/AIoT_MT2503AVE_SDK/11CW1418SP4_03_CORETEK03AE_11C_V1_GPRS_MMI/Tools/MinGW/include/c++/3.3.1/bits/stl_iterator.h **** // invalidate any other reasons why the executable file might be covered by
  28:d:/github/AIOT_WORKSHOP/AIoT_MT2503AVE_SDK/11CW1418SP4_03_CORETEK03AE_11C_V1_GPRS_MMI/Tools/MinGW/include/c++/3.3.1/bits/stl_iterator.h **** // the GNU General Public License.
  29:d:/github/AIOT_WORKSHOP/AIoT_MT2503AVE_SDK/11CW1418SP4_03_CORETEK03AE_11C_V1_GPRS_MMI/Tools/MinGW/include/c++/3.3.1/bits/stl_iterator.h **** 
GAS LISTING d:/github/AIOT_WORKSHOP/AIoT_MT2503AVE_SDK/11CW1418SP4_03_CORETEK03AE_11C_V1_GPRS_MMI/plutommi/Customer/ResGenerator/gcctmp/ccmAfaaa.s 			page 257


  30:d:/github/AIOT_WORKSHOP/AIoT_MT2503AVE_SDK/11CW1418SP4_03_CORETEK03AE_11C_V1_GPRS_MMI/Tools/MinGW/include/c++/3.3.1/bits/stl_iterator.h **** /*
  31:d:/github/AIOT_WORKSHOP/AIoT_MT2503AVE_SDK/11CW1418SP4_03_CORETEK03AE_11C_V1_GPRS_MMI/Tools/MinGW/include/c++/3.3.1/bits/stl_iterator.h ****  *
  32:d:/github/AIOT_WORKSHOP/AIoT_MT2503AVE_SDK/11CW1418SP4_03_CORETEK03AE_11C_V1_GPRS_MMI/Tools/MinGW/include/c++/3.3.1/bits/stl_iterator.h ****  * Copyright (c) 1994
  33:d:/github/AIOT_WORKSHOP/AIoT_MT2503AVE_SDK/11CW1418SP4_03_CORETEK03AE_11C_V1_GPRS_MMI/Tools/MinGW/include/c++/3.3.1/bits/stl_iterator.h ****  * Hewlett-Packard Company
  34:d:/github/AIOT_WORKSHOP/AIoT_MT2503AVE_SDK/11CW1418SP4_03_CORETEK03AE_11C_V1_GPRS_MMI/Tools/MinGW/include/c++/3.3.1/bits/stl_iterator.h ****  *
  35:d:/github/AIOT_WORKSHOP/AIoT_MT2503AVE_SDK/11CW1418SP4_03_CORETEK03AE_11C_V1_GPRS_MMI/Tools/MinGW/include/c++/3.3.1/bits/stl_iterator.h ****  * Permission to use, copy, modify, distribute and sell this software
  36:d:/github/AIOT_WORKSHOP/AIoT_MT2503AVE_SDK/11CW1418SP4_03_CORETEK03AE_11C_V1_GPRS_MMI/Tools/MinGW/include/c++/3.3.1/bits/stl_iterator.h ****  * and its documentation for any purpose is hereby granted without fee,
  37:d:/github/AIOT_WORKSHOP/AIoT_MT2503AVE_SDK/11CW1418SP4_03_CORETEK03AE_11C_V1_GPRS_MMI/Tools/MinGW/include/c++/3.3.1/bits/stl_iterator.h ****  * provided that the above copyright notice appear in all copies and
  38:d:/github/AIOT_WORKSHOP/AIoT_MT2503AVE_SDK/11CW1418SP4_03_CORETEK03AE_11C_V1_GPRS_MMI/Tools/MinGW/include/c++/3.3.1/bits/stl_iterator.h ****  * that both that copyright notice and this permission notice appear
  39:d:/github/AIOT_WORKSHOP/AIoT_MT2503AVE_SDK/11CW1418SP4_03_CORETEK03AE_11C_V1_GPRS_MMI/Tools/MinGW/include/c++/3.3.1/bits/stl_iterator.h ****  * in supporting documentation.  Hewlett-Packard Company makes no
  40:d:/github/AIOT_WORKSHOP/AIoT_MT2503AVE_SDK/11CW1418SP4_03_CORETEK03AE_11C_V1_GPRS_MMI/Tools/MinGW/include/c++/3.3.1/bits/stl_iterator.h ****  * representations about the suitability of this software for any
  41:d:/github/AIOT_WORKSHOP/AIoT_MT2503AVE_SDK/11CW1418SP4_03_CORETEK03AE_11C_V1_GPRS_MMI/Tools/MinGW/include/c++/3.3.1/bits/stl_iterator.h ****  * purpose.  It is provided "as is" without express or implied warranty.
  42:d:/github/AIOT_WORKSHOP/AIoT_MT2503AVE_SDK/11CW1418SP4_03_CORETEK03AE_11C_V1_GPRS_MMI/Tools/MinGW/include/c++/3.3.1/bits/stl_iterator.h ****  *
  43:d:/github/AIOT_WORKSHOP/AIoT_MT2503AVE_SDK/11CW1418SP4_03_CORETEK03AE_11C_V1_GPRS_MMI/Tools/MinGW/include/c++/3.3.1/bits/stl_iterator.h ****  *
  44:d:/github/AIOT_WORKSHOP/AIoT_MT2503AVE_SDK/11CW1418SP4_03_CORETEK03AE_11C_V1_GPRS_MMI/Tools/MinGW/include/c++/3.3.1/bits/stl_iterator.h ****  * Copyright (c) 1996-1998
  45:d:/github/AIOT_WORKSHOP/AIoT_MT2503AVE_SDK/11CW1418SP4_03_CORETEK03AE_11C_V1_GPRS_MMI/Tools/MinGW/include/c++/3.3.1/bits/stl_iterator.h ****  * Silicon Graphics Computer Systems, Inc.
  46:d:/github/AIOT_WORKSHOP/AIoT_MT2503AVE_SDK/11CW1418SP4_03_CORETEK03AE_11C_V1_GPRS_MMI/Tools/MinGW/include/c++/3.3.1/bits/stl_iterator.h ****  *
  47:d:/github/AIOT_WORKSHOP/AIoT_MT2503AVE_SDK/11CW1418SP4_03_CORETEK03AE_11C_V1_GPRS_MMI/Tools/MinGW/include/c++/3.3.1/bits/stl_iterator.h ****  * Permission to use, copy, modify, distribute and sell this software
  48:d:/github/AIOT_WORKSHOP/AIoT_MT2503AVE_SDK/11CW1418SP4_03_CORETEK03AE_11C_V1_GPRS_MMI/Tools/MinGW/include/c++/3.3.1/bits/stl_iterator.h ****  * and its documentation for any purpose is hereby granted without fee,
  49:d:/github/AIOT_WORKSHOP/AIoT_MT2503AVE_SDK/11CW1418SP4_03_CORETEK03AE_11C_V1_GPRS_MMI/Tools/MinGW/include/c++/3.3.1/bits/stl_iterator.h ****  * provided that the above copyright notice appear in all copies and
  50:d:/github/AIOT_WORKSHOP/AIoT_MT2503AVE_SDK/11CW1418SP4_03_CORETEK03AE_11C_V1_GPRS_MMI/Tools/MinGW/include/c++/3.3.1/bits/stl_iterator.h ****  * that both that copyright notice and this permission notice appear
  51:d:/github/AIOT_WORKSHOP/AIoT_MT2503AVE_SDK/11CW1418SP4_03_CORETEK03AE_11C_V1_GPRS_MMI/Tools/MinGW/include/c++/3.3.1/bits/stl_iterator.h ****  * in supporting documentation.  Silicon Graphics makes no
  52:d:/github/AIOT_WORKSHOP/AIoT_MT2503AVE_SDK/11CW1418SP4_03_CORETEK03AE_11C_V1_GPRS_MMI/Tools/MinGW/include/c++/3.3.1/bits/stl_iterator.h ****  * representations about the suitability of this software for any
  53:d:/github/AIOT_WORKSHOP/AIoT_MT2503AVE_SDK/11CW1418SP4_03_CORETEK03AE_11C_V1_GPRS_MMI/Tools/MinGW/include/c++/3.3.1/bits/stl_iterator.h ****  * purpose.  It is provided "as is" without express or implied warranty.
  54:d:/github/AIOT_WORKSHOP/AIoT_MT2503AVE_SDK/11CW1418SP4_03_CORETEK03AE_11C_V1_GPRS_MMI/Tools/MinGW/include/c++/3.3.1/bits/stl_iterator.h ****  */
  55:d:/github/AIOT_WORKSHOP/AIoT_MT2503AVE_SDK/11CW1418SP4_03_CORETEK03AE_11C_V1_GPRS_MMI/Tools/MinGW/include/c++/3.3.1/bits/stl_iterator.h **** 
  56:d:/github/AIOT_WORKSHOP/AIoT_MT2503AVE_SDK/11CW1418SP4_03_CORETEK03AE_11C_V1_GPRS_MMI/Tools/MinGW/include/c++/3.3.1/bits/stl_iterator.h **** /** @file stl_iterator.h
  57:d:/github/AIOT_WORKSHOP/AIoT_MT2503AVE_SDK/11CW1418SP4_03_CORETEK03AE_11C_V1_GPRS_MMI/Tools/MinGW/include/c++/3.3.1/bits/stl_iterator.h ****  *  This is an internal header file, included by other library headers.
  58:d:/github/AIOT_WORKSHOP/AIoT_MT2503AVE_SDK/11CW1418SP4_03_CORETEK03AE_11C_V1_GPRS_MMI/Tools/MinGW/include/c++/3.3.1/bits/stl_iterator.h ****  *  You should not attempt to use it directly.
  59:d:/github/AIOT_WORKSHOP/AIoT_MT2503AVE_SDK/11CW1418SP4_03_CORETEK03AE_11C_V1_GPRS_MMI/Tools/MinGW/include/c++/3.3.1/bits/stl_iterator.h ****  *
  60:d:/github/AIOT_WORKSHOP/AIoT_MT2503AVE_SDK/11CW1418SP4_03_CORETEK03AE_11C_V1_GPRS_MMI/Tools/MinGW/include/c++/3.3.1/bits/stl_iterator.h ****  *  This file implements reverse_iterator, back_insert_iterator,
  61:d:/github/AIOT_WORKSHOP/AIoT_MT2503AVE_SDK/11CW1418SP4_03_CORETEK03AE_11C_V1_GPRS_MMI/Tools/MinGW/include/c++/3.3.1/bits/stl_iterator.h ****  *  front_insert_iterator, insert_iterator, __normal_iterator, and their
  62:d:/github/AIOT_WORKSHOP/AIoT_MT2503AVE_SDK/11CW1418SP4_03_CORETEK03AE_11C_V1_GPRS_MMI/Tools/MinGW/include/c++/3.3.1/bits/stl_iterator.h ****  *  supporting functions and overloaded operators.
  63:d:/github/AIOT_WORKSHOP/AIoT_MT2503AVE_SDK/11CW1418SP4_03_CORETEK03AE_11C_V1_GPRS_MMI/Tools/MinGW/include/c++/3.3.1/bits/stl_iterator.h ****  */
  64:d:/github/AIOT_WORKSHOP/AIoT_MT2503AVE_SDK/11CW1418SP4_03_CORETEK03AE_11C_V1_GPRS_MMI/Tools/MinGW/include/c++/3.3.1/bits/stl_iterator.h **** 
  65:d:/github/AIOT_WORKSHOP/AIoT_MT2503AVE_SDK/11CW1418SP4_03_CORETEK03AE_11C_V1_GPRS_MMI/Tools/MinGW/include/c++/3.3.1/bits/stl_iterator.h **** #ifndef __GLIBCPP_INTERNAL_ITERATOR_H
  66:d:/github/AIOT_WORKSHOP/AIoT_MT2503AVE_SDK/11CW1418SP4_03_CORETEK03AE_11C_V1_GPRS_MMI/Tools/MinGW/include/c++/3.3.1/bits/stl_iterator.h **** #define __GLIBCPP_INTERNAL_ITERATOR_H
  67:d:/github/AIOT_WORKSHOP/AIoT_MT2503AVE_SDK/11CW1418SP4_03_CORETEK03AE_11C_V1_GPRS_MMI/Tools/MinGW/include/c++/3.3.1/bits/stl_iterator.h **** 
  68:d:/github/AIOT_WORKSHOP/AIoT_MT2503AVE_SDK/11CW1418SP4_03_CORETEK03AE_11C_V1_GPRS_MMI/Tools/MinGW/include/c++/3.3.1/bits/stl_iterator.h **** namespace std
  69:d:/github/AIOT_WORKSHOP/AIoT_MT2503AVE_SDK/11CW1418SP4_03_CORETEK03AE_11C_V1_GPRS_MMI/Tools/MinGW/include/c++/3.3.1/bits/stl_iterator.h **** {
  70:d:/github/AIOT_WORKSHOP/AIoT_MT2503AVE_SDK/11CW1418SP4_03_CORETEK03AE_11C_V1_GPRS_MMI/Tools/MinGW/include/c++/3.3.1/bits/stl_iterator.h ****   // 24.4.1 Reverse iterators
  71:d:/github/AIOT_WORKSHOP/AIoT_MT2503AVE_SDK/11CW1418SP4_03_CORETEK03AE_11C_V1_GPRS_MMI/Tools/MinGW/include/c++/3.3.1/bits/stl_iterator.h ****   /**
  72:d:/github/AIOT_WORKSHOP/AIoT_MT2503AVE_SDK/11CW1418SP4_03_CORETEK03AE_11C_V1_GPRS_MMI/Tools/MinGW/include/c++/3.3.1/bits/stl_iterator.h ****    *  "Bidirectional and random access iterators have corresponding reverse
  73:d:/github/AIOT_WORKSHOP/AIoT_MT2503AVE_SDK/11CW1418SP4_03_CORETEK03AE_11C_V1_GPRS_MMI/Tools/MinGW/include/c++/3.3.1/bits/stl_iterator.h ****    *  %iterator adaptors that iterate through the data structure in the
  74:d:/github/AIOT_WORKSHOP/AIoT_MT2503AVE_SDK/11CW1418SP4_03_CORETEK03AE_11C_V1_GPRS_MMI/Tools/MinGW/include/c++/3.3.1/bits/stl_iterator.h ****    *  opposite direction.  They have the same signatures as the corresponding
  75:d:/github/AIOT_WORKSHOP/AIoT_MT2503AVE_SDK/11CW1418SP4_03_CORETEK03AE_11C_V1_GPRS_MMI/Tools/MinGW/include/c++/3.3.1/bits/stl_iterator.h ****    *  iterators.  The fundamental relation between a reverse %iterator and its
  76:d:/github/AIOT_WORKSHOP/AIoT_MT2503AVE_SDK/11CW1418SP4_03_CORETEK03AE_11C_V1_GPRS_MMI/Tools/MinGW/include/c++/3.3.1/bits/stl_iterator.h ****    *  corresponding %iterator @c i is established by the identity:
  77:d:/github/AIOT_WORKSHOP/AIoT_MT2503AVE_SDK/11CW1418SP4_03_CORETEK03AE_11C_V1_GPRS_MMI/Tools/MinGW/include/c++/3.3.1/bits/stl_iterator.h ****    *  @code
  78:d:/github/AIOT_WORKSHOP/AIoT_MT2503AVE_SDK/11CW1418SP4_03_CORETEK03AE_11C_V1_GPRS_MMI/Tools/MinGW/include/c++/3.3.1/bits/stl_iterator.h ****    *      &*(reverse_iterator(i)) == &*(i - 1)
  79:d:/github/AIOT_WORKSHOP/AIoT_MT2503AVE_SDK/11CW1418SP4_03_CORETEK03AE_11C_V1_GPRS_MMI/Tools/MinGW/include/c++/3.3.1/bits/stl_iterator.h ****    *  @endcode
  80:d:/github/AIOT_WORKSHOP/AIoT_MT2503AVE_SDK/11CW1418SP4_03_CORETEK03AE_11C_V1_GPRS_MMI/Tools/MinGW/include/c++/3.3.1/bits/stl_iterator.h ****    *
  81:d:/github/AIOT_WORKSHOP/AIoT_MT2503AVE_SDK/11CW1418SP4_03_CORETEK03AE_11C_V1_GPRS_MMI/Tools/MinGW/include/c++/3.3.1/bits/stl_iterator.h ****    *  This mapping is dictated by the fact that while there is always a
  82:d:/github/AIOT_WORKSHOP/AIoT_MT2503AVE_SDK/11CW1418SP4_03_CORETEK03AE_11C_V1_GPRS_MMI/Tools/MinGW/include/c++/3.3.1/bits/stl_iterator.h ****    *  pointer past the end of an array, there might not be a valid pointer
  83:d:/github/AIOT_WORKSHOP/AIoT_MT2503AVE_SDK/11CW1418SP4_03_CORETEK03AE_11C_V1_GPRS_MMI/Tools/MinGW/include/c++/3.3.1/bits/stl_iterator.h ****    *  before the beginning of an array." [24.4.1]/1,2
  84:d:/github/AIOT_WORKSHOP/AIoT_MT2503AVE_SDK/11CW1418SP4_03_CORETEK03AE_11C_V1_GPRS_MMI/Tools/MinGW/include/c++/3.3.1/bits/stl_iterator.h ****    *
  85:d:/github/AIOT_WORKSHOP/AIoT_MT2503AVE_SDK/11CW1418SP4_03_CORETEK03AE_11C_V1_GPRS_MMI/Tools/MinGW/include/c++/3.3.1/bits/stl_iterator.h ****    *  Reverse iterators can be tricky and surprising at first.  Their
  86:d:/github/AIOT_WORKSHOP/AIoT_MT2503AVE_SDK/11CW1418SP4_03_CORETEK03AE_11C_V1_GPRS_MMI/Tools/MinGW/include/c++/3.3.1/bits/stl_iterator.h ****    *  semantics make sense, however, and the trickiness is a side effect of
GAS LISTING d:/github/AIOT_WORKSHOP/AIoT_MT2503AVE_SDK/11CW1418SP4_03_CORETEK03AE_11C_V1_GPRS_MMI/plutommi/Customer/ResGenerator/gcctmp/ccmAfaaa.s 			page 258


  87:d:/github/AIOT_WORKSHOP/AIoT_MT2503AVE_SDK/11CW1418SP4_03_CORETEK03AE_11C_V1_GPRS_MMI/Tools/MinGW/include/c++/3.3.1/bits/stl_iterator.h ****    *  the requirement that the iterators must be safe.
  88:d:/github/AIOT_WORKSHOP/AIoT_MT2503AVE_SDK/11CW1418SP4_03_CORETEK03AE_11C_V1_GPRS_MMI/Tools/MinGW/include/c++/3.3.1/bits/stl_iterator.h ****   */
  89:d:/github/AIOT_WORKSHOP/AIoT_MT2503AVE_SDK/11CW1418SP4_03_CORETEK03AE_11C_V1_GPRS_MMI/Tools/MinGW/include/c++/3.3.1/bits/stl_iterator.h ****   template<typename _Iterator>
  90:d:/github/AIOT_WORKSHOP/AIoT_MT2503AVE_SDK/11CW1418SP4_03_CORETEK03AE_11C_V1_GPRS_MMI/Tools/MinGW/include/c++/3.3.1/bits/stl_iterator.h ****     class reverse_iterator 
  91:d:/github/AIOT_WORKSHOP/AIoT_MT2503AVE_SDK/11CW1418SP4_03_CORETEK03AE_11C_V1_GPRS_MMI/Tools/MinGW/include/c++/3.3.1/bits/stl_iterator.h ****     : public iterator<typename iterator_traits<_Iterator>::iterator_category,
  92:d:/github/AIOT_WORKSHOP/AIoT_MT2503AVE_SDK/11CW1418SP4_03_CORETEK03AE_11C_V1_GPRS_MMI/Tools/MinGW/include/c++/3.3.1/bits/stl_iterator.h **** 		      typename iterator_traits<_Iterator>::value_type,
  93:d:/github/AIOT_WORKSHOP/AIoT_MT2503AVE_SDK/11CW1418SP4_03_CORETEK03AE_11C_V1_GPRS_MMI/Tools/MinGW/include/c++/3.3.1/bits/stl_iterator.h **** 		      typename iterator_traits<_Iterator>::difference_type,
  94:d:/github/AIOT_WORKSHOP/AIoT_MT2503AVE_SDK/11CW1418SP4_03_CORETEK03AE_11C_V1_GPRS_MMI/Tools/MinGW/include/c++/3.3.1/bits/stl_iterator.h **** 		      typename iterator_traits<_Iterator>::pointer,
  95:d:/github/AIOT_WORKSHOP/AIoT_MT2503AVE_SDK/11CW1418SP4_03_CORETEK03AE_11C_V1_GPRS_MMI/Tools/MinGW/include/c++/3.3.1/bits/stl_iterator.h ****                       typename iterator_traits<_Iterator>::reference>
  96:d:/github/AIOT_WORKSHOP/AIoT_MT2503AVE_SDK/11CW1418SP4_03_CORETEK03AE_11C_V1_GPRS_MMI/Tools/MinGW/include/c++/3.3.1/bits/stl_iterator.h ****     {
  97:d:/github/AIOT_WORKSHOP/AIoT_MT2503AVE_SDK/11CW1418SP4_03_CORETEK03AE_11C_V1_GPRS_MMI/Tools/MinGW/include/c++/3.3.1/bits/stl_iterator.h ****     protected:
  98:d:/github/AIOT_WORKSHOP/AIoT_MT2503AVE_SDK/11CW1418SP4_03_CORETEK03AE_11C_V1_GPRS_MMI/Tools/MinGW/include/c++/3.3.1/bits/stl_iterator.h ****       _Iterator current;
  99:d:/github/AIOT_WORKSHOP/AIoT_MT2503AVE_SDK/11CW1418SP4_03_CORETEK03AE_11C_V1_GPRS_MMI/Tools/MinGW/include/c++/3.3.1/bits/stl_iterator.h **** 
 100:d:/github/AIOT_WORKSHOP/AIoT_MT2503AVE_SDK/11CW1418SP4_03_CORETEK03AE_11C_V1_GPRS_MMI/Tools/MinGW/include/c++/3.3.1/bits/stl_iterator.h ****     public:
 101:d:/github/AIOT_WORKSHOP/AIoT_MT2503AVE_SDK/11CW1418SP4_03_CORETEK03AE_11C_V1_GPRS_MMI/Tools/MinGW/include/c++/3.3.1/bits/stl_iterator.h ****       typedef _Iterator 				       iterator_type;
 102:d:/github/AIOT_WORKSHOP/AIoT_MT2503AVE_SDK/11CW1418SP4_03_CORETEK03AE_11C_V1_GPRS_MMI/Tools/MinGW/include/c++/3.3.1/bits/stl_iterator.h ****       typedef typename iterator_traits<_Iterator>::difference_type 	
 103:d:/github/AIOT_WORKSHOP/AIoT_MT2503AVE_SDK/11CW1418SP4_03_CORETEK03AE_11C_V1_GPRS_MMI/Tools/MinGW/include/c++/3.3.1/bits/stl_iterator.h ****       							       difference_type;
 104:d:/github/AIOT_WORKSHOP/AIoT_MT2503AVE_SDK/11CW1418SP4_03_CORETEK03AE_11C_V1_GPRS_MMI/Tools/MinGW/include/c++/3.3.1/bits/stl_iterator.h ****       typedef typename iterator_traits<_Iterator>::reference   reference;
 105:d:/github/AIOT_WORKSHOP/AIoT_MT2503AVE_SDK/11CW1418SP4_03_CORETEK03AE_11C_V1_GPRS_MMI/Tools/MinGW/include/c++/3.3.1/bits/stl_iterator.h ****       typedef typename iterator_traits<_Iterator>::pointer     pointer;
 106:d:/github/AIOT_WORKSHOP/AIoT_MT2503AVE_SDK/11CW1418SP4_03_CORETEK03AE_11C_V1_GPRS_MMI/Tools/MinGW/include/c++/3.3.1/bits/stl_iterator.h **** 
 107:d:/github/AIOT_WORKSHOP/AIoT_MT2503AVE_SDK/11CW1418SP4_03_CORETEK03AE_11C_V1_GPRS_MMI/Tools/MinGW/include/c++/3.3.1/bits/stl_iterator.h ****     public:
 108:d:/github/AIOT_WORKSHOP/AIoT_MT2503AVE_SDK/11CW1418SP4_03_CORETEK03AE_11C_V1_GPRS_MMI/Tools/MinGW/include/c++/3.3.1/bits/stl_iterator.h ****       /**
 109:d:/github/AIOT_WORKSHOP/AIoT_MT2503AVE_SDK/11CW1418SP4_03_CORETEK03AE_11C_V1_GPRS_MMI/Tools/MinGW/include/c++/3.3.1/bits/stl_iterator.h ****        *  The default constructor default-initializes member @p current.
 110:d:/github/AIOT_WORKSHOP/AIoT_MT2503AVE_SDK/11CW1418SP4_03_CORETEK03AE_11C_V1_GPRS_MMI/Tools/MinGW/include/c++/3.3.1/bits/stl_iterator.h ****        *  If it is a pointer, that means it is zero-initialized.
 111:d:/github/AIOT_WORKSHOP/AIoT_MT2503AVE_SDK/11CW1418SP4_03_CORETEK03AE_11C_V1_GPRS_MMI/Tools/MinGW/include/c++/3.3.1/bits/stl_iterator.h ****       */
 112:d:/github/AIOT_WORKSHOP/AIoT_MT2503AVE_SDK/11CW1418SP4_03_CORETEK03AE_11C_V1_GPRS_MMI/Tools/MinGW/include/c++/3.3.1/bits/stl_iterator.h ****       // _GLIBCPP_RESOLVE_LIB_DEFECTS
 113:d:/github/AIOT_WORKSHOP/AIoT_MT2503AVE_SDK/11CW1418SP4_03_CORETEK03AE_11C_V1_GPRS_MMI/Tools/MinGW/include/c++/3.3.1/bits/stl_iterator.h ****       // 235 No specification of default ctor for reverse_iterator
 114:d:/github/AIOT_WORKSHOP/AIoT_MT2503AVE_SDK/11CW1418SP4_03_CORETEK03AE_11C_V1_GPRS_MMI/Tools/MinGW/include/c++/3.3.1/bits/stl_iterator.h ****       reverse_iterator() : current() { }
 115:d:/github/AIOT_WORKSHOP/AIoT_MT2503AVE_SDK/11CW1418SP4_03_CORETEK03AE_11C_V1_GPRS_MMI/Tools/MinGW/include/c++/3.3.1/bits/stl_iterator.h **** 
 116:d:/github/AIOT_WORKSHOP/AIoT_MT2503AVE_SDK/11CW1418SP4_03_CORETEK03AE_11C_V1_GPRS_MMI/Tools/MinGW/include/c++/3.3.1/bits/stl_iterator.h ****       /**
 117:d:/github/AIOT_WORKSHOP/AIoT_MT2503AVE_SDK/11CW1418SP4_03_CORETEK03AE_11C_V1_GPRS_MMI/Tools/MinGW/include/c++/3.3.1/bits/stl_iterator.h ****        *  This %iterator will move in the opposite direction that @p x does.
 118:d:/github/AIOT_WORKSHOP/AIoT_MT2503AVE_SDK/11CW1418SP4_03_CORETEK03AE_11C_V1_GPRS_MMI/Tools/MinGW/include/c++/3.3.1/bits/stl_iterator.h ****       */
 119:d:/github/AIOT_WORKSHOP/AIoT_MT2503AVE_SDK/11CW1418SP4_03_CORETEK03AE_11C_V1_GPRS_MMI/Tools/MinGW/include/c++/3.3.1/bits/stl_iterator.h ****       explicit 
 120:d:/github/AIOT_WORKSHOP/AIoT_MT2503AVE_SDK/11CW1418SP4_03_CORETEK03AE_11C_V1_GPRS_MMI/Tools/MinGW/include/c++/3.3.1/bits/stl_iterator.h ****       reverse_iterator(iterator_type __x) : current(__x) { }
 121:d:/github/AIOT_WORKSHOP/AIoT_MT2503AVE_SDK/11CW1418SP4_03_CORETEK03AE_11C_V1_GPRS_MMI/Tools/MinGW/include/c++/3.3.1/bits/stl_iterator.h **** 
 122:d:/github/AIOT_WORKSHOP/AIoT_MT2503AVE_SDK/11CW1418SP4_03_CORETEK03AE_11C_V1_GPRS_MMI/Tools/MinGW/include/c++/3.3.1/bits/stl_iterator.h ****       /**
 123:d:/github/AIOT_WORKSHOP/AIoT_MT2503AVE_SDK/11CW1418SP4_03_CORETEK03AE_11C_V1_GPRS_MMI/Tools/MinGW/include/c++/3.3.1/bits/stl_iterator.h ****        *  The copy constructor is normal.
 124:d:/github/AIOT_WORKSHOP/AIoT_MT2503AVE_SDK/11CW1418SP4_03_CORETEK03AE_11C_V1_GPRS_MMI/Tools/MinGW/include/c++/3.3.1/bits/stl_iterator.h ****       */
 125:d:/github/AIOT_WORKSHOP/AIoT_MT2503AVE_SDK/11CW1418SP4_03_CORETEK03AE_11C_V1_GPRS_MMI/Tools/MinGW/include/c++/3.3.1/bits/stl_iterator.h ****       reverse_iterator(const reverse_iterator& __x) 
 126:d:/github/AIOT_WORKSHOP/AIoT_MT2503AVE_SDK/11CW1418SP4_03_CORETEK03AE_11C_V1_GPRS_MMI/Tools/MinGW/include/c++/3.3.1/bits/stl_iterator.h ****       : current(__x.current) { }
 127:d:/github/AIOT_WORKSHOP/AIoT_MT2503AVE_SDK/11CW1418SP4_03_CORETEK03AE_11C_V1_GPRS_MMI/Tools/MinGW/include/c++/3.3.1/bits/stl_iterator.h **** 
 128:d:/github/AIOT_WORKSHOP/AIoT_MT2503AVE_SDK/11CW1418SP4_03_CORETEK03AE_11C_V1_GPRS_MMI/Tools/MinGW/include/c++/3.3.1/bits/stl_iterator.h ****       /**
 129:d:/github/AIOT_WORKSHOP/AIoT_MT2503AVE_SDK/11CW1418SP4_03_CORETEK03AE_11C_V1_GPRS_MMI/Tools/MinGW/include/c++/3.3.1/bits/stl_iterator.h ****        *  A reverse_iterator across other types can be copied in the normal
 130:d:/github/AIOT_WORKSHOP/AIoT_MT2503AVE_SDK/11CW1418SP4_03_CORETEK03AE_11C_V1_GPRS_MMI/Tools/MinGW/include/c++/3.3.1/bits/stl_iterator.h ****        *  fashion.
 131:d:/github/AIOT_WORKSHOP/AIoT_MT2503AVE_SDK/11CW1418SP4_03_CORETEK03AE_11C_V1_GPRS_MMI/Tools/MinGW/include/c++/3.3.1/bits/stl_iterator.h ****       */
 132:d:/github/AIOT_WORKSHOP/AIoT_MT2503AVE_SDK/11CW1418SP4_03_CORETEK03AE_11C_V1_GPRS_MMI/Tools/MinGW/include/c++/3.3.1/bits/stl_iterator.h ****       template<typename _Iter>
 133:d:/github/AIOT_WORKSHOP/AIoT_MT2503AVE_SDK/11CW1418SP4_03_CORETEK03AE_11C_V1_GPRS_MMI/Tools/MinGW/include/c++/3.3.1/bits/stl_iterator.h ****         reverse_iterator(const reverse_iterator<_Iter>& __x)
 134:d:/github/AIOT_WORKSHOP/AIoT_MT2503AVE_SDK/11CW1418SP4_03_CORETEK03AE_11C_V1_GPRS_MMI/Tools/MinGW/include/c++/3.3.1/bits/stl_iterator.h **** 	: current(__x.base()) { }
 135:d:/github/AIOT_WORKSHOP/AIoT_MT2503AVE_SDK/11CW1418SP4_03_CORETEK03AE_11C_V1_GPRS_MMI/Tools/MinGW/include/c++/3.3.1/bits/stl_iterator.h ****     
 136:d:/github/AIOT_WORKSHOP/AIoT_MT2503AVE_SDK/11CW1418SP4_03_CORETEK03AE_11C_V1_GPRS_MMI/Tools/MinGW/include/c++/3.3.1/bits/stl_iterator.h ****       /**
 137:d:/github/AIOT_WORKSHOP/AIoT_MT2503AVE_SDK/11CW1418SP4_03_CORETEK03AE_11C_V1_GPRS_MMI/Tools/MinGW/include/c++/3.3.1/bits/stl_iterator.h ****        *  @return  @c current, the %iterator used for underlying work.
 138:d:/github/AIOT_WORKSHOP/AIoT_MT2503AVE_SDK/11CW1418SP4_03_CORETEK03AE_11C_V1_GPRS_MMI/Tools/MinGW/include/c++/3.3.1/bits/stl_iterator.h ****       */
 139:d:/github/AIOT_WORKSHOP/AIoT_MT2503AVE_SDK/11CW1418SP4_03_CORETEK03AE_11C_V1_GPRS_MMI/Tools/MinGW/include/c++/3.3.1/bits/stl_iterator.h ****       iterator_type 
 140:d:/github/AIOT_WORKSHOP/AIoT_MT2503AVE_SDK/11CW1418SP4_03_CORETEK03AE_11C_V1_GPRS_MMI/Tools/MinGW/include/c++/3.3.1/bits/stl_iterator.h ****       base() const { return current; }
 141:d:/github/AIOT_WORKSHOP/AIoT_MT2503AVE_SDK/11CW1418SP4_03_CORETEK03AE_11C_V1_GPRS_MMI/Tools/MinGW/include/c++/3.3.1/bits/stl_iterator.h **** 
 142:d:/github/AIOT_WORKSHOP/AIoT_MT2503AVE_SDK/11CW1418SP4_03_CORETEK03AE_11C_V1_GPRS_MMI/Tools/MinGW/include/c++/3.3.1/bits/stl_iterator.h ****       /**
 143:d:/github/AIOT_WORKSHOP/AIoT_MT2503AVE_SDK/11CW1418SP4_03_CORETEK03AE_11C_V1_GPRS_MMI/Tools/MinGW/include/c++/3.3.1/bits/stl_iterator.h ****        *  @return  TODO
GAS LISTING d:/github/AIOT_WORKSHOP/AIoT_MT2503AVE_SDK/11CW1418SP4_03_CORETEK03AE_11C_V1_GPRS_MMI/plutommi/Customer/ResGenerator/gcctmp/ccmAfaaa.s 			page 259


 144:d:/github/AIOT_WORKSHOP/AIoT_MT2503AVE_SDK/11CW1418SP4_03_CORETEK03AE_11C_V1_GPRS_MMI/Tools/MinGW/include/c++/3.3.1/bits/stl_iterator.h ****        *
 145:d:/github/AIOT_WORKSHOP/AIoT_MT2503AVE_SDK/11CW1418SP4_03_CORETEK03AE_11C_V1_GPRS_MMI/Tools/MinGW/include/c++/3.3.1/bits/stl_iterator.h ****        *  @doctodo
 146:d:/github/AIOT_WORKSHOP/AIoT_MT2503AVE_SDK/11CW1418SP4_03_CORETEK03AE_11C_V1_GPRS_MMI/Tools/MinGW/include/c++/3.3.1/bits/stl_iterator.h ****       */
 147:d:/github/AIOT_WORKSHOP/AIoT_MT2503AVE_SDK/11CW1418SP4_03_CORETEK03AE_11C_V1_GPRS_MMI/Tools/MinGW/include/c++/3.3.1/bits/stl_iterator.h ****       reference 
 148:d:/github/AIOT_WORKSHOP/AIoT_MT2503AVE_SDK/11CW1418SP4_03_CORETEK03AE_11C_V1_GPRS_MMI/Tools/MinGW/include/c++/3.3.1/bits/stl_iterator.h ****       operator*() const 
 149:d:/github/AIOT_WORKSHOP/AIoT_MT2503AVE_SDK/11CW1418SP4_03_CORETEK03AE_11C_V1_GPRS_MMI/Tools/MinGW/include/c++/3.3.1/bits/stl_iterator.h ****       {
 150:d:/github/AIOT_WORKSHOP/AIoT_MT2503AVE_SDK/11CW1418SP4_03_CORETEK03AE_11C_V1_GPRS_MMI/Tools/MinGW/include/c++/3.3.1/bits/stl_iterator.h **** 	_Iterator __tmp = current;
 151:d:/github/AIOT_WORKSHOP/AIoT_MT2503AVE_SDK/11CW1418SP4_03_CORETEK03AE_11C_V1_GPRS_MMI/Tools/MinGW/include/c++/3.3.1/bits/stl_iterator.h **** 	return *--__tmp;
 152:d:/github/AIOT_WORKSHOP/AIoT_MT2503AVE_SDK/11CW1418SP4_03_CORETEK03AE_11C_V1_GPRS_MMI/Tools/MinGW/include/c++/3.3.1/bits/stl_iterator.h ****       }
 153:d:/github/AIOT_WORKSHOP/AIoT_MT2503AVE_SDK/11CW1418SP4_03_CORETEK03AE_11C_V1_GPRS_MMI/Tools/MinGW/include/c++/3.3.1/bits/stl_iterator.h **** 
 154:d:/github/AIOT_WORKSHOP/AIoT_MT2503AVE_SDK/11CW1418SP4_03_CORETEK03AE_11C_V1_GPRS_MMI/Tools/MinGW/include/c++/3.3.1/bits/stl_iterator.h ****       /**
 155:d:/github/AIOT_WORKSHOP/AIoT_MT2503AVE_SDK/11CW1418SP4_03_CORETEK03AE_11C_V1_GPRS_MMI/Tools/MinGW/include/c++/3.3.1/bits/stl_iterator.h ****        *  @return  TODO
 156:d:/github/AIOT_WORKSHOP/AIoT_MT2503AVE_SDK/11CW1418SP4_03_CORETEK03AE_11C_V1_GPRS_MMI/Tools/MinGW/include/c++/3.3.1/bits/stl_iterator.h ****        *
 157:d:/github/AIOT_WORKSHOP/AIoT_MT2503AVE_SDK/11CW1418SP4_03_CORETEK03AE_11C_V1_GPRS_MMI/Tools/MinGW/include/c++/3.3.1/bits/stl_iterator.h ****        *  @doctodo
 158:d:/github/AIOT_WORKSHOP/AIoT_MT2503AVE_SDK/11CW1418SP4_03_CORETEK03AE_11C_V1_GPRS_MMI/Tools/MinGW/include/c++/3.3.1/bits/stl_iterator.h ****       */
 159:d:/github/AIOT_WORKSHOP/AIoT_MT2503AVE_SDK/11CW1418SP4_03_CORETEK03AE_11C_V1_GPRS_MMI/Tools/MinGW/include/c++/3.3.1/bits/stl_iterator.h ****       pointer 
 160:d:/github/AIOT_WORKSHOP/AIoT_MT2503AVE_SDK/11CW1418SP4_03_CORETEK03AE_11C_V1_GPRS_MMI/Tools/MinGW/include/c++/3.3.1/bits/stl_iterator.h ****       operator->() const { return &(operator*()); }
 161:d:/github/AIOT_WORKSHOP/AIoT_MT2503AVE_SDK/11CW1418SP4_03_CORETEK03AE_11C_V1_GPRS_MMI/Tools/MinGW/include/c++/3.3.1/bits/stl_iterator.h **** 
 162:d:/github/AIOT_WORKSHOP/AIoT_MT2503AVE_SDK/11CW1418SP4_03_CORETEK03AE_11C_V1_GPRS_MMI/Tools/MinGW/include/c++/3.3.1/bits/stl_iterator.h ****       /**
 163:d:/github/AIOT_WORKSHOP/AIoT_MT2503AVE_SDK/11CW1418SP4_03_CORETEK03AE_11C_V1_GPRS_MMI/Tools/MinGW/include/c++/3.3.1/bits/stl_iterator.h ****        *  @return  TODO
 164:d:/github/AIOT_WORKSHOP/AIoT_MT2503AVE_SDK/11CW1418SP4_03_CORETEK03AE_11C_V1_GPRS_MMI/Tools/MinGW/include/c++/3.3.1/bits/stl_iterator.h ****        *
 165:d:/github/AIOT_WORKSHOP/AIoT_MT2503AVE_SDK/11CW1418SP4_03_CORETEK03AE_11C_V1_GPRS_MMI/Tools/MinGW/include/c++/3.3.1/bits/stl_iterator.h ****        *  @doctodo
 166:d:/github/AIOT_WORKSHOP/AIoT_MT2503AVE_SDK/11CW1418SP4_03_CORETEK03AE_11C_V1_GPRS_MMI/Tools/MinGW/include/c++/3.3.1/bits/stl_iterator.h ****       */
 167:d:/github/AIOT_WORKSHOP/AIoT_MT2503AVE_SDK/11CW1418SP4_03_CORETEK03AE_11C_V1_GPRS_MMI/Tools/MinGW/include/c++/3.3.1/bits/stl_iterator.h ****       reverse_iterator& 
 168:d:/github/AIOT_WORKSHOP/AIoT_MT2503AVE_SDK/11CW1418SP4_03_CORETEK03AE_11C_V1_GPRS_MMI/Tools/MinGW/include/c++/3.3.1/bits/stl_iterator.h ****       operator++() 
 169:d:/github/AIOT_WORKSHOP/AIoT_MT2503AVE_SDK/11CW1418SP4_03_CORETEK03AE_11C_V1_GPRS_MMI/Tools/MinGW/include/c++/3.3.1/bits/stl_iterator.h ****       {
 170:d:/github/AIOT_WORKSHOP/AIoT_MT2503AVE_SDK/11CW1418SP4_03_CORETEK03AE_11C_V1_GPRS_MMI/Tools/MinGW/include/c++/3.3.1/bits/stl_iterator.h **** 	--current;
 171:d:/github/AIOT_WORKSHOP/AIoT_MT2503AVE_SDK/11CW1418SP4_03_CORETEK03AE_11C_V1_GPRS_MMI/Tools/MinGW/include/c++/3.3.1/bits/stl_iterator.h **** 	return *this;
 172:d:/github/AIOT_WORKSHOP/AIoT_MT2503AVE_SDK/11CW1418SP4_03_CORETEK03AE_11C_V1_GPRS_MMI/Tools/MinGW/include/c++/3.3.1/bits/stl_iterator.h ****       }
 173:d:/github/AIOT_WORKSHOP/AIoT_MT2503AVE_SDK/11CW1418SP4_03_CORETEK03AE_11C_V1_GPRS_MMI/Tools/MinGW/include/c++/3.3.1/bits/stl_iterator.h **** 
 174:d:/github/AIOT_WORKSHOP/AIoT_MT2503AVE_SDK/11CW1418SP4_03_CORETEK03AE_11C_V1_GPRS_MMI/Tools/MinGW/include/c++/3.3.1/bits/stl_iterator.h ****       /**
 175:d:/github/AIOT_WORKSHOP/AIoT_MT2503AVE_SDK/11CW1418SP4_03_CORETEK03AE_11C_V1_GPRS_MMI/Tools/MinGW/include/c++/3.3.1/bits/stl_iterator.h ****        *  @return  TODO
 176:d:/github/AIOT_WORKSHOP/AIoT_MT2503AVE_SDK/11CW1418SP4_03_CORETEK03AE_11C_V1_GPRS_MMI/Tools/MinGW/include/c++/3.3.1/bits/stl_iterator.h ****        *
 177:d:/github/AIOT_WORKSHOP/AIoT_MT2503AVE_SDK/11CW1418SP4_03_CORETEK03AE_11C_V1_GPRS_MMI/Tools/MinGW/include/c++/3.3.1/bits/stl_iterator.h ****        *  @doctodo
 178:d:/github/AIOT_WORKSHOP/AIoT_MT2503AVE_SDK/11CW1418SP4_03_CORETEK03AE_11C_V1_GPRS_MMI/Tools/MinGW/include/c++/3.3.1/bits/stl_iterator.h ****       */
 179:d:/github/AIOT_WORKSHOP/AIoT_MT2503AVE_SDK/11CW1418SP4_03_CORETEK03AE_11C_V1_GPRS_MMI/Tools/MinGW/include/c++/3.3.1/bits/stl_iterator.h ****       reverse_iterator 
 180:d:/github/AIOT_WORKSHOP/AIoT_MT2503AVE_SDK/11CW1418SP4_03_CORETEK03AE_11C_V1_GPRS_MMI/Tools/MinGW/include/c++/3.3.1/bits/stl_iterator.h ****       operator++(int) 
 181:d:/github/AIOT_WORKSHOP/AIoT_MT2503AVE_SDK/11CW1418SP4_03_CORETEK03AE_11C_V1_GPRS_MMI/Tools/MinGW/include/c++/3.3.1/bits/stl_iterator.h ****       {
 182:d:/github/AIOT_WORKSHOP/AIoT_MT2503AVE_SDK/11CW1418SP4_03_CORETEK03AE_11C_V1_GPRS_MMI/Tools/MinGW/include/c++/3.3.1/bits/stl_iterator.h **** 	reverse_iterator __tmp = *this;
 183:d:/github/AIOT_WORKSHOP/AIoT_MT2503AVE_SDK/11CW1418SP4_03_CORETEK03AE_11C_V1_GPRS_MMI/Tools/MinGW/include/c++/3.3.1/bits/stl_iterator.h **** 	--current;
 184:d:/github/AIOT_WORKSHOP/AIoT_MT2503AVE_SDK/11CW1418SP4_03_CORETEK03AE_11C_V1_GPRS_MMI/Tools/MinGW/include/c++/3.3.1/bits/stl_iterator.h **** 	return __tmp;
 185:d:/github/AIOT_WORKSHOP/AIoT_MT2503AVE_SDK/11CW1418SP4_03_CORETEK03AE_11C_V1_GPRS_MMI/Tools/MinGW/include/c++/3.3.1/bits/stl_iterator.h ****       }
 186:d:/github/AIOT_WORKSHOP/AIoT_MT2503AVE_SDK/11CW1418SP4_03_CORETEK03AE_11C_V1_GPRS_MMI/Tools/MinGW/include/c++/3.3.1/bits/stl_iterator.h **** 
 187:d:/github/AIOT_WORKSHOP/AIoT_MT2503AVE_SDK/11CW1418SP4_03_CORETEK03AE_11C_V1_GPRS_MMI/Tools/MinGW/include/c++/3.3.1/bits/stl_iterator.h ****       /**
 188:d:/github/AIOT_WORKSHOP/AIoT_MT2503AVE_SDK/11CW1418SP4_03_CORETEK03AE_11C_V1_GPRS_MMI/Tools/MinGW/include/c++/3.3.1/bits/stl_iterator.h ****        *  @return  TODO
 189:d:/github/AIOT_WORKSHOP/AIoT_MT2503AVE_SDK/11CW1418SP4_03_CORETEK03AE_11C_V1_GPRS_MMI/Tools/MinGW/include/c++/3.3.1/bits/stl_iterator.h ****        *
 190:d:/github/AIOT_WORKSHOP/AIoT_MT2503AVE_SDK/11CW1418SP4_03_CORETEK03AE_11C_V1_GPRS_MMI/Tools/MinGW/include/c++/3.3.1/bits/stl_iterator.h ****        *  @doctodo
 191:d:/github/AIOT_WORKSHOP/AIoT_MT2503AVE_SDK/11CW1418SP4_03_CORETEK03AE_11C_V1_GPRS_MMI/Tools/MinGW/include/c++/3.3.1/bits/stl_iterator.h ****       */
 192:d:/github/AIOT_WORKSHOP/AIoT_MT2503AVE_SDK/11CW1418SP4_03_CORETEK03AE_11C_V1_GPRS_MMI/Tools/MinGW/include/c++/3.3.1/bits/stl_iterator.h ****       reverse_iterator& 
 193:d:/github/AIOT_WORKSHOP/AIoT_MT2503AVE_SDK/11CW1418SP4_03_CORETEK03AE_11C_V1_GPRS_MMI/Tools/MinGW/include/c++/3.3.1/bits/stl_iterator.h ****       operator--() 
 194:d:/github/AIOT_WORKSHOP/AIoT_MT2503AVE_SDK/11CW1418SP4_03_CORETEK03AE_11C_V1_GPRS_MMI/Tools/MinGW/include/c++/3.3.1/bits/stl_iterator.h ****       {
 195:d:/github/AIOT_WORKSHOP/AIoT_MT2503AVE_SDK/11CW1418SP4_03_CORETEK03AE_11C_V1_GPRS_MMI/Tools/MinGW/include/c++/3.3.1/bits/stl_iterator.h **** 	++current;
 196:d:/github/AIOT_WORKSHOP/AIoT_MT2503AVE_SDK/11CW1418SP4_03_CORETEK03AE_11C_V1_GPRS_MMI/Tools/MinGW/include/c++/3.3.1/bits/stl_iterator.h **** 	return *this;
 197:d:/github/AIOT_WORKSHOP/AIoT_MT2503AVE_SDK/11CW1418SP4_03_CORETEK03AE_11C_V1_GPRS_MMI/Tools/MinGW/include/c++/3.3.1/bits/stl_iterator.h ****       }
 198:d:/github/AIOT_WORKSHOP/AIoT_MT2503AVE_SDK/11CW1418SP4_03_CORETEK03AE_11C_V1_GPRS_MMI/Tools/MinGW/include/c++/3.3.1/bits/stl_iterator.h **** 
 199:d:/github/AIOT_WORKSHOP/AIoT_MT2503AVE_SDK/11CW1418SP4_03_CORETEK03AE_11C_V1_GPRS_MMI/Tools/MinGW/include/c++/3.3.1/bits/stl_iterator.h ****       /**
 200:d:/github/AIOT_WORKSHOP/AIoT_MT2503AVE_SDK/11CW1418SP4_03_CORETEK03AE_11C_V1_GPRS_MMI/Tools/MinGW/include/c++/3.3.1/bits/stl_iterator.h ****        *  @return  TODO
GAS LISTING d:/github/AIOT_WORKSHOP/AIoT_MT2503AVE_SDK/11CW1418SP4_03_CORETEK03AE_11C_V1_GPRS_MMI/plutommi/Customer/ResGenerator/gcctmp/ccmAfaaa.s 			page 260


 201:d:/github/AIOT_WORKSHOP/AIoT_MT2503AVE_SDK/11CW1418SP4_03_CORETEK03AE_11C_V1_GPRS_MMI/Tools/MinGW/include/c++/3.3.1/bits/stl_iterator.h ****        *
 202:d:/github/AIOT_WORKSHOP/AIoT_MT2503AVE_SDK/11CW1418SP4_03_CORETEK03AE_11C_V1_GPRS_MMI/Tools/MinGW/include/c++/3.3.1/bits/stl_iterator.h ****        *  @doctodo
 203:d:/github/AIOT_WORKSHOP/AIoT_MT2503AVE_SDK/11CW1418SP4_03_CORETEK03AE_11C_V1_GPRS_MMI/Tools/MinGW/include/c++/3.3.1/bits/stl_iterator.h ****       */
 204:d:/github/AIOT_WORKSHOP/AIoT_MT2503AVE_SDK/11CW1418SP4_03_CORETEK03AE_11C_V1_GPRS_MMI/Tools/MinGW/include/c++/3.3.1/bits/stl_iterator.h ****       reverse_iterator operator--(int) 
 205:d:/github/AIOT_WORKSHOP/AIoT_MT2503AVE_SDK/11CW1418SP4_03_CORETEK03AE_11C_V1_GPRS_MMI/Tools/MinGW/include/c++/3.3.1/bits/stl_iterator.h ****       {
 206:d:/github/AIOT_WORKSHOP/AIoT_MT2503AVE_SDK/11CW1418SP4_03_CORETEK03AE_11C_V1_GPRS_MMI/Tools/MinGW/include/c++/3.3.1/bits/stl_iterator.h **** 	reverse_iterator __tmp = *this;
 207:d:/github/AIOT_WORKSHOP/AIoT_MT2503AVE_SDK/11CW1418SP4_03_CORETEK03AE_11C_V1_GPRS_MMI/Tools/MinGW/include/c++/3.3.1/bits/stl_iterator.h **** 	++current;
 208:d:/github/AIOT_WORKSHOP/AIoT_MT2503AVE_SDK/11CW1418SP4_03_CORETEK03AE_11C_V1_GPRS_MMI/Tools/MinGW/include/c++/3.3.1/bits/stl_iterator.h **** 	return __tmp;
 209:d:/github/AIOT_WORKSHOP/AIoT_MT2503AVE_SDK/11CW1418SP4_03_CORETEK03AE_11C_V1_GPRS_MMI/Tools/MinGW/include/c++/3.3.1/bits/stl_iterator.h ****       }
 210:d:/github/AIOT_WORKSHOP/AIoT_MT2503AVE_SDK/11CW1418SP4_03_CORETEK03AE_11C_V1_GPRS_MMI/Tools/MinGW/include/c++/3.3.1/bits/stl_iterator.h ****       
 211:d:/github/AIOT_WORKSHOP/AIoT_MT2503AVE_SDK/11CW1418SP4_03_CORETEK03AE_11C_V1_GPRS_MMI/Tools/MinGW/include/c++/3.3.1/bits/stl_iterator.h ****       /**
 212:d:/github/AIOT_WORKSHOP/AIoT_MT2503AVE_SDK/11CW1418SP4_03_CORETEK03AE_11C_V1_GPRS_MMI/Tools/MinGW/include/c++/3.3.1/bits/stl_iterator.h ****        *  @return  TODO
 213:d:/github/AIOT_WORKSHOP/AIoT_MT2503AVE_SDK/11CW1418SP4_03_CORETEK03AE_11C_V1_GPRS_MMI/Tools/MinGW/include/c++/3.3.1/bits/stl_iterator.h ****        *
 214:d:/github/AIOT_WORKSHOP/AIoT_MT2503AVE_SDK/11CW1418SP4_03_CORETEK03AE_11C_V1_GPRS_MMI/Tools/MinGW/include/c++/3.3.1/bits/stl_iterator.h ****        *  @doctodo
 215:d:/github/AIOT_WORKSHOP/AIoT_MT2503AVE_SDK/11CW1418SP4_03_CORETEK03AE_11C_V1_GPRS_MMI/Tools/MinGW/include/c++/3.3.1/bits/stl_iterator.h ****       */
 216:d:/github/AIOT_WORKSHOP/AIoT_MT2503AVE_SDK/11CW1418SP4_03_CORETEK03AE_11C_V1_GPRS_MMI/Tools/MinGW/include/c++/3.3.1/bits/stl_iterator.h ****       reverse_iterator 
 217:d:/github/AIOT_WORKSHOP/AIoT_MT2503AVE_SDK/11CW1418SP4_03_CORETEK03AE_11C_V1_GPRS_MMI/Tools/MinGW/include/c++/3.3.1/bits/stl_iterator.h ****       operator+(difference_type __n) const 
 218:d:/github/AIOT_WORKSHOP/AIoT_MT2503AVE_SDK/11CW1418SP4_03_CORETEK03AE_11C_V1_GPRS_MMI/Tools/MinGW/include/c++/3.3.1/bits/stl_iterator.h ****       { return reverse_iterator(current - __n); }
 219:d:/github/AIOT_WORKSHOP/AIoT_MT2503AVE_SDK/11CW1418SP4_03_CORETEK03AE_11C_V1_GPRS_MMI/Tools/MinGW/include/c++/3.3.1/bits/stl_iterator.h **** 
 220:d:/github/AIOT_WORKSHOP/AIoT_MT2503AVE_SDK/11CW1418SP4_03_CORETEK03AE_11C_V1_GPRS_MMI/Tools/MinGW/include/c++/3.3.1/bits/stl_iterator.h ****       /**
 221:d:/github/AIOT_WORKSHOP/AIoT_MT2503AVE_SDK/11CW1418SP4_03_CORETEK03AE_11C_V1_GPRS_MMI/Tools/MinGW/include/c++/3.3.1/bits/stl_iterator.h ****        *  @return  TODO
 222:d:/github/AIOT_WORKSHOP/AIoT_MT2503AVE_SDK/11CW1418SP4_03_CORETEK03AE_11C_V1_GPRS_MMI/Tools/MinGW/include/c++/3.3.1/bits/stl_iterator.h ****        *
 223:d:/github/AIOT_WORKSHOP/AIoT_MT2503AVE_SDK/11CW1418SP4_03_CORETEK03AE_11C_V1_GPRS_MMI/Tools/MinGW/include/c++/3.3.1/bits/stl_iterator.h ****        *  @doctodo
 224:d:/github/AIOT_WORKSHOP/AIoT_MT2503AVE_SDK/11CW1418SP4_03_CORETEK03AE_11C_V1_GPRS_MMI/Tools/MinGW/include/c++/3.3.1/bits/stl_iterator.h ****       */
 225:d:/github/AIOT_WORKSHOP/AIoT_MT2503AVE_SDK/11CW1418SP4_03_CORETEK03AE_11C_V1_GPRS_MMI/Tools/MinGW/include/c++/3.3.1/bits/stl_iterator.h ****       reverse_iterator& 
 226:d:/github/AIOT_WORKSHOP/AIoT_MT2503AVE_SDK/11CW1418SP4_03_CORETEK03AE_11C_V1_GPRS_MMI/Tools/MinGW/include/c++/3.3.1/bits/stl_iterator.h ****       operator+=(difference_type __n) 
 227:d:/github/AIOT_WORKSHOP/AIoT_MT2503AVE_SDK/11CW1418SP4_03_CORETEK03AE_11C_V1_GPRS_MMI/Tools/MinGW/include/c++/3.3.1/bits/stl_iterator.h ****       {
 228:d:/github/AIOT_WORKSHOP/AIoT_MT2503AVE_SDK/11CW1418SP4_03_CORETEK03AE_11C_V1_GPRS_MMI/Tools/MinGW/include/c++/3.3.1/bits/stl_iterator.h **** 	current -= __n;
 229:d:/github/AIOT_WORKSHOP/AIoT_MT2503AVE_SDK/11CW1418SP4_03_CORETEK03AE_11C_V1_GPRS_MMI/Tools/MinGW/include/c++/3.3.1/bits/stl_iterator.h **** 	return *this;
 230:d:/github/AIOT_WORKSHOP/AIoT_MT2503AVE_SDK/11CW1418SP4_03_CORETEK03AE_11C_V1_GPRS_MMI/Tools/MinGW/include/c++/3.3.1/bits/stl_iterator.h ****       }
 231:d:/github/AIOT_WORKSHOP/AIoT_MT2503AVE_SDK/11CW1418SP4_03_CORETEK03AE_11C_V1_GPRS_MMI/Tools/MinGW/include/c++/3.3.1/bits/stl_iterator.h **** 
 232:d:/github/AIOT_WORKSHOP/AIoT_MT2503AVE_SDK/11CW1418SP4_03_CORETEK03AE_11C_V1_GPRS_MMI/Tools/MinGW/include/c++/3.3.1/bits/stl_iterator.h ****       /**
 233:d:/github/AIOT_WORKSHOP/AIoT_MT2503AVE_SDK/11CW1418SP4_03_CORETEK03AE_11C_V1_GPRS_MMI/Tools/MinGW/include/c++/3.3.1/bits/stl_iterator.h ****        *  @return  TODO
 234:d:/github/AIOT_WORKSHOP/AIoT_MT2503AVE_SDK/11CW1418SP4_03_CORETEK03AE_11C_V1_GPRS_MMI/Tools/MinGW/include/c++/3.3.1/bits/stl_iterator.h ****        *
 235:d:/github/AIOT_WORKSHOP/AIoT_MT2503AVE_SDK/11CW1418SP4_03_CORETEK03AE_11C_V1_GPRS_MMI/Tools/MinGW/include/c++/3.3.1/bits/stl_iterator.h ****        *  @doctodo
 236:d:/github/AIOT_WORKSHOP/AIoT_MT2503AVE_SDK/11CW1418SP4_03_CORETEK03AE_11C_V1_GPRS_MMI/Tools/MinGW/include/c++/3.3.1/bits/stl_iterator.h ****       */
 237:d:/github/AIOT_WORKSHOP/AIoT_MT2503AVE_SDK/11CW1418SP4_03_CORETEK03AE_11C_V1_GPRS_MMI/Tools/MinGW/include/c++/3.3.1/bits/stl_iterator.h ****       reverse_iterator 
 238:d:/github/AIOT_WORKSHOP/AIoT_MT2503AVE_SDK/11CW1418SP4_03_CORETEK03AE_11C_V1_GPRS_MMI/Tools/MinGW/include/c++/3.3.1/bits/stl_iterator.h ****       operator-(difference_type __n) const 
 239:d:/github/AIOT_WORKSHOP/AIoT_MT2503AVE_SDK/11CW1418SP4_03_CORETEK03AE_11C_V1_GPRS_MMI/Tools/MinGW/include/c++/3.3.1/bits/stl_iterator.h ****       { return reverse_iterator(current + __n); }
 240:d:/github/AIOT_WORKSHOP/AIoT_MT2503AVE_SDK/11CW1418SP4_03_CORETEK03AE_11C_V1_GPRS_MMI/Tools/MinGW/include/c++/3.3.1/bits/stl_iterator.h **** 
 241:d:/github/AIOT_WORKSHOP/AIoT_MT2503AVE_SDK/11CW1418SP4_03_CORETEK03AE_11C_V1_GPRS_MMI/Tools/MinGW/include/c++/3.3.1/bits/stl_iterator.h ****       /**
 242:d:/github/AIOT_WORKSHOP/AIoT_MT2503AVE_SDK/11CW1418SP4_03_CORETEK03AE_11C_V1_GPRS_MMI/Tools/MinGW/include/c++/3.3.1/bits/stl_iterator.h ****        *  @return  TODO
 243:d:/github/AIOT_WORKSHOP/AIoT_MT2503AVE_SDK/11CW1418SP4_03_CORETEK03AE_11C_V1_GPRS_MMI/Tools/MinGW/include/c++/3.3.1/bits/stl_iterator.h ****        *
 244:d:/github/AIOT_WORKSHOP/AIoT_MT2503AVE_SDK/11CW1418SP4_03_CORETEK03AE_11C_V1_GPRS_MMI/Tools/MinGW/include/c++/3.3.1/bits/stl_iterator.h ****        *  @doctodo
 245:d:/github/AIOT_WORKSHOP/AIoT_MT2503AVE_SDK/11CW1418SP4_03_CORETEK03AE_11C_V1_GPRS_MMI/Tools/MinGW/include/c++/3.3.1/bits/stl_iterator.h ****       */
 246:d:/github/AIOT_WORKSHOP/AIoT_MT2503AVE_SDK/11CW1418SP4_03_CORETEK03AE_11C_V1_GPRS_MMI/Tools/MinGW/include/c++/3.3.1/bits/stl_iterator.h ****       reverse_iterator& 
 247:d:/github/AIOT_WORKSHOP/AIoT_MT2503AVE_SDK/11CW1418SP4_03_CORETEK03AE_11C_V1_GPRS_MMI/Tools/MinGW/include/c++/3.3.1/bits/stl_iterator.h ****       operator-=(difference_type __n) 
 248:d:/github/AIOT_WORKSHOP/AIoT_MT2503AVE_SDK/11CW1418SP4_03_CORETEK03AE_11C_V1_GPRS_MMI/Tools/MinGW/include/c++/3.3.1/bits/stl_iterator.h ****       {
 249:d:/github/AIOT_WORKSHOP/AIoT_MT2503AVE_SDK/11CW1418SP4_03_CORETEK03AE_11C_V1_GPRS_MMI/Tools/MinGW/include/c++/3.3.1/bits/stl_iterator.h **** 	current += __n;
 250:d:/github/AIOT_WORKSHOP/AIoT_MT2503AVE_SDK/11CW1418SP4_03_CORETEK03AE_11C_V1_GPRS_MMI/Tools/MinGW/include/c++/3.3.1/bits/stl_iterator.h **** 	return *this;
 251:d:/github/AIOT_WORKSHOP/AIoT_MT2503AVE_SDK/11CW1418SP4_03_CORETEK03AE_11C_V1_GPRS_MMI/Tools/MinGW/include/c++/3.3.1/bits/stl_iterator.h ****       }
 252:d:/github/AIOT_WORKSHOP/AIoT_MT2503AVE_SDK/11CW1418SP4_03_CORETEK03AE_11C_V1_GPRS_MMI/Tools/MinGW/include/c++/3.3.1/bits/stl_iterator.h **** 
 253:d:/github/AIOT_WORKSHOP/AIoT_MT2503AVE_SDK/11CW1418SP4_03_CORETEK03AE_11C_V1_GPRS_MMI/Tools/MinGW/include/c++/3.3.1/bits/stl_iterator.h ****       /**
 254:d:/github/AIOT_WORKSHOP/AIoT_MT2503AVE_SDK/11CW1418SP4_03_CORETEK03AE_11C_V1_GPRS_MMI/Tools/MinGW/include/c++/3.3.1/bits/stl_iterator.h ****        *  @return  TODO
 255:d:/github/AIOT_WORKSHOP/AIoT_MT2503AVE_SDK/11CW1418SP4_03_CORETEK03AE_11C_V1_GPRS_MMI/Tools/MinGW/include/c++/3.3.1/bits/stl_iterator.h ****        *
 256:d:/github/AIOT_WORKSHOP/AIoT_MT2503AVE_SDK/11CW1418SP4_03_CORETEK03AE_11C_V1_GPRS_MMI/Tools/MinGW/include/c++/3.3.1/bits/stl_iterator.h ****        *  @doctodo
 257:d:/github/AIOT_WORKSHOP/AIoT_MT2503AVE_SDK/11CW1418SP4_03_CORETEK03AE_11C_V1_GPRS_MMI/Tools/MinGW/include/c++/3.3.1/bits/stl_iterator.h ****       */
GAS LISTING d:/github/AIOT_WORKSHOP/AIoT_MT2503AVE_SDK/11CW1418SP4_03_CORETEK03AE_11C_V1_GPRS_MMI/plutommi/Customer/ResGenerator/gcctmp/ccmAfaaa.s 			page 261


 258:d:/github/AIOT_WORKSHOP/AIoT_MT2503AVE_SDK/11CW1418SP4_03_CORETEK03AE_11C_V1_GPRS_MMI/Tools/MinGW/include/c++/3.3.1/bits/stl_iterator.h ****       reference 
 259:d:/github/AIOT_WORKSHOP/AIoT_MT2503AVE_SDK/11CW1418SP4_03_CORETEK03AE_11C_V1_GPRS_MMI/Tools/MinGW/include/c++/3.3.1/bits/stl_iterator.h ****       operator[](difference_type __n) const { return *(*this + __n); }  
 260:d:/github/AIOT_WORKSHOP/AIoT_MT2503AVE_SDK/11CW1418SP4_03_CORETEK03AE_11C_V1_GPRS_MMI/Tools/MinGW/include/c++/3.3.1/bits/stl_iterator.h ****     }; 
 261:d:/github/AIOT_WORKSHOP/AIoT_MT2503AVE_SDK/11CW1418SP4_03_CORETEK03AE_11C_V1_GPRS_MMI/Tools/MinGW/include/c++/3.3.1/bits/stl_iterator.h ****  
 262:d:/github/AIOT_WORKSHOP/AIoT_MT2503AVE_SDK/11CW1418SP4_03_CORETEK03AE_11C_V1_GPRS_MMI/Tools/MinGW/include/c++/3.3.1/bits/stl_iterator.h ****   //@{
 263:d:/github/AIOT_WORKSHOP/AIoT_MT2503AVE_SDK/11CW1418SP4_03_CORETEK03AE_11C_V1_GPRS_MMI/Tools/MinGW/include/c++/3.3.1/bits/stl_iterator.h ****   /**
 264:d:/github/AIOT_WORKSHOP/AIoT_MT2503AVE_SDK/11CW1418SP4_03_CORETEK03AE_11C_V1_GPRS_MMI/Tools/MinGW/include/c++/3.3.1/bits/stl_iterator.h ****    *  @param  x  A %reverse_iterator.
 265:d:/github/AIOT_WORKSHOP/AIoT_MT2503AVE_SDK/11CW1418SP4_03_CORETEK03AE_11C_V1_GPRS_MMI/Tools/MinGW/include/c++/3.3.1/bits/stl_iterator.h ****    *  @param  y  A %reverse_iterator.
 266:d:/github/AIOT_WORKSHOP/AIoT_MT2503AVE_SDK/11CW1418SP4_03_CORETEK03AE_11C_V1_GPRS_MMI/Tools/MinGW/include/c++/3.3.1/bits/stl_iterator.h ****    *  @return  A simple bool.
 267:d:/github/AIOT_WORKSHOP/AIoT_MT2503AVE_SDK/11CW1418SP4_03_CORETEK03AE_11C_V1_GPRS_MMI/Tools/MinGW/include/c++/3.3.1/bits/stl_iterator.h ****    *
 268:d:/github/AIOT_WORKSHOP/AIoT_MT2503AVE_SDK/11CW1418SP4_03_CORETEK03AE_11C_V1_GPRS_MMI/Tools/MinGW/include/c++/3.3.1/bits/stl_iterator.h ****    *  Reverse iterators forward many operations to their underlying base()
 269:d:/github/AIOT_WORKSHOP/AIoT_MT2503AVE_SDK/11CW1418SP4_03_CORETEK03AE_11C_V1_GPRS_MMI/Tools/MinGW/include/c++/3.3.1/bits/stl_iterator.h ****    *  iterators.  Others are implemented in terms of one another.
 270:d:/github/AIOT_WORKSHOP/AIoT_MT2503AVE_SDK/11CW1418SP4_03_CORETEK03AE_11C_V1_GPRS_MMI/Tools/MinGW/include/c++/3.3.1/bits/stl_iterator.h ****    *
 271:d:/github/AIOT_WORKSHOP/AIoT_MT2503AVE_SDK/11CW1418SP4_03_CORETEK03AE_11C_V1_GPRS_MMI/Tools/MinGW/include/c++/3.3.1/bits/stl_iterator.h ****   */
 272:d:/github/AIOT_WORKSHOP/AIoT_MT2503AVE_SDK/11CW1418SP4_03_CORETEK03AE_11C_V1_GPRS_MMI/Tools/MinGW/include/c++/3.3.1/bits/stl_iterator.h ****   template<typename _Iterator>
 273:d:/github/AIOT_WORKSHOP/AIoT_MT2503AVE_SDK/11CW1418SP4_03_CORETEK03AE_11C_V1_GPRS_MMI/Tools/MinGW/include/c++/3.3.1/bits/stl_iterator.h ****     inline bool 
 274:d:/github/AIOT_WORKSHOP/AIoT_MT2503AVE_SDK/11CW1418SP4_03_CORETEK03AE_11C_V1_GPRS_MMI/Tools/MinGW/include/c++/3.3.1/bits/stl_iterator.h ****     operator==(const reverse_iterator<_Iterator>& __x, 
 275:d:/github/AIOT_WORKSHOP/AIoT_MT2503AVE_SDK/11CW1418SP4_03_CORETEK03AE_11C_V1_GPRS_MMI/Tools/MinGW/include/c++/3.3.1/bits/stl_iterator.h **** 	       const reverse_iterator<_Iterator>& __y) 
 276:d:/github/AIOT_WORKSHOP/AIoT_MT2503AVE_SDK/11CW1418SP4_03_CORETEK03AE_11C_V1_GPRS_MMI/Tools/MinGW/include/c++/3.3.1/bits/stl_iterator.h ****     { return __x.base() == __y.base(); }
 277:d:/github/AIOT_WORKSHOP/AIoT_MT2503AVE_SDK/11CW1418SP4_03_CORETEK03AE_11C_V1_GPRS_MMI/Tools/MinGW/include/c++/3.3.1/bits/stl_iterator.h **** 
 278:d:/github/AIOT_WORKSHOP/AIoT_MT2503AVE_SDK/11CW1418SP4_03_CORETEK03AE_11C_V1_GPRS_MMI/Tools/MinGW/include/c++/3.3.1/bits/stl_iterator.h ****   template<typename _Iterator>
 279:d:/github/AIOT_WORKSHOP/AIoT_MT2503AVE_SDK/11CW1418SP4_03_CORETEK03AE_11C_V1_GPRS_MMI/Tools/MinGW/include/c++/3.3.1/bits/stl_iterator.h ****     inline bool 
 280:d:/github/AIOT_WORKSHOP/AIoT_MT2503AVE_SDK/11CW1418SP4_03_CORETEK03AE_11C_V1_GPRS_MMI/Tools/MinGW/include/c++/3.3.1/bits/stl_iterator.h ****     operator<(const reverse_iterator<_Iterator>& __x, 
 281:d:/github/AIOT_WORKSHOP/AIoT_MT2503AVE_SDK/11CW1418SP4_03_CORETEK03AE_11C_V1_GPRS_MMI/Tools/MinGW/include/c++/3.3.1/bits/stl_iterator.h **** 	      const reverse_iterator<_Iterator>& __y) 
 282:d:/github/AIOT_WORKSHOP/AIoT_MT2503AVE_SDK/11CW1418SP4_03_CORETEK03AE_11C_V1_GPRS_MMI/Tools/MinGW/include/c++/3.3.1/bits/stl_iterator.h ****     { return __y.base() < __x.base(); }
 283:d:/github/AIOT_WORKSHOP/AIoT_MT2503AVE_SDK/11CW1418SP4_03_CORETEK03AE_11C_V1_GPRS_MMI/Tools/MinGW/include/c++/3.3.1/bits/stl_iterator.h **** 
 284:d:/github/AIOT_WORKSHOP/AIoT_MT2503AVE_SDK/11CW1418SP4_03_CORETEK03AE_11C_V1_GPRS_MMI/Tools/MinGW/include/c++/3.3.1/bits/stl_iterator.h ****   template<typename _Iterator>
 285:d:/github/AIOT_WORKSHOP/AIoT_MT2503AVE_SDK/11CW1418SP4_03_CORETEK03AE_11C_V1_GPRS_MMI/Tools/MinGW/include/c++/3.3.1/bits/stl_iterator.h ****     inline bool 
 286:d:/github/AIOT_WORKSHOP/AIoT_MT2503AVE_SDK/11CW1418SP4_03_CORETEK03AE_11C_V1_GPRS_MMI/Tools/MinGW/include/c++/3.3.1/bits/stl_iterator.h ****     operator!=(const reverse_iterator<_Iterator>& __x, 
 287:d:/github/AIOT_WORKSHOP/AIoT_MT2503AVE_SDK/11CW1418SP4_03_CORETEK03AE_11C_V1_GPRS_MMI/Tools/MinGW/include/c++/3.3.1/bits/stl_iterator.h **** 	       const reverse_iterator<_Iterator>& __y) 
 288:d:/github/AIOT_WORKSHOP/AIoT_MT2503AVE_SDK/11CW1418SP4_03_CORETEK03AE_11C_V1_GPRS_MMI/Tools/MinGW/include/c++/3.3.1/bits/stl_iterator.h ****     { return !(__x == __y); }
 289:d:/github/AIOT_WORKSHOP/AIoT_MT2503AVE_SDK/11CW1418SP4_03_CORETEK03AE_11C_V1_GPRS_MMI/Tools/MinGW/include/c++/3.3.1/bits/stl_iterator.h **** 
 290:d:/github/AIOT_WORKSHOP/AIoT_MT2503AVE_SDK/11CW1418SP4_03_CORETEK03AE_11C_V1_GPRS_MMI/Tools/MinGW/include/c++/3.3.1/bits/stl_iterator.h ****   template<typename _Iterator>
 291:d:/github/AIOT_WORKSHOP/AIoT_MT2503AVE_SDK/11CW1418SP4_03_CORETEK03AE_11C_V1_GPRS_MMI/Tools/MinGW/include/c++/3.3.1/bits/stl_iterator.h ****     inline bool 
 292:d:/github/AIOT_WORKSHOP/AIoT_MT2503AVE_SDK/11CW1418SP4_03_CORETEK03AE_11C_V1_GPRS_MMI/Tools/MinGW/include/c++/3.3.1/bits/stl_iterator.h ****     operator>(const reverse_iterator<_Iterator>& __x, 
 293:d:/github/AIOT_WORKSHOP/AIoT_MT2503AVE_SDK/11CW1418SP4_03_CORETEK03AE_11C_V1_GPRS_MMI/Tools/MinGW/include/c++/3.3.1/bits/stl_iterator.h **** 	      const reverse_iterator<_Iterator>& __y) 
 294:d:/github/AIOT_WORKSHOP/AIoT_MT2503AVE_SDK/11CW1418SP4_03_CORETEK03AE_11C_V1_GPRS_MMI/Tools/MinGW/include/c++/3.3.1/bits/stl_iterator.h ****     { return __y < __x; }
 295:d:/github/AIOT_WORKSHOP/AIoT_MT2503AVE_SDK/11CW1418SP4_03_CORETEK03AE_11C_V1_GPRS_MMI/Tools/MinGW/include/c++/3.3.1/bits/stl_iterator.h **** 
 296:d:/github/AIOT_WORKSHOP/AIoT_MT2503AVE_SDK/11CW1418SP4_03_CORETEK03AE_11C_V1_GPRS_MMI/Tools/MinGW/include/c++/3.3.1/bits/stl_iterator.h ****   template<typename _Iterator>
 297:d:/github/AIOT_WORKSHOP/AIoT_MT2503AVE_SDK/11CW1418SP4_03_CORETEK03AE_11C_V1_GPRS_MMI/Tools/MinGW/include/c++/3.3.1/bits/stl_iterator.h ****     inline bool 
 298:d:/github/AIOT_WORKSHOP/AIoT_MT2503AVE_SDK/11CW1418SP4_03_CORETEK03AE_11C_V1_GPRS_MMI/Tools/MinGW/include/c++/3.3.1/bits/stl_iterator.h ****     operator<=(const reverse_iterator<_Iterator>& __x, 
 299:d:/github/AIOT_WORKSHOP/AIoT_MT2503AVE_SDK/11CW1418SP4_03_CORETEK03AE_11C_V1_GPRS_MMI/Tools/MinGW/include/c++/3.3.1/bits/stl_iterator.h **** 		const reverse_iterator<_Iterator>& __y) 
 300:d:/github/AIOT_WORKSHOP/AIoT_MT2503AVE_SDK/11CW1418SP4_03_CORETEK03AE_11C_V1_GPRS_MMI/Tools/MinGW/include/c++/3.3.1/bits/stl_iterator.h ****     { return !(__y < __x); }
 301:d:/github/AIOT_WORKSHOP/AIoT_MT2503AVE_SDK/11CW1418SP4_03_CORETEK03AE_11C_V1_GPRS_MMI/Tools/MinGW/include/c++/3.3.1/bits/stl_iterator.h **** 
 302:d:/github/AIOT_WORKSHOP/AIoT_MT2503AVE_SDK/11CW1418SP4_03_CORETEK03AE_11C_V1_GPRS_MMI/Tools/MinGW/include/c++/3.3.1/bits/stl_iterator.h ****   template<typename _Iterator>
 303:d:/github/AIOT_WORKSHOP/AIoT_MT2503AVE_SDK/11CW1418SP4_03_CORETEK03AE_11C_V1_GPRS_MMI/Tools/MinGW/include/c++/3.3.1/bits/stl_iterator.h ****     inline bool 
 304:d:/github/AIOT_WORKSHOP/AIoT_MT2503AVE_SDK/11CW1418SP4_03_CORETEK03AE_11C_V1_GPRS_MMI/Tools/MinGW/include/c++/3.3.1/bits/stl_iterator.h ****     operator>=(const reverse_iterator<_Iterator>& __x, 
 305:d:/github/AIOT_WORKSHOP/AIoT_MT2503AVE_SDK/11CW1418SP4_03_CORETEK03AE_11C_V1_GPRS_MMI/Tools/MinGW/include/c++/3.3.1/bits/stl_iterator.h **** 	       const reverse_iterator<_Iterator>& __y) 
 306:d:/github/AIOT_WORKSHOP/AIoT_MT2503AVE_SDK/11CW1418SP4_03_CORETEK03AE_11C_V1_GPRS_MMI/Tools/MinGW/include/c++/3.3.1/bits/stl_iterator.h ****     { return !(__x < __y); }
 307:d:/github/AIOT_WORKSHOP/AIoT_MT2503AVE_SDK/11CW1418SP4_03_CORETEK03AE_11C_V1_GPRS_MMI/Tools/MinGW/include/c++/3.3.1/bits/stl_iterator.h **** 
 308:d:/github/AIOT_WORKSHOP/AIoT_MT2503AVE_SDK/11CW1418SP4_03_CORETEK03AE_11C_V1_GPRS_MMI/Tools/MinGW/include/c++/3.3.1/bits/stl_iterator.h ****   template<typename _Iterator>
 309:d:/github/AIOT_WORKSHOP/AIoT_MT2503AVE_SDK/11CW1418SP4_03_CORETEK03AE_11C_V1_GPRS_MMI/Tools/MinGW/include/c++/3.3.1/bits/stl_iterator.h ****     inline typename reverse_iterator<_Iterator>::difference_type
 310:d:/github/AIOT_WORKSHOP/AIoT_MT2503AVE_SDK/11CW1418SP4_03_CORETEK03AE_11C_V1_GPRS_MMI/Tools/MinGW/include/c++/3.3.1/bits/stl_iterator.h ****     operator-(const reverse_iterator<_Iterator>& __x, 
 311:d:/github/AIOT_WORKSHOP/AIoT_MT2503AVE_SDK/11CW1418SP4_03_CORETEK03AE_11C_V1_GPRS_MMI/Tools/MinGW/include/c++/3.3.1/bits/stl_iterator.h **** 	      const reverse_iterator<_Iterator>& __y) 
 312:d:/github/AIOT_WORKSHOP/AIoT_MT2503AVE_SDK/11CW1418SP4_03_CORETEK03AE_11C_V1_GPRS_MMI/Tools/MinGW/include/c++/3.3.1/bits/stl_iterator.h ****     { return __y.base() - __x.base(); }
 313:d:/github/AIOT_WORKSHOP/AIoT_MT2503AVE_SDK/11CW1418SP4_03_CORETEK03AE_11C_V1_GPRS_MMI/Tools/MinGW/include/c++/3.3.1/bits/stl_iterator.h **** 
 314:d:/github/AIOT_WORKSHOP/AIoT_MT2503AVE_SDK/11CW1418SP4_03_CORETEK03AE_11C_V1_GPRS_MMI/Tools/MinGW/include/c++/3.3.1/bits/stl_iterator.h ****   template<typename _Iterator>
GAS LISTING d:/github/AIOT_WORKSHOP/AIoT_MT2503AVE_SDK/11CW1418SP4_03_CORETEK03AE_11C_V1_GPRS_MMI/plutommi/Customer/ResGenerator/gcctmp/ccmAfaaa.s 			page 262


 315:d:/github/AIOT_WORKSHOP/AIoT_MT2503AVE_SDK/11CW1418SP4_03_CORETEK03AE_11C_V1_GPRS_MMI/Tools/MinGW/include/c++/3.3.1/bits/stl_iterator.h ****     inline reverse_iterator<_Iterator> 
 316:d:/github/AIOT_WORKSHOP/AIoT_MT2503AVE_SDK/11CW1418SP4_03_CORETEK03AE_11C_V1_GPRS_MMI/Tools/MinGW/include/c++/3.3.1/bits/stl_iterator.h ****     operator+(typename reverse_iterator<_Iterator>::difference_type __n,
 317:d:/github/AIOT_WORKSHOP/AIoT_MT2503AVE_SDK/11CW1418SP4_03_CORETEK03AE_11C_V1_GPRS_MMI/Tools/MinGW/include/c++/3.3.1/bits/stl_iterator.h **** 	      const reverse_iterator<_Iterator>& __x) 
 318:d:/github/AIOT_WORKSHOP/AIoT_MT2503AVE_SDK/11CW1418SP4_03_CORETEK03AE_11C_V1_GPRS_MMI/Tools/MinGW/include/c++/3.3.1/bits/stl_iterator.h ****     { return reverse_iterator<_Iterator>(__x.base() - __n); }
 319:d:/github/AIOT_WORKSHOP/AIoT_MT2503AVE_SDK/11CW1418SP4_03_CORETEK03AE_11C_V1_GPRS_MMI/Tools/MinGW/include/c++/3.3.1/bits/stl_iterator.h ****   //@}
 320:d:/github/AIOT_WORKSHOP/AIoT_MT2503AVE_SDK/11CW1418SP4_03_CORETEK03AE_11C_V1_GPRS_MMI/Tools/MinGW/include/c++/3.3.1/bits/stl_iterator.h **** 
 321:d:/github/AIOT_WORKSHOP/AIoT_MT2503AVE_SDK/11CW1418SP4_03_CORETEK03AE_11C_V1_GPRS_MMI/Tools/MinGW/include/c++/3.3.1/bits/stl_iterator.h ****   // 24.4.2.2.1 back_insert_iterator
 322:d:/github/AIOT_WORKSHOP/AIoT_MT2503AVE_SDK/11CW1418SP4_03_CORETEK03AE_11C_V1_GPRS_MMI/Tools/MinGW/include/c++/3.3.1/bits/stl_iterator.h ****   /**
 323:d:/github/AIOT_WORKSHOP/AIoT_MT2503AVE_SDK/11CW1418SP4_03_CORETEK03AE_11C_V1_GPRS_MMI/Tools/MinGW/include/c++/3.3.1/bits/stl_iterator.h ****    *  @brief  Turns assignment into insertion.
 324:d:/github/AIOT_WORKSHOP/AIoT_MT2503AVE_SDK/11CW1418SP4_03_CORETEK03AE_11C_V1_GPRS_MMI/Tools/MinGW/include/c++/3.3.1/bits/stl_iterator.h ****    *
 325:d:/github/AIOT_WORKSHOP/AIoT_MT2503AVE_SDK/11CW1418SP4_03_CORETEK03AE_11C_V1_GPRS_MMI/Tools/MinGW/include/c++/3.3.1/bits/stl_iterator.h ****    *  These are output iterators, constructed from a container-of-T.
 326:d:/github/AIOT_WORKSHOP/AIoT_MT2503AVE_SDK/11CW1418SP4_03_CORETEK03AE_11C_V1_GPRS_MMI/Tools/MinGW/include/c++/3.3.1/bits/stl_iterator.h ****    *  Assigning a T to the iterator appends it to the container using
 327:d:/github/AIOT_WORKSHOP/AIoT_MT2503AVE_SDK/11CW1418SP4_03_CORETEK03AE_11C_V1_GPRS_MMI/Tools/MinGW/include/c++/3.3.1/bits/stl_iterator.h ****    *  push_back.
 328:d:/github/AIOT_WORKSHOP/AIoT_MT2503AVE_SDK/11CW1418SP4_03_CORETEK03AE_11C_V1_GPRS_MMI/Tools/MinGW/include/c++/3.3.1/bits/stl_iterator.h ****    *
 329:d:/github/AIOT_WORKSHOP/AIoT_MT2503AVE_SDK/11CW1418SP4_03_CORETEK03AE_11C_V1_GPRS_MMI/Tools/MinGW/include/c++/3.3.1/bits/stl_iterator.h ****    *  Tip:  Using the back_inserter function to create these iterators can
 330:d:/github/AIOT_WORKSHOP/AIoT_MT2503AVE_SDK/11CW1418SP4_03_CORETEK03AE_11C_V1_GPRS_MMI/Tools/MinGW/include/c++/3.3.1/bits/stl_iterator.h ****    *  save typing.
 331:d:/github/AIOT_WORKSHOP/AIoT_MT2503AVE_SDK/11CW1418SP4_03_CORETEK03AE_11C_V1_GPRS_MMI/Tools/MinGW/include/c++/3.3.1/bits/stl_iterator.h ****   */
 332:d:/github/AIOT_WORKSHOP/AIoT_MT2503AVE_SDK/11CW1418SP4_03_CORETEK03AE_11C_V1_GPRS_MMI/Tools/MinGW/include/c++/3.3.1/bits/stl_iterator.h ****   template<typename _Container>
 333:d:/github/AIOT_WORKSHOP/AIoT_MT2503AVE_SDK/11CW1418SP4_03_CORETEK03AE_11C_V1_GPRS_MMI/Tools/MinGW/include/c++/3.3.1/bits/stl_iterator.h ****     class back_insert_iterator 
 334:d:/github/AIOT_WORKSHOP/AIoT_MT2503AVE_SDK/11CW1418SP4_03_CORETEK03AE_11C_V1_GPRS_MMI/Tools/MinGW/include/c++/3.3.1/bits/stl_iterator.h ****     : public iterator<output_iterator_tag, void, void, void, void>
 335:d:/github/AIOT_WORKSHOP/AIoT_MT2503AVE_SDK/11CW1418SP4_03_CORETEK03AE_11C_V1_GPRS_MMI/Tools/MinGW/include/c++/3.3.1/bits/stl_iterator.h ****     {
 336:d:/github/AIOT_WORKSHOP/AIoT_MT2503AVE_SDK/11CW1418SP4_03_CORETEK03AE_11C_V1_GPRS_MMI/Tools/MinGW/include/c++/3.3.1/bits/stl_iterator.h ****     protected:
 337:d:/github/AIOT_WORKSHOP/AIoT_MT2503AVE_SDK/11CW1418SP4_03_CORETEK03AE_11C_V1_GPRS_MMI/Tools/MinGW/include/c++/3.3.1/bits/stl_iterator.h ****       _Container* container;
 338:d:/github/AIOT_WORKSHOP/AIoT_MT2503AVE_SDK/11CW1418SP4_03_CORETEK03AE_11C_V1_GPRS_MMI/Tools/MinGW/include/c++/3.3.1/bits/stl_iterator.h **** 
 339:d:/github/AIOT_WORKSHOP/AIoT_MT2503AVE_SDK/11CW1418SP4_03_CORETEK03AE_11C_V1_GPRS_MMI/Tools/MinGW/include/c++/3.3.1/bits/stl_iterator.h ****     public:
 340:d:/github/AIOT_WORKSHOP/AIoT_MT2503AVE_SDK/11CW1418SP4_03_CORETEK03AE_11C_V1_GPRS_MMI/Tools/MinGW/include/c++/3.3.1/bits/stl_iterator.h ****       /// A nested typedef for the type of whatever container you used.
 341:d:/github/AIOT_WORKSHOP/AIoT_MT2503AVE_SDK/11CW1418SP4_03_CORETEK03AE_11C_V1_GPRS_MMI/Tools/MinGW/include/c++/3.3.1/bits/stl_iterator.h ****       typedef _Container          container_type;
 342:d:/github/AIOT_WORKSHOP/AIoT_MT2503AVE_SDK/11CW1418SP4_03_CORETEK03AE_11C_V1_GPRS_MMI/Tools/MinGW/include/c++/3.3.1/bits/stl_iterator.h ****       
 343:d:/github/AIOT_WORKSHOP/AIoT_MT2503AVE_SDK/11CW1418SP4_03_CORETEK03AE_11C_V1_GPRS_MMI/Tools/MinGW/include/c++/3.3.1/bits/stl_iterator.h ****       /// The only way to create this %iterator is with a container.
 344:d:/github/AIOT_WORKSHOP/AIoT_MT2503AVE_SDK/11CW1418SP4_03_CORETEK03AE_11C_V1_GPRS_MMI/Tools/MinGW/include/c++/3.3.1/bits/stl_iterator.h ****       explicit 
 345:d:/github/AIOT_WORKSHOP/AIoT_MT2503AVE_SDK/11CW1418SP4_03_CORETEK03AE_11C_V1_GPRS_MMI/Tools/MinGW/include/c++/3.3.1/bits/stl_iterator.h ****       back_insert_iterator(_Container& __x) : container(&__x) { }
 346:d:/github/AIOT_WORKSHOP/AIoT_MT2503AVE_SDK/11CW1418SP4_03_CORETEK03AE_11C_V1_GPRS_MMI/Tools/MinGW/include/c++/3.3.1/bits/stl_iterator.h **** 
 347:d:/github/AIOT_WORKSHOP/AIoT_MT2503AVE_SDK/11CW1418SP4_03_CORETEK03AE_11C_V1_GPRS_MMI/Tools/MinGW/include/c++/3.3.1/bits/stl_iterator.h ****       /**
 348:d:/github/AIOT_WORKSHOP/AIoT_MT2503AVE_SDK/11CW1418SP4_03_CORETEK03AE_11C_V1_GPRS_MMI/Tools/MinGW/include/c++/3.3.1/bits/stl_iterator.h ****        *  @param  value  An instance of whatever type
 349:d:/github/AIOT_WORKSHOP/AIoT_MT2503AVE_SDK/11CW1418SP4_03_CORETEK03AE_11C_V1_GPRS_MMI/Tools/MinGW/include/c++/3.3.1/bits/stl_iterator.h ****        *                 container_type::const_reference is; presumably a
 350:d:/github/AIOT_WORKSHOP/AIoT_MT2503AVE_SDK/11CW1418SP4_03_CORETEK03AE_11C_V1_GPRS_MMI/Tools/MinGW/include/c++/3.3.1/bits/stl_iterator.h ****        *                 reference-to-const T for container<T>.
 351:d:/github/AIOT_WORKSHOP/AIoT_MT2503AVE_SDK/11CW1418SP4_03_CORETEK03AE_11C_V1_GPRS_MMI/Tools/MinGW/include/c++/3.3.1/bits/stl_iterator.h ****        *  @return  This %iterator, for chained operations.
 352:d:/github/AIOT_WORKSHOP/AIoT_MT2503AVE_SDK/11CW1418SP4_03_CORETEK03AE_11C_V1_GPRS_MMI/Tools/MinGW/include/c++/3.3.1/bits/stl_iterator.h ****        *
 353:d:/github/AIOT_WORKSHOP/AIoT_MT2503AVE_SDK/11CW1418SP4_03_CORETEK03AE_11C_V1_GPRS_MMI/Tools/MinGW/include/c++/3.3.1/bits/stl_iterator.h ****        *  This kind of %iterator doesn't really have a "position" in the
 354:d:/github/AIOT_WORKSHOP/AIoT_MT2503AVE_SDK/11CW1418SP4_03_CORETEK03AE_11C_V1_GPRS_MMI/Tools/MinGW/include/c++/3.3.1/bits/stl_iterator.h ****        *  container (you can think of the position as being permanently at
 355:d:/github/AIOT_WORKSHOP/AIoT_MT2503AVE_SDK/11CW1418SP4_03_CORETEK03AE_11C_V1_GPRS_MMI/Tools/MinGW/include/c++/3.3.1/bits/stl_iterator.h ****        *  the end, if you like).  Assigning a value to the %iterator will
 356:d:/github/AIOT_WORKSHOP/AIoT_MT2503AVE_SDK/11CW1418SP4_03_CORETEK03AE_11C_V1_GPRS_MMI/Tools/MinGW/include/c++/3.3.1/bits/stl_iterator.h ****        *  always append the value to the end of the container.
 357:d:/github/AIOT_WORKSHOP/AIoT_MT2503AVE_SDK/11CW1418SP4_03_CORETEK03AE_11C_V1_GPRS_MMI/Tools/MinGW/include/c++/3.3.1/bits/stl_iterator.h ****       */
 358:d:/github/AIOT_WORKSHOP/AIoT_MT2503AVE_SDK/11CW1418SP4_03_CORETEK03AE_11C_V1_GPRS_MMI/Tools/MinGW/include/c++/3.3.1/bits/stl_iterator.h ****       back_insert_iterator&
 359:d:/github/AIOT_WORKSHOP/AIoT_MT2503AVE_SDK/11CW1418SP4_03_CORETEK03AE_11C_V1_GPRS_MMI/Tools/MinGW/include/c++/3.3.1/bits/stl_iterator.h ****       operator=(typename _Container::const_reference __value) 
 360:d:/github/AIOT_WORKSHOP/AIoT_MT2503AVE_SDK/11CW1418SP4_03_CORETEK03AE_11C_V1_GPRS_MMI/Tools/MinGW/include/c++/3.3.1/bits/stl_iterator.h ****       { 
 361:d:/github/AIOT_WORKSHOP/AIoT_MT2503AVE_SDK/11CW1418SP4_03_CORETEK03AE_11C_V1_GPRS_MMI/Tools/MinGW/include/c++/3.3.1/bits/stl_iterator.h **** 	container->push_back(__value);
 362:d:/github/AIOT_WORKSHOP/AIoT_MT2503AVE_SDK/11CW1418SP4_03_CORETEK03AE_11C_V1_GPRS_MMI/Tools/MinGW/include/c++/3.3.1/bits/stl_iterator.h **** 	return *this;
 363:d:/github/AIOT_WORKSHOP/AIoT_MT2503AVE_SDK/11CW1418SP4_03_CORETEK03AE_11C_V1_GPRS_MMI/Tools/MinGW/include/c++/3.3.1/bits/stl_iterator.h ****       }
 364:d:/github/AIOT_WORKSHOP/AIoT_MT2503AVE_SDK/11CW1418SP4_03_CORETEK03AE_11C_V1_GPRS_MMI/Tools/MinGW/include/c++/3.3.1/bits/stl_iterator.h **** 
 365:d:/github/AIOT_WORKSHOP/AIoT_MT2503AVE_SDK/11CW1418SP4_03_CORETEK03AE_11C_V1_GPRS_MMI/Tools/MinGW/include/c++/3.3.1/bits/stl_iterator.h ****       /// Simply returns *this.
 366:d:/github/AIOT_WORKSHOP/AIoT_MT2503AVE_SDK/11CW1418SP4_03_CORETEK03AE_11C_V1_GPRS_MMI/Tools/MinGW/include/c++/3.3.1/bits/stl_iterator.h ****       back_insert_iterator& 
 367:d:/github/AIOT_WORKSHOP/AIoT_MT2503AVE_SDK/11CW1418SP4_03_CORETEK03AE_11C_V1_GPRS_MMI/Tools/MinGW/include/c++/3.3.1/bits/stl_iterator.h ****       operator*() { return *this; }
 368:d:/github/AIOT_WORKSHOP/AIoT_MT2503AVE_SDK/11CW1418SP4_03_CORETEK03AE_11C_V1_GPRS_MMI/Tools/MinGW/include/c++/3.3.1/bits/stl_iterator.h **** 
 369:d:/github/AIOT_WORKSHOP/AIoT_MT2503AVE_SDK/11CW1418SP4_03_CORETEK03AE_11C_V1_GPRS_MMI/Tools/MinGW/include/c++/3.3.1/bits/stl_iterator.h ****       /// Simply returns *this.  (This %iterator does not "move".)
 370:d:/github/AIOT_WORKSHOP/AIoT_MT2503AVE_SDK/11CW1418SP4_03_CORETEK03AE_11C_V1_GPRS_MMI/Tools/MinGW/include/c++/3.3.1/bits/stl_iterator.h ****       back_insert_iterator& 
 371:d:/github/AIOT_WORKSHOP/AIoT_MT2503AVE_SDK/11CW1418SP4_03_CORETEK03AE_11C_V1_GPRS_MMI/Tools/MinGW/include/c++/3.3.1/bits/stl_iterator.h ****       operator++() { return *this; }
GAS LISTING d:/github/AIOT_WORKSHOP/AIoT_MT2503AVE_SDK/11CW1418SP4_03_CORETEK03AE_11C_V1_GPRS_MMI/plutommi/Customer/ResGenerator/gcctmp/ccmAfaaa.s 			page 263


 372:d:/github/AIOT_WORKSHOP/AIoT_MT2503AVE_SDK/11CW1418SP4_03_CORETEK03AE_11C_V1_GPRS_MMI/Tools/MinGW/include/c++/3.3.1/bits/stl_iterator.h **** 
 373:d:/github/AIOT_WORKSHOP/AIoT_MT2503AVE_SDK/11CW1418SP4_03_CORETEK03AE_11C_V1_GPRS_MMI/Tools/MinGW/include/c++/3.3.1/bits/stl_iterator.h ****       /// Simply returns *this.  (This %iterator does not "move".)
 374:d:/github/AIOT_WORKSHOP/AIoT_MT2503AVE_SDK/11CW1418SP4_03_CORETEK03AE_11C_V1_GPRS_MMI/Tools/MinGW/include/c++/3.3.1/bits/stl_iterator.h ****       back_insert_iterator
 375:d:/github/AIOT_WORKSHOP/AIoT_MT2503AVE_SDK/11CW1418SP4_03_CORETEK03AE_11C_V1_GPRS_MMI/Tools/MinGW/include/c++/3.3.1/bits/stl_iterator.h ****       operator++(int) { return *this; }
 376:d:/github/AIOT_WORKSHOP/AIoT_MT2503AVE_SDK/11CW1418SP4_03_CORETEK03AE_11C_V1_GPRS_MMI/Tools/MinGW/include/c++/3.3.1/bits/stl_iterator.h ****     };
 377:d:/github/AIOT_WORKSHOP/AIoT_MT2503AVE_SDK/11CW1418SP4_03_CORETEK03AE_11C_V1_GPRS_MMI/Tools/MinGW/include/c++/3.3.1/bits/stl_iterator.h **** 
 378:d:/github/AIOT_WORKSHOP/AIoT_MT2503AVE_SDK/11CW1418SP4_03_CORETEK03AE_11C_V1_GPRS_MMI/Tools/MinGW/include/c++/3.3.1/bits/stl_iterator.h ****   /**
 379:d:/github/AIOT_WORKSHOP/AIoT_MT2503AVE_SDK/11CW1418SP4_03_CORETEK03AE_11C_V1_GPRS_MMI/Tools/MinGW/include/c++/3.3.1/bits/stl_iterator.h ****    *  @param  x  A container of arbitrary type.
 380:d:/github/AIOT_WORKSHOP/AIoT_MT2503AVE_SDK/11CW1418SP4_03_CORETEK03AE_11C_V1_GPRS_MMI/Tools/MinGW/include/c++/3.3.1/bits/stl_iterator.h ****    *  @return  An instance of back_insert_iterator working on @p x.
 381:d:/github/AIOT_WORKSHOP/AIoT_MT2503AVE_SDK/11CW1418SP4_03_CORETEK03AE_11C_V1_GPRS_MMI/Tools/MinGW/include/c++/3.3.1/bits/stl_iterator.h ****    *
 382:d:/github/AIOT_WORKSHOP/AIoT_MT2503AVE_SDK/11CW1418SP4_03_CORETEK03AE_11C_V1_GPRS_MMI/Tools/MinGW/include/c++/3.3.1/bits/stl_iterator.h ****    *  This wrapper function helps in creating back_insert_iterator instances.
 383:d:/github/AIOT_WORKSHOP/AIoT_MT2503AVE_SDK/11CW1418SP4_03_CORETEK03AE_11C_V1_GPRS_MMI/Tools/MinGW/include/c++/3.3.1/bits/stl_iterator.h ****    *  Typing the name of the %iterator requires knowing the precise full
 384:d:/github/AIOT_WORKSHOP/AIoT_MT2503AVE_SDK/11CW1418SP4_03_CORETEK03AE_11C_V1_GPRS_MMI/Tools/MinGW/include/c++/3.3.1/bits/stl_iterator.h ****    *  type of the container, which can be tedious and impedes generic
 385:d:/github/AIOT_WORKSHOP/AIoT_MT2503AVE_SDK/11CW1418SP4_03_CORETEK03AE_11C_V1_GPRS_MMI/Tools/MinGW/include/c++/3.3.1/bits/stl_iterator.h ****    *  programming.  Using this function lets you take advantage of automatic
 386:d:/github/AIOT_WORKSHOP/AIoT_MT2503AVE_SDK/11CW1418SP4_03_CORETEK03AE_11C_V1_GPRS_MMI/Tools/MinGW/include/c++/3.3.1/bits/stl_iterator.h ****    *  template parameter deduction, making the compiler match the correct
 387:d:/github/AIOT_WORKSHOP/AIoT_MT2503AVE_SDK/11CW1418SP4_03_CORETEK03AE_11C_V1_GPRS_MMI/Tools/MinGW/include/c++/3.3.1/bits/stl_iterator.h ****    *  types for you.
 388:d:/github/AIOT_WORKSHOP/AIoT_MT2503AVE_SDK/11CW1418SP4_03_CORETEK03AE_11C_V1_GPRS_MMI/Tools/MinGW/include/c++/3.3.1/bits/stl_iterator.h ****   */
 389:d:/github/AIOT_WORKSHOP/AIoT_MT2503AVE_SDK/11CW1418SP4_03_CORETEK03AE_11C_V1_GPRS_MMI/Tools/MinGW/include/c++/3.3.1/bits/stl_iterator.h ****   template<typename _Container>
 390:d:/github/AIOT_WORKSHOP/AIoT_MT2503AVE_SDK/11CW1418SP4_03_CORETEK03AE_11C_V1_GPRS_MMI/Tools/MinGW/include/c++/3.3.1/bits/stl_iterator.h ****     inline back_insert_iterator<_Container> 
 391:d:/github/AIOT_WORKSHOP/AIoT_MT2503AVE_SDK/11CW1418SP4_03_CORETEK03AE_11C_V1_GPRS_MMI/Tools/MinGW/include/c++/3.3.1/bits/stl_iterator.h ****     back_inserter(_Container& __x) 
 392:d:/github/AIOT_WORKSHOP/AIoT_MT2503AVE_SDK/11CW1418SP4_03_CORETEK03AE_11C_V1_GPRS_MMI/Tools/MinGW/include/c++/3.3.1/bits/stl_iterator.h ****     { return back_insert_iterator<_Container>(__x); }
 393:d:/github/AIOT_WORKSHOP/AIoT_MT2503AVE_SDK/11CW1418SP4_03_CORETEK03AE_11C_V1_GPRS_MMI/Tools/MinGW/include/c++/3.3.1/bits/stl_iterator.h **** 
 394:d:/github/AIOT_WORKSHOP/AIoT_MT2503AVE_SDK/11CW1418SP4_03_CORETEK03AE_11C_V1_GPRS_MMI/Tools/MinGW/include/c++/3.3.1/bits/stl_iterator.h ****   /**
 395:d:/github/AIOT_WORKSHOP/AIoT_MT2503AVE_SDK/11CW1418SP4_03_CORETEK03AE_11C_V1_GPRS_MMI/Tools/MinGW/include/c++/3.3.1/bits/stl_iterator.h ****    *  @brief  Turns assignment into insertion.
 396:d:/github/AIOT_WORKSHOP/AIoT_MT2503AVE_SDK/11CW1418SP4_03_CORETEK03AE_11C_V1_GPRS_MMI/Tools/MinGW/include/c++/3.3.1/bits/stl_iterator.h ****    *
 397:d:/github/AIOT_WORKSHOP/AIoT_MT2503AVE_SDK/11CW1418SP4_03_CORETEK03AE_11C_V1_GPRS_MMI/Tools/MinGW/include/c++/3.3.1/bits/stl_iterator.h ****    *  These are output iterators, constructed from a container-of-T.
 398:d:/github/AIOT_WORKSHOP/AIoT_MT2503AVE_SDK/11CW1418SP4_03_CORETEK03AE_11C_V1_GPRS_MMI/Tools/MinGW/include/c++/3.3.1/bits/stl_iterator.h ****    *  Assigning a T to the iterator prepends it to the container using
 399:d:/github/AIOT_WORKSHOP/AIoT_MT2503AVE_SDK/11CW1418SP4_03_CORETEK03AE_11C_V1_GPRS_MMI/Tools/MinGW/include/c++/3.3.1/bits/stl_iterator.h ****    *  push_front.
 400:d:/github/AIOT_WORKSHOP/AIoT_MT2503AVE_SDK/11CW1418SP4_03_CORETEK03AE_11C_V1_GPRS_MMI/Tools/MinGW/include/c++/3.3.1/bits/stl_iterator.h ****    *
 401:d:/github/AIOT_WORKSHOP/AIoT_MT2503AVE_SDK/11CW1418SP4_03_CORETEK03AE_11C_V1_GPRS_MMI/Tools/MinGW/include/c++/3.3.1/bits/stl_iterator.h ****    *  Tip:  Using the front_inserter function to create these iterators can
 402:d:/github/AIOT_WORKSHOP/AIoT_MT2503AVE_SDK/11CW1418SP4_03_CORETEK03AE_11C_V1_GPRS_MMI/Tools/MinGW/include/c++/3.3.1/bits/stl_iterator.h ****    *  save typing.
 403:d:/github/AIOT_WORKSHOP/AIoT_MT2503AVE_SDK/11CW1418SP4_03_CORETEK03AE_11C_V1_GPRS_MMI/Tools/MinGW/include/c++/3.3.1/bits/stl_iterator.h ****   */
 404:d:/github/AIOT_WORKSHOP/AIoT_MT2503AVE_SDK/11CW1418SP4_03_CORETEK03AE_11C_V1_GPRS_MMI/Tools/MinGW/include/c++/3.3.1/bits/stl_iterator.h ****   template<typename _Container>
 405:d:/github/AIOT_WORKSHOP/AIoT_MT2503AVE_SDK/11CW1418SP4_03_CORETEK03AE_11C_V1_GPRS_MMI/Tools/MinGW/include/c++/3.3.1/bits/stl_iterator.h ****     class front_insert_iterator 
 406:d:/github/AIOT_WORKSHOP/AIoT_MT2503AVE_SDK/11CW1418SP4_03_CORETEK03AE_11C_V1_GPRS_MMI/Tools/MinGW/include/c++/3.3.1/bits/stl_iterator.h ****     : public iterator<output_iterator_tag, void, void, void, void>
 407:d:/github/AIOT_WORKSHOP/AIoT_MT2503AVE_SDK/11CW1418SP4_03_CORETEK03AE_11C_V1_GPRS_MMI/Tools/MinGW/include/c++/3.3.1/bits/stl_iterator.h ****     {
 408:d:/github/AIOT_WORKSHOP/AIoT_MT2503AVE_SDK/11CW1418SP4_03_CORETEK03AE_11C_V1_GPRS_MMI/Tools/MinGW/include/c++/3.3.1/bits/stl_iterator.h ****     protected:
 409:d:/github/AIOT_WORKSHOP/AIoT_MT2503AVE_SDK/11CW1418SP4_03_CORETEK03AE_11C_V1_GPRS_MMI/Tools/MinGW/include/c++/3.3.1/bits/stl_iterator.h ****       _Container* container;
 410:d:/github/AIOT_WORKSHOP/AIoT_MT2503AVE_SDK/11CW1418SP4_03_CORETEK03AE_11C_V1_GPRS_MMI/Tools/MinGW/include/c++/3.3.1/bits/stl_iterator.h **** 
 411:d:/github/AIOT_WORKSHOP/AIoT_MT2503AVE_SDK/11CW1418SP4_03_CORETEK03AE_11C_V1_GPRS_MMI/Tools/MinGW/include/c++/3.3.1/bits/stl_iterator.h ****     public:
 412:d:/github/AIOT_WORKSHOP/AIoT_MT2503AVE_SDK/11CW1418SP4_03_CORETEK03AE_11C_V1_GPRS_MMI/Tools/MinGW/include/c++/3.3.1/bits/stl_iterator.h ****       /// A nested typedef for the type of whatever container you used.
 413:d:/github/AIOT_WORKSHOP/AIoT_MT2503AVE_SDK/11CW1418SP4_03_CORETEK03AE_11C_V1_GPRS_MMI/Tools/MinGW/include/c++/3.3.1/bits/stl_iterator.h ****       typedef _Container          container_type;
 414:d:/github/AIOT_WORKSHOP/AIoT_MT2503AVE_SDK/11CW1418SP4_03_CORETEK03AE_11C_V1_GPRS_MMI/Tools/MinGW/include/c++/3.3.1/bits/stl_iterator.h **** 
 415:d:/github/AIOT_WORKSHOP/AIoT_MT2503AVE_SDK/11CW1418SP4_03_CORETEK03AE_11C_V1_GPRS_MMI/Tools/MinGW/include/c++/3.3.1/bits/stl_iterator.h ****       /// The only way to create this %iterator is with a container.
 416:d:/github/AIOT_WORKSHOP/AIoT_MT2503AVE_SDK/11CW1418SP4_03_CORETEK03AE_11C_V1_GPRS_MMI/Tools/MinGW/include/c++/3.3.1/bits/stl_iterator.h ****       explicit front_insert_iterator(_Container& __x) : container(&__x) { }
 417:d:/github/AIOT_WORKSHOP/AIoT_MT2503AVE_SDK/11CW1418SP4_03_CORETEK03AE_11C_V1_GPRS_MMI/Tools/MinGW/include/c++/3.3.1/bits/stl_iterator.h **** 
 418:d:/github/AIOT_WORKSHOP/AIoT_MT2503AVE_SDK/11CW1418SP4_03_CORETEK03AE_11C_V1_GPRS_MMI/Tools/MinGW/include/c++/3.3.1/bits/stl_iterator.h ****       /**
 419:d:/github/AIOT_WORKSHOP/AIoT_MT2503AVE_SDK/11CW1418SP4_03_CORETEK03AE_11C_V1_GPRS_MMI/Tools/MinGW/include/c++/3.3.1/bits/stl_iterator.h ****        *  @param  value  An instance of whatever type
 420:d:/github/AIOT_WORKSHOP/AIoT_MT2503AVE_SDK/11CW1418SP4_03_CORETEK03AE_11C_V1_GPRS_MMI/Tools/MinGW/include/c++/3.3.1/bits/stl_iterator.h ****        *                 container_type::const_reference is; presumably a
 421:d:/github/AIOT_WORKSHOP/AIoT_MT2503AVE_SDK/11CW1418SP4_03_CORETEK03AE_11C_V1_GPRS_MMI/Tools/MinGW/include/c++/3.3.1/bits/stl_iterator.h ****        *                 reference-to-const T for container<T>.
 422:d:/github/AIOT_WORKSHOP/AIoT_MT2503AVE_SDK/11CW1418SP4_03_CORETEK03AE_11C_V1_GPRS_MMI/Tools/MinGW/include/c++/3.3.1/bits/stl_iterator.h ****        *  @return  This %iterator, for chained operations.
 423:d:/github/AIOT_WORKSHOP/AIoT_MT2503AVE_SDK/11CW1418SP4_03_CORETEK03AE_11C_V1_GPRS_MMI/Tools/MinGW/include/c++/3.3.1/bits/stl_iterator.h ****        *
 424:d:/github/AIOT_WORKSHOP/AIoT_MT2503AVE_SDK/11CW1418SP4_03_CORETEK03AE_11C_V1_GPRS_MMI/Tools/MinGW/include/c++/3.3.1/bits/stl_iterator.h ****        *  This kind of %iterator doesn't really have a "position" in the
 425:d:/github/AIOT_WORKSHOP/AIoT_MT2503AVE_SDK/11CW1418SP4_03_CORETEK03AE_11C_V1_GPRS_MMI/Tools/MinGW/include/c++/3.3.1/bits/stl_iterator.h ****        *  container (you can think of the position as being permanently at
 426:d:/github/AIOT_WORKSHOP/AIoT_MT2503AVE_SDK/11CW1418SP4_03_CORETEK03AE_11C_V1_GPRS_MMI/Tools/MinGW/include/c++/3.3.1/bits/stl_iterator.h ****        *  the front, if you like).  Assigning a value to the %iterator will
 427:d:/github/AIOT_WORKSHOP/AIoT_MT2503AVE_SDK/11CW1418SP4_03_CORETEK03AE_11C_V1_GPRS_MMI/Tools/MinGW/include/c++/3.3.1/bits/stl_iterator.h ****        *  always prepend the value to the front of the container.
 428:d:/github/AIOT_WORKSHOP/AIoT_MT2503AVE_SDK/11CW1418SP4_03_CORETEK03AE_11C_V1_GPRS_MMI/Tools/MinGW/include/c++/3.3.1/bits/stl_iterator.h ****       */
GAS LISTING d:/github/AIOT_WORKSHOP/AIoT_MT2503AVE_SDK/11CW1418SP4_03_CORETEK03AE_11C_V1_GPRS_MMI/plutommi/Customer/ResGenerator/gcctmp/ccmAfaaa.s 			page 264


 429:d:/github/AIOT_WORKSHOP/AIoT_MT2503AVE_SDK/11CW1418SP4_03_CORETEK03AE_11C_V1_GPRS_MMI/Tools/MinGW/include/c++/3.3.1/bits/stl_iterator.h ****       front_insert_iterator&
 430:d:/github/AIOT_WORKSHOP/AIoT_MT2503AVE_SDK/11CW1418SP4_03_CORETEK03AE_11C_V1_GPRS_MMI/Tools/MinGW/include/c++/3.3.1/bits/stl_iterator.h ****       operator=(typename _Container::const_reference __value) 
 431:d:/github/AIOT_WORKSHOP/AIoT_MT2503AVE_SDK/11CW1418SP4_03_CORETEK03AE_11C_V1_GPRS_MMI/Tools/MinGW/include/c++/3.3.1/bits/stl_iterator.h ****       { 
 432:d:/github/AIOT_WORKSHOP/AIoT_MT2503AVE_SDK/11CW1418SP4_03_CORETEK03AE_11C_V1_GPRS_MMI/Tools/MinGW/include/c++/3.3.1/bits/stl_iterator.h **** 	container->push_front(__value);
 433:d:/github/AIOT_WORKSHOP/AIoT_MT2503AVE_SDK/11CW1418SP4_03_CORETEK03AE_11C_V1_GPRS_MMI/Tools/MinGW/include/c++/3.3.1/bits/stl_iterator.h **** 	return *this;
 434:d:/github/AIOT_WORKSHOP/AIoT_MT2503AVE_SDK/11CW1418SP4_03_CORETEK03AE_11C_V1_GPRS_MMI/Tools/MinGW/include/c++/3.3.1/bits/stl_iterator.h ****       }
 435:d:/github/AIOT_WORKSHOP/AIoT_MT2503AVE_SDK/11CW1418SP4_03_CORETEK03AE_11C_V1_GPRS_MMI/Tools/MinGW/include/c++/3.3.1/bits/stl_iterator.h **** 
 436:d:/github/AIOT_WORKSHOP/AIoT_MT2503AVE_SDK/11CW1418SP4_03_CORETEK03AE_11C_V1_GPRS_MMI/Tools/MinGW/include/c++/3.3.1/bits/stl_iterator.h ****       /// Simply returns *this.
 437:d:/github/AIOT_WORKSHOP/AIoT_MT2503AVE_SDK/11CW1418SP4_03_CORETEK03AE_11C_V1_GPRS_MMI/Tools/MinGW/include/c++/3.3.1/bits/stl_iterator.h ****       front_insert_iterator& 
 438:d:/github/AIOT_WORKSHOP/AIoT_MT2503AVE_SDK/11CW1418SP4_03_CORETEK03AE_11C_V1_GPRS_MMI/Tools/MinGW/include/c++/3.3.1/bits/stl_iterator.h ****       operator*() { return *this; }
 439:d:/github/AIOT_WORKSHOP/AIoT_MT2503AVE_SDK/11CW1418SP4_03_CORETEK03AE_11C_V1_GPRS_MMI/Tools/MinGW/include/c++/3.3.1/bits/stl_iterator.h **** 
 440:d:/github/AIOT_WORKSHOP/AIoT_MT2503AVE_SDK/11CW1418SP4_03_CORETEK03AE_11C_V1_GPRS_MMI/Tools/MinGW/include/c++/3.3.1/bits/stl_iterator.h ****       /// Simply returns *this.  (This %iterator does not "move".)
 441:d:/github/AIOT_WORKSHOP/AIoT_MT2503AVE_SDK/11CW1418SP4_03_CORETEK03AE_11C_V1_GPRS_MMI/Tools/MinGW/include/c++/3.3.1/bits/stl_iterator.h ****       front_insert_iterator& 
 442:d:/github/AIOT_WORKSHOP/AIoT_MT2503AVE_SDK/11CW1418SP4_03_CORETEK03AE_11C_V1_GPRS_MMI/Tools/MinGW/include/c++/3.3.1/bits/stl_iterator.h ****       operator++() { return *this; }
 443:d:/github/AIOT_WORKSHOP/AIoT_MT2503AVE_SDK/11CW1418SP4_03_CORETEK03AE_11C_V1_GPRS_MMI/Tools/MinGW/include/c++/3.3.1/bits/stl_iterator.h **** 
 444:d:/github/AIOT_WORKSHOP/AIoT_MT2503AVE_SDK/11CW1418SP4_03_CORETEK03AE_11C_V1_GPRS_MMI/Tools/MinGW/include/c++/3.3.1/bits/stl_iterator.h ****       /// Simply returns *this.  (This %iterator does not "move".)
 445:d:/github/AIOT_WORKSHOP/AIoT_MT2503AVE_SDK/11CW1418SP4_03_CORETEK03AE_11C_V1_GPRS_MMI/Tools/MinGW/include/c++/3.3.1/bits/stl_iterator.h ****       front_insert_iterator 
 446:d:/github/AIOT_WORKSHOP/AIoT_MT2503AVE_SDK/11CW1418SP4_03_CORETEK03AE_11C_V1_GPRS_MMI/Tools/MinGW/include/c++/3.3.1/bits/stl_iterator.h ****       operator++(int) { return *this; }
 447:d:/github/AIOT_WORKSHOP/AIoT_MT2503AVE_SDK/11CW1418SP4_03_CORETEK03AE_11C_V1_GPRS_MMI/Tools/MinGW/include/c++/3.3.1/bits/stl_iterator.h ****     };
 448:d:/github/AIOT_WORKSHOP/AIoT_MT2503AVE_SDK/11CW1418SP4_03_CORETEK03AE_11C_V1_GPRS_MMI/Tools/MinGW/include/c++/3.3.1/bits/stl_iterator.h **** 
 449:d:/github/AIOT_WORKSHOP/AIoT_MT2503AVE_SDK/11CW1418SP4_03_CORETEK03AE_11C_V1_GPRS_MMI/Tools/MinGW/include/c++/3.3.1/bits/stl_iterator.h ****   /**
 450:d:/github/AIOT_WORKSHOP/AIoT_MT2503AVE_SDK/11CW1418SP4_03_CORETEK03AE_11C_V1_GPRS_MMI/Tools/MinGW/include/c++/3.3.1/bits/stl_iterator.h ****    *  @param  x  A container of arbitrary type.
 451:d:/github/AIOT_WORKSHOP/AIoT_MT2503AVE_SDK/11CW1418SP4_03_CORETEK03AE_11C_V1_GPRS_MMI/Tools/MinGW/include/c++/3.3.1/bits/stl_iterator.h ****    *  @return  An instance of front_insert_iterator working on @p x.
 452:d:/github/AIOT_WORKSHOP/AIoT_MT2503AVE_SDK/11CW1418SP4_03_CORETEK03AE_11C_V1_GPRS_MMI/Tools/MinGW/include/c++/3.3.1/bits/stl_iterator.h ****    *
 453:d:/github/AIOT_WORKSHOP/AIoT_MT2503AVE_SDK/11CW1418SP4_03_CORETEK03AE_11C_V1_GPRS_MMI/Tools/MinGW/include/c++/3.3.1/bits/stl_iterator.h ****    *  This wrapper function helps in creating front_insert_iterator instances.
 454:d:/github/AIOT_WORKSHOP/AIoT_MT2503AVE_SDK/11CW1418SP4_03_CORETEK03AE_11C_V1_GPRS_MMI/Tools/MinGW/include/c++/3.3.1/bits/stl_iterator.h ****    *  Typing the name of the %iterator requires knowing the precise full
 455:d:/github/AIOT_WORKSHOP/AIoT_MT2503AVE_SDK/11CW1418SP4_03_CORETEK03AE_11C_V1_GPRS_MMI/Tools/MinGW/include/c++/3.3.1/bits/stl_iterator.h ****    *  type of the container, which can be tedious and impedes generic
 456:d:/github/AIOT_WORKSHOP/AIoT_MT2503AVE_SDK/11CW1418SP4_03_CORETEK03AE_11C_V1_GPRS_MMI/Tools/MinGW/include/c++/3.3.1/bits/stl_iterator.h ****    *  programming.  Using this function lets you take advantage of automatic
 457:d:/github/AIOT_WORKSHOP/AIoT_MT2503AVE_SDK/11CW1418SP4_03_CORETEK03AE_11C_V1_GPRS_MMI/Tools/MinGW/include/c++/3.3.1/bits/stl_iterator.h ****    *  template parameter deduction, making the compiler match the correct
 458:d:/github/AIOT_WORKSHOP/AIoT_MT2503AVE_SDK/11CW1418SP4_03_CORETEK03AE_11C_V1_GPRS_MMI/Tools/MinGW/include/c++/3.3.1/bits/stl_iterator.h ****    *  types for you.
 459:d:/github/AIOT_WORKSHOP/AIoT_MT2503AVE_SDK/11CW1418SP4_03_CORETEK03AE_11C_V1_GPRS_MMI/Tools/MinGW/include/c++/3.3.1/bits/stl_iterator.h ****   */
 460:d:/github/AIOT_WORKSHOP/AIoT_MT2503AVE_SDK/11CW1418SP4_03_CORETEK03AE_11C_V1_GPRS_MMI/Tools/MinGW/include/c++/3.3.1/bits/stl_iterator.h ****   template<typename _Container>
 461:d:/github/AIOT_WORKSHOP/AIoT_MT2503AVE_SDK/11CW1418SP4_03_CORETEK03AE_11C_V1_GPRS_MMI/Tools/MinGW/include/c++/3.3.1/bits/stl_iterator.h ****     inline front_insert_iterator<_Container> 
 462:d:/github/AIOT_WORKSHOP/AIoT_MT2503AVE_SDK/11CW1418SP4_03_CORETEK03AE_11C_V1_GPRS_MMI/Tools/MinGW/include/c++/3.3.1/bits/stl_iterator.h ****     front_inserter(_Container& __x) 
 463:d:/github/AIOT_WORKSHOP/AIoT_MT2503AVE_SDK/11CW1418SP4_03_CORETEK03AE_11C_V1_GPRS_MMI/Tools/MinGW/include/c++/3.3.1/bits/stl_iterator.h ****     { return front_insert_iterator<_Container>(__x); }
 464:d:/github/AIOT_WORKSHOP/AIoT_MT2503AVE_SDK/11CW1418SP4_03_CORETEK03AE_11C_V1_GPRS_MMI/Tools/MinGW/include/c++/3.3.1/bits/stl_iterator.h **** 
 465:d:/github/AIOT_WORKSHOP/AIoT_MT2503AVE_SDK/11CW1418SP4_03_CORETEK03AE_11C_V1_GPRS_MMI/Tools/MinGW/include/c++/3.3.1/bits/stl_iterator.h ****   /**
 466:d:/github/AIOT_WORKSHOP/AIoT_MT2503AVE_SDK/11CW1418SP4_03_CORETEK03AE_11C_V1_GPRS_MMI/Tools/MinGW/include/c++/3.3.1/bits/stl_iterator.h ****    *  @brief  Turns assignment into insertion.
 467:d:/github/AIOT_WORKSHOP/AIoT_MT2503AVE_SDK/11CW1418SP4_03_CORETEK03AE_11C_V1_GPRS_MMI/Tools/MinGW/include/c++/3.3.1/bits/stl_iterator.h ****    *
 468:d:/github/AIOT_WORKSHOP/AIoT_MT2503AVE_SDK/11CW1418SP4_03_CORETEK03AE_11C_V1_GPRS_MMI/Tools/MinGW/include/c++/3.3.1/bits/stl_iterator.h ****    *  These are output iterators, constructed from a container-of-T.
 469:d:/github/AIOT_WORKSHOP/AIoT_MT2503AVE_SDK/11CW1418SP4_03_CORETEK03AE_11C_V1_GPRS_MMI/Tools/MinGW/include/c++/3.3.1/bits/stl_iterator.h ****    *  Assigning a T to the iterator inserts it in the container at the
 470:d:/github/AIOT_WORKSHOP/AIoT_MT2503AVE_SDK/11CW1418SP4_03_CORETEK03AE_11C_V1_GPRS_MMI/Tools/MinGW/include/c++/3.3.1/bits/stl_iterator.h ****    *  %iterator's position, rather than overwriting the value at that
 471:d:/github/AIOT_WORKSHOP/AIoT_MT2503AVE_SDK/11CW1418SP4_03_CORETEK03AE_11C_V1_GPRS_MMI/Tools/MinGW/include/c++/3.3.1/bits/stl_iterator.h ****    *  position.
 472:d:/github/AIOT_WORKSHOP/AIoT_MT2503AVE_SDK/11CW1418SP4_03_CORETEK03AE_11C_V1_GPRS_MMI/Tools/MinGW/include/c++/3.3.1/bits/stl_iterator.h ****    *
 473:d:/github/AIOT_WORKSHOP/AIoT_MT2503AVE_SDK/11CW1418SP4_03_CORETEK03AE_11C_V1_GPRS_MMI/Tools/MinGW/include/c++/3.3.1/bits/stl_iterator.h ****    *  (Sequences will actually insert a @e copy of the value before the
 474:d:/github/AIOT_WORKSHOP/AIoT_MT2503AVE_SDK/11CW1418SP4_03_CORETEK03AE_11C_V1_GPRS_MMI/Tools/MinGW/include/c++/3.3.1/bits/stl_iterator.h ****    *  %iterator's position.)
 475:d:/github/AIOT_WORKSHOP/AIoT_MT2503AVE_SDK/11CW1418SP4_03_CORETEK03AE_11C_V1_GPRS_MMI/Tools/MinGW/include/c++/3.3.1/bits/stl_iterator.h ****    *
 476:d:/github/AIOT_WORKSHOP/AIoT_MT2503AVE_SDK/11CW1418SP4_03_CORETEK03AE_11C_V1_GPRS_MMI/Tools/MinGW/include/c++/3.3.1/bits/stl_iterator.h ****    *  Tip:  Using the inserter function to create these iterators can
 477:d:/github/AIOT_WORKSHOP/AIoT_MT2503AVE_SDK/11CW1418SP4_03_CORETEK03AE_11C_V1_GPRS_MMI/Tools/MinGW/include/c++/3.3.1/bits/stl_iterator.h ****    *  save typing.
 478:d:/github/AIOT_WORKSHOP/AIoT_MT2503AVE_SDK/11CW1418SP4_03_CORETEK03AE_11C_V1_GPRS_MMI/Tools/MinGW/include/c++/3.3.1/bits/stl_iterator.h ****   */
 479:d:/github/AIOT_WORKSHOP/AIoT_MT2503AVE_SDK/11CW1418SP4_03_CORETEK03AE_11C_V1_GPRS_MMI/Tools/MinGW/include/c++/3.3.1/bits/stl_iterator.h ****   template<typename _Container>
 480:d:/github/AIOT_WORKSHOP/AIoT_MT2503AVE_SDK/11CW1418SP4_03_CORETEK03AE_11C_V1_GPRS_MMI/Tools/MinGW/include/c++/3.3.1/bits/stl_iterator.h ****     class insert_iterator 
 481:d:/github/AIOT_WORKSHOP/AIoT_MT2503AVE_SDK/11CW1418SP4_03_CORETEK03AE_11C_V1_GPRS_MMI/Tools/MinGW/include/c++/3.3.1/bits/stl_iterator.h ****     : public iterator<output_iterator_tag, void, void, void, void>
 482:d:/github/AIOT_WORKSHOP/AIoT_MT2503AVE_SDK/11CW1418SP4_03_CORETEK03AE_11C_V1_GPRS_MMI/Tools/MinGW/include/c++/3.3.1/bits/stl_iterator.h ****     {
 483:d:/github/AIOT_WORKSHOP/AIoT_MT2503AVE_SDK/11CW1418SP4_03_CORETEK03AE_11C_V1_GPRS_MMI/Tools/MinGW/include/c++/3.3.1/bits/stl_iterator.h ****     protected:
 484:d:/github/AIOT_WORKSHOP/AIoT_MT2503AVE_SDK/11CW1418SP4_03_CORETEK03AE_11C_V1_GPRS_MMI/Tools/MinGW/include/c++/3.3.1/bits/stl_iterator.h ****       _Container* container;
 485:d:/github/AIOT_WORKSHOP/AIoT_MT2503AVE_SDK/11CW1418SP4_03_CORETEK03AE_11C_V1_GPRS_MMI/Tools/MinGW/include/c++/3.3.1/bits/stl_iterator.h ****       typename _Container::iterator iter;
GAS LISTING d:/github/AIOT_WORKSHOP/AIoT_MT2503AVE_SDK/11CW1418SP4_03_CORETEK03AE_11C_V1_GPRS_MMI/plutommi/Customer/ResGenerator/gcctmp/ccmAfaaa.s 			page 265


 486:d:/github/AIOT_WORKSHOP/AIoT_MT2503AVE_SDK/11CW1418SP4_03_CORETEK03AE_11C_V1_GPRS_MMI/Tools/MinGW/include/c++/3.3.1/bits/stl_iterator.h **** 
 487:d:/github/AIOT_WORKSHOP/AIoT_MT2503AVE_SDK/11CW1418SP4_03_CORETEK03AE_11C_V1_GPRS_MMI/Tools/MinGW/include/c++/3.3.1/bits/stl_iterator.h ****     public:
 488:d:/github/AIOT_WORKSHOP/AIoT_MT2503AVE_SDK/11CW1418SP4_03_CORETEK03AE_11C_V1_GPRS_MMI/Tools/MinGW/include/c++/3.3.1/bits/stl_iterator.h ****       /// A nested typedef for the type of whatever container you used.
 489:d:/github/AIOT_WORKSHOP/AIoT_MT2503AVE_SDK/11CW1418SP4_03_CORETEK03AE_11C_V1_GPRS_MMI/Tools/MinGW/include/c++/3.3.1/bits/stl_iterator.h ****       typedef _Container          container_type;
 490:d:/github/AIOT_WORKSHOP/AIoT_MT2503AVE_SDK/11CW1418SP4_03_CORETEK03AE_11C_V1_GPRS_MMI/Tools/MinGW/include/c++/3.3.1/bits/stl_iterator.h ****       
 491:d:/github/AIOT_WORKSHOP/AIoT_MT2503AVE_SDK/11CW1418SP4_03_CORETEK03AE_11C_V1_GPRS_MMI/Tools/MinGW/include/c++/3.3.1/bits/stl_iterator.h ****       /**
 492:d:/github/AIOT_WORKSHOP/AIoT_MT2503AVE_SDK/11CW1418SP4_03_CORETEK03AE_11C_V1_GPRS_MMI/Tools/MinGW/include/c++/3.3.1/bits/stl_iterator.h ****        *  The only way to create this %iterator is with a container and an
 493:d:/github/AIOT_WORKSHOP/AIoT_MT2503AVE_SDK/11CW1418SP4_03_CORETEK03AE_11C_V1_GPRS_MMI/Tools/MinGW/include/c++/3.3.1/bits/stl_iterator.h ****        *  initial position (a normal %iterator into the container).
 494:d:/github/AIOT_WORKSHOP/AIoT_MT2503AVE_SDK/11CW1418SP4_03_CORETEK03AE_11C_V1_GPRS_MMI/Tools/MinGW/include/c++/3.3.1/bits/stl_iterator.h ****       */
 495:d:/github/AIOT_WORKSHOP/AIoT_MT2503AVE_SDK/11CW1418SP4_03_CORETEK03AE_11C_V1_GPRS_MMI/Tools/MinGW/include/c++/3.3.1/bits/stl_iterator.h ****       insert_iterator(_Container& __x, typename _Container::iterator __i) 
 496:d:/github/AIOT_WORKSHOP/AIoT_MT2503AVE_SDK/11CW1418SP4_03_CORETEK03AE_11C_V1_GPRS_MMI/Tools/MinGW/include/c++/3.3.1/bits/stl_iterator.h ****       : container(&__x), iter(__i) {}
 497:d:/github/AIOT_WORKSHOP/AIoT_MT2503AVE_SDK/11CW1418SP4_03_CORETEK03AE_11C_V1_GPRS_MMI/Tools/MinGW/include/c++/3.3.1/bits/stl_iterator.h ****    
 498:d:/github/AIOT_WORKSHOP/AIoT_MT2503AVE_SDK/11CW1418SP4_03_CORETEK03AE_11C_V1_GPRS_MMI/Tools/MinGW/include/c++/3.3.1/bits/stl_iterator.h ****       /**
 499:d:/github/AIOT_WORKSHOP/AIoT_MT2503AVE_SDK/11CW1418SP4_03_CORETEK03AE_11C_V1_GPRS_MMI/Tools/MinGW/include/c++/3.3.1/bits/stl_iterator.h ****        *  @param  value  An instance of whatever type
 500:d:/github/AIOT_WORKSHOP/AIoT_MT2503AVE_SDK/11CW1418SP4_03_CORETEK03AE_11C_V1_GPRS_MMI/Tools/MinGW/include/c++/3.3.1/bits/stl_iterator.h ****        *                 container_type::const_reference is; presumably a
 501:d:/github/AIOT_WORKSHOP/AIoT_MT2503AVE_SDK/11CW1418SP4_03_CORETEK03AE_11C_V1_GPRS_MMI/Tools/MinGW/include/c++/3.3.1/bits/stl_iterator.h ****        *                 reference-to-const T for container<T>.
 502:d:/github/AIOT_WORKSHOP/AIoT_MT2503AVE_SDK/11CW1418SP4_03_CORETEK03AE_11C_V1_GPRS_MMI/Tools/MinGW/include/c++/3.3.1/bits/stl_iterator.h ****        *  @return  This %iterator, for chained operations.
 503:d:/github/AIOT_WORKSHOP/AIoT_MT2503AVE_SDK/11CW1418SP4_03_CORETEK03AE_11C_V1_GPRS_MMI/Tools/MinGW/include/c++/3.3.1/bits/stl_iterator.h ****        *
 504:d:/github/AIOT_WORKSHOP/AIoT_MT2503AVE_SDK/11CW1418SP4_03_CORETEK03AE_11C_V1_GPRS_MMI/Tools/MinGW/include/c++/3.3.1/bits/stl_iterator.h ****        *  This kind of %iterator maintains its own position in the
 505:d:/github/AIOT_WORKSHOP/AIoT_MT2503AVE_SDK/11CW1418SP4_03_CORETEK03AE_11C_V1_GPRS_MMI/Tools/MinGW/include/c++/3.3.1/bits/stl_iterator.h ****        *  container.  Assigning a value to the %iterator will insert the
 506:d:/github/AIOT_WORKSHOP/AIoT_MT2503AVE_SDK/11CW1418SP4_03_CORETEK03AE_11C_V1_GPRS_MMI/Tools/MinGW/include/c++/3.3.1/bits/stl_iterator.h ****        *  value into the container at the place before the %iterator.
 507:d:/github/AIOT_WORKSHOP/AIoT_MT2503AVE_SDK/11CW1418SP4_03_CORETEK03AE_11C_V1_GPRS_MMI/Tools/MinGW/include/c++/3.3.1/bits/stl_iterator.h ****        *
 508:d:/github/AIOT_WORKSHOP/AIoT_MT2503AVE_SDK/11CW1418SP4_03_CORETEK03AE_11C_V1_GPRS_MMI/Tools/MinGW/include/c++/3.3.1/bits/stl_iterator.h ****        *  The position is maintained such that subsequent assignments will
 509:d:/github/AIOT_WORKSHOP/AIoT_MT2503AVE_SDK/11CW1418SP4_03_CORETEK03AE_11C_V1_GPRS_MMI/Tools/MinGW/include/c++/3.3.1/bits/stl_iterator.h ****        *  insert values immediately after one another.  For example,
 510:d:/github/AIOT_WORKSHOP/AIoT_MT2503AVE_SDK/11CW1418SP4_03_CORETEK03AE_11C_V1_GPRS_MMI/Tools/MinGW/include/c++/3.3.1/bits/stl_iterator.h ****        *  @code
 511:d:/github/AIOT_WORKSHOP/AIoT_MT2503AVE_SDK/11CW1418SP4_03_CORETEK03AE_11C_V1_GPRS_MMI/Tools/MinGW/include/c++/3.3.1/bits/stl_iterator.h ****        *     // vector v contains A and Z
 512:d:/github/AIOT_WORKSHOP/AIoT_MT2503AVE_SDK/11CW1418SP4_03_CORETEK03AE_11C_V1_GPRS_MMI/Tools/MinGW/include/c++/3.3.1/bits/stl_iterator.h ****        *
 513:d:/github/AIOT_WORKSHOP/AIoT_MT2503AVE_SDK/11CW1418SP4_03_CORETEK03AE_11C_V1_GPRS_MMI/Tools/MinGW/include/c++/3.3.1/bits/stl_iterator.h ****        *     insert_iterator i (v, ++v.begin());
 514:d:/github/AIOT_WORKSHOP/AIoT_MT2503AVE_SDK/11CW1418SP4_03_CORETEK03AE_11C_V1_GPRS_MMI/Tools/MinGW/include/c++/3.3.1/bits/stl_iterator.h ****        *     i = 1;
 515:d:/github/AIOT_WORKSHOP/AIoT_MT2503AVE_SDK/11CW1418SP4_03_CORETEK03AE_11C_V1_GPRS_MMI/Tools/MinGW/include/c++/3.3.1/bits/stl_iterator.h ****        *     i = 2;
 516:d:/github/AIOT_WORKSHOP/AIoT_MT2503AVE_SDK/11CW1418SP4_03_CORETEK03AE_11C_V1_GPRS_MMI/Tools/MinGW/include/c++/3.3.1/bits/stl_iterator.h ****        *     i = 3;
 517:d:/github/AIOT_WORKSHOP/AIoT_MT2503AVE_SDK/11CW1418SP4_03_CORETEK03AE_11C_V1_GPRS_MMI/Tools/MinGW/include/c++/3.3.1/bits/stl_iterator.h ****        *
 518:d:/github/AIOT_WORKSHOP/AIoT_MT2503AVE_SDK/11CW1418SP4_03_CORETEK03AE_11C_V1_GPRS_MMI/Tools/MinGW/include/c++/3.3.1/bits/stl_iterator.h ****        *     // vector v contains A, 1, 2, 3, and Z
 519:d:/github/AIOT_WORKSHOP/AIoT_MT2503AVE_SDK/11CW1418SP4_03_CORETEK03AE_11C_V1_GPRS_MMI/Tools/MinGW/include/c++/3.3.1/bits/stl_iterator.h ****        *  @endcode
 520:d:/github/AIOT_WORKSHOP/AIoT_MT2503AVE_SDK/11CW1418SP4_03_CORETEK03AE_11C_V1_GPRS_MMI/Tools/MinGW/include/c++/3.3.1/bits/stl_iterator.h ****       */
 521:d:/github/AIOT_WORKSHOP/AIoT_MT2503AVE_SDK/11CW1418SP4_03_CORETEK03AE_11C_V1_GPRS_MMI/Tools/MinGW/include/c++/3.3.1/bits/stl_iterator.h ****       insert_iterator&
 522:d:/github/AIOT_WORKSHOP/AIoT_MT2503AVE_SDK/11CW1418SP4_03_CORETEK03AE_11C_V1_GPRS_MMI/Tools/MinGW/include/c++/3.3.1/bits/stl_iterator.h ****       operator=(const typename _Container::const_reference __value) 
 523:d:/github/AIOT_WORKSHOP/AIoT_MT2503AVE_SDK/11CW1418SP4_03_CORETEK03AE_11C_V1_GPRS_MMI/Tools/MinGW/include/c++/3.3.1/bits/stl_iterator.h ****       { 
 524:d:/github/AIOT_WORKSHOP/AIoT_MT2503AVE_SDK/11CW1418SP4_03_CORETEK03AE_11C_V1_GPRS_MMI/Tools/MinGW/include/c++/3.3.1/bits/stl_iterator.h **** 	iter = container->insert(iter, __value);
 525:d:/github/AIOT_WORKSHOP/AIoT_MT2503AVE_SDK/11CW1418SP4_03_CORETEK03AE_11C_V1_GPRS_MMI/Tools/MinGW/include/c++/3.3.1/bits/stl_iterator.h **** 	++iter;
 526:d:/github/AIOT_WORKSHOP/AIoT_MT2503AVE_SDK/11CW1418SP4_03_CORETEK03AE_11C_V1_GPRS_MMI/Tools/MinGW/include/c++/3.3.1/bits/stl_iterator.h **** 	return *this;
 527:d:/github/AIOT_WORKSHOP/AIoT_MT2503AVE_SDK/11CW1418SP4_03_CORETEK03AE_11C_V1_GPRS_MMI/Tools/MinGW/include/c++/3.3.1/bits/stl_iterator.h ****       }
 528:d:/github/AIOT_WORKSHOP/AIoT_MT2503AVE_SDK/11CW1418SP4_03_CORETEK03AE_11C_V1_GPRS_MMI/Tools/MinGW/include/c++/3.3.1/bits/stl_iterator.h **** 
 529:d:/github/AIOT_WORKSHOP/AIoT_MT2503AVE_SDK/11CW1418SP4_03_CORETEK03AE_11C_V1_GPRS_MMI/Tools/MinGW/include/c++/3.3.1/bits/stl_iterator.h ****       /// Simply returns *this.
 530:d:/github/AIOT_WORKSHOP/AIoT_MT2503AVE_SDK/11CW1418SP4_03_CORETEK03AE_11C_V1_GPRS_MMI/Tools/MinGW/include/c++/3.3.1/bits/stl_iterator.h ****       insert_iterator& 
 531:d:/github/AIOT_WORKSHOP/AIoT_MT2503AVE_SDK/11CW1418SP4_03_CORETEK03AE_11C_V1_GPRS_MMI/Tools/MinGW/include/c++/3.3.1/bits/stl_iterator.h ****       operator*() { return *this; }
 532:d:/github/AIOT_WORKSHOP/AIoT_MT2503AVE_SDK/11CW1418SP4_03_CORETEK03AE_11C_V1_GPRS_MMI/Tools/MinGW/include/c++/3.3.1/bits/stl_iterator.h **** 
 533:d:/github/AIOT_WORKSHOP/AIoT_MT2503AVE_SDK/11CW1418SP4_03_CORETEK03AE_11C_V1_GPRS_MMI/Tools/MinGW/include/c++/3.3.1/bits/stl_iterator.h ****       /// Simply returns *this.  (This %iterator does not "move".)
 534:d:/github/AIOT_WORKSHOP/AIoT_MT2503AVE_SDK/11CW1418SP4_03_CORETEK03AE_11C_V1_GPRS_MMI/Tools/MinGW/include/c++/3.3.1/bits/stl_iterator.h ****       insert_iterator& 
 535:d:/github/AIOT_WORKSHOP/AIoT_MT2503AVE_SDK/11CW1418SP4_03_CORETEK03AE_11C_V1_GPRS_MMI/Tools/MinGW/include/c++/3.3.1/bits/stl_iterator.h ****       operator++() { return *this; }
 536:d:/github/AIOT_WORKSHOP/AIoT_MT2503AVE_SDK/11CW1418SP4_03_CORETEK03AE_11C_V1_GPRS_MMI/Tools/MinGW/include/c++/3.3.1/bits/stl_iterator.h **** 
 537:d:/github/AIOT_WORKSHOP/AIoT_MT2503AVE_SDK/11CW1418SP4_03_CORETEK03AE_11C_V1_GPRS_MMI/Tools/MinGW/include/c++/3.3.1/bits/stl_iterator.h ****       /// Simply returns *this.  (This %iterator does not "move".)
 538:d:/github/AIOT_WORKSHOP/AIoT_MT2503AVE_SDK/11CW1418SP4_03_CORETEK03AE_11C_V1_GPRS_MMI/Tools/MinGW/include/c++/3.3.1/bits/stl_iterator.h ****       insert_iterator& 
 539:d:/github/AIOT_WORKSHOP/AIoT_MT2503AVE_SDK/11CW1418SP4_03_CORETEK03AE_11C_V1_GPRS_MMI/Tools/MinGW/include/c++/3.3.1/bits/stl_iterator.h ****       operator++(int) { return *this; }
 540:d:/github/AIOT_WORKSHOP/AIoT_MT2503AVE_SDK/11CW1418SP4_03_CORETEK03AE_11C_V1_GPRS_MMI/Tools/MinGW/include/c++/3.3.1/bits/stl_iterator.h ****     };
 541:d:/github/AIOT_WORKSHOP/AIoT_MT2503AVE_SDK/11CW1418SP4_03_CORETEK03AE_11C_V1_GPRS_MMI/Tools/MinGW/include/c++/3.3.1/bits/stl_iterator.h ****   
 542:d:/github/AIOT_WORKSHOP/AIoT_MT2503AVE_SDK/11CW1418SP4_03_CORETEK03AE_11C_V1_GPRS_MMI/Tools/MinGW/include/c++/3.3.1/bits/stl_iterator.h ****   /**
GAS LISTING d:/github/AIOT_WORKSHOP/AIoT_MT2503AVE_SDK/11CW1418SP4_03_CORETEK03AE_11C_V1_GPRS_MMI/plutommi/Customer/ResGenerator/gcctmp/ccmAfaaa.s 			page 266


 543:d:/github/AIOT_WORKSHOP/AIoT_MT2503AVE_SDK/11CW1418SP4_03_CORETEK03AE_11C_V1_GPRS_MMI/Tools/MinGW/include/c++/3.3.1/bits/stl_iterator.h ****    *  @param  x  A container of arbitrary type.
 544:d:/github/AIOT_WORKSHOP/AIoT_MT2503AVE_SDK/11CW1418SP4_03_CORETEK03AE_11C_V1_GPRS_MMI/Tools/MinGW/include/c++/3.3.1/bits/stl_iterator.h ****    *  @return  An instance of insert_iterator working on @p x.
 545:d:/github/AIOT_WORKSHOP/AIoT_MT2503AVE_SDK/11CW1418SP4_03_CORETEK03AE_11C_V1_GPRS_MMI/Tools/MinGW/include/c++/3.3.1/bits/stl_iterator.h ****    *
 546:d:/github/AIOT_WORKSHOP/AIoT_MT2503AVE_SDK/11CW1418SP4_03_CORETEK03AE_11C_V1_GPRS_MMI/Tools/MinGW/include/c++/3.3.1/bits/stl_iterator.h ****    *  This wrapper function helps in creating insert_iterator instances.
 547:d:/github/AIOT_WORKSHOP/AIoT_MT2503AVE_SDK/11CW1418SP4_03_CORETEK03AE_11C_V1_GPRS_MMI/Tools/MinGW/include/c++/3.3.1/bits/stl_iterator.h ****    *  Typing the name of the %iterator requires knowing the precise full
 548:d:/github/AIOT_WORKSHOP/AIoT_MT2503AVE_SDK/11CW1418SP4_03_CORETEK03AE_11C_V1_GPRS_MMI/Tools/MinGW/include/c++/3.3.1/bits/stl_iterator.h ****    *  type of the container, which can be tedious and impedes generic
 549:d:/github/AIOT_WORKSHOP/AIoT_MT2503AVE_SDK/11CW1418SP4_03_CORETEK03AE_11C_V1_GPRS_MMI/Tools/MinGW/include/c++/3.3.1/bits/stl_iterator.h ****    *  programming.  Using this function lets you take advantage of automatic
 550:d:/github/AIOT_WORKSHOP/AIoT_MT2503AVE_SDK/11CW1418SP4_03_CORETEK03AE_11C_V1_GPRS_MMI/Tools/MinGW/include/c++/3.3.1/bits/stl_iterator.h ****    *  template parameter deduction, making the compiler match the correct
 551:d:/github/AIOT_WORKSHOP/AIoT_MT2503AVE_SDK/11CW1418SP4_03_CORETEK03AE_11C_V1_GPRS_MMI/Tools/MinGW/include/c++/3.3.1/bits/stl_iterator.h ****    *  types for you.
 552:d:/github/AIOT_WORKSHOP/AIoT_MT2503AVE_SDK/11CW1418SP4_03_CORETEK03AE_11C_V1_GPRS_MMI/Tools/MinGW/include/c++/3.3.1/bits/stl_iterator.h ****   */
 553:d:/github/AIOT_WORKSHOP/AIoT_MT2503AVE_SDK/11CW1418SP4_03_CORETEK03AE_11C_V1_GPRS_MMI/Tools/MinGW/include/c++/3.3.1/bits/stl_iterator.h ****   template<typename _Container, typename _Iterator>
 554:d:/github/AIOT_WORKSHOP/AIoT_MT2503AVE_SDK/11CW1418SP4_03_CORETEK03AE_11C_V1_GPRS_MMI/Tools/MinGW/include/c++/3.3.1/bits/stl_iterator.h ****     inline insert_iterator<_Container> 
 555:d:/github/AIOT_WORKSHOP/AIoT_MT2503AVE_SDK/11CW1418SP4_03_CORETEK03AE_11C_V1_GPRS_MMI/Tools/MinGW/include/c++/3.3.1/bits/stl_iterator.h ****     inserter(_Container& __x, _Iterator __i)
 556:d:/github/AIOT_WORKSHOP/AIoT_MT2503AVE_SDK/11CW1418SP4_03_CORETEK03AE_11C_V1_GPRS_MMI/Tools/MinGW/include/c++/3.3.1/bits/stl_iterator.h ****     {
 557:d:/github/AIOT_WORKSHOP/AIoT_MT2503AVE_SDK/11CW1418SP4_03_CORETEK03AE_11C_V1_GPRS_MMI/Tools/MinGW/include/c++/3.3.1/bits/stl_iterator.h ****       return insert_iterator<_Container>(__x, 
 558:d:/github/AIOT_WORKSHOP/AIoT_MT2503AVE_SDK/11CW1418SP4_03_CORETEK03AE_11C_V1_GPRS_MMI/Tools/MinGW/include/c++/3.3.1/bits/stl_iterator.h **** 					 typename _Container::iterator(__i));
 559:d:/github/AIOT_WORKSHOP/AIoT_MT2503AVE_SDK/11CW1418SP4_03_CORETEK03AE_11C_V1_GPRS_MMI/Tools/MinGW/include/c++/3.3.1/bits/stl_iterator.h ****     }
 560:d:/github/AIOT_WORKSHOP/AIoT_MT2503AVE_SDK/11CW1418SP4_03_CORETEK03AE_11C_V1_GPRS_MMI/Tools/MinGW/include/c++/3.3.1/bits/stl_iterator.h **** } // namespace std
 561:d:/github/AIOT_WORKSHOP/AIoT_MT2503AVE_SDK/11CW1418SP4_03_CORETEK03AE_11C_V1_GPRS_MMI/Tools/MinGW/include/c++/3.3.1/bits/stl_iterator.h **** 
 562:d:/github/AIOT_WORKSHOP/AIoT_MT2503AVE_SDK/11CW1418SP4_03_CORETEK03AE_11C_V1_GPRS_MMI/Tools/MinGW/include/c++/3.3.1/bits/stl_iterator.h **** namespace __gnu_cxx
 563:d:/github/AIOT_WORKSHOP/AIoT_MT2503AVE_SDK/11CW1418SP4_03_CORETEK03AE_11C_V1_GPRS_MMI/Tools/MinGW/include/c++/3.3.1/bits/stl_iterator.h **** {  
 564:d:/github/AIOT_WORKSHOP/AIoT_MT2503AVE_SDK/11CW1418SP4_03_CORETEK03AE_11C_V1_GPRS_MMI/Tools/MinGW/include/c++/3.3.1/bits/stl_iterator.h ****   // This iterator adapter is 'normal' in the sense that it does not
 565:d:/github/AIOT_WORKSHOP/AIoT_MT2503AVE_SDK/11CW1418SP4_03_CORETEK03AE_11C_V1_GPRS_MMI/Tools/MinGW/include/c++/3.3.1/bits/stl_iterator.h ****   // change the semantics of any of the operators of its iterator
 566:d:/github/AIOT_WORKSHOP/AIoT_MT2503AVE_SDK/11CW1418SP4_03_CORETEK03AE_11C_V1_GPRS_MMI/Tools/MinGW/include/c++/3.3.1/bits/stl_iterator.h ****   // parameter.  Its primary purpose is to convert an iterator that is
 567:d:/github/AIOT_WORKSHOP/AIoT_MT2503AVE_SDK/11CW1418SP4_03_CORETEK03AE_11C_V1_GPRS_MMI/Tools/MinGW/include/c++/3.3.1/bits/stl_iterator.h ****   // not a class, e.g. a pointer, into an iterator that is a class.
 568:d:/github/AIOT_WORKSHOP/AIoT_MT2503AVE_SDK/11CW1418SP4_03_CORETEK03AE_11C_V1_GPRS_MMI/Tools/MinGW/include/c++/3.3.1/bits/stl_iterator.h ****   // The _Container parameter exists solely so that different containers
 569:d:/github/AIOT_WORKSHOP/AIoT_MT2503AVE_SDK/11CW1418SP4_03_CORETEK03AE_11C_V1_GPRS_MMI/Tools/MinGW/include/c++/3.3.1/bits/stl_iterator.h ****   // using this template can instantiate different types, even if the
 570:d:/github/AIOT_WORKSHOP/AIoT_MT2503AVE_SDK/11CW1418SP4_03_CORETEK03AE_11C_V1_GPRS_MMI/Tools/MinGW/include/c++/3.3.1/bits/stl_iterator.h ****   // _Iterator parameter is the same.
 571:d:/github/AIOT_WORKSHOP/AIoT_MT2503AVE_SDK/11CW1418SP4_03_CORETEK03AE_11C_V1_GPRS_MMI/Tools/MinGW/include/c++/3.3.1/bits/stl_iterator.h ****   using std::iterator_traits;
 572:d:/github/AIOT_WORKSHOP/AIoT_MT2503AVE_SDK/11CW1418SP4_03_CORETEK03AE_11C_V1_GPRS_MMI/Tools/MinGW/include/c++/3.3.1/bits/stl_iterator.h ****   using std::iterator;
 573:d:/github/AIOT_WORKSHOP/AIoT_MT2503AVE_SDK/11CW1418SP4_03_CORETEK03AE_11C_V1_GPRS_MMI/Tools/MinGW/include/c++/3.3.1/bits/stl_iterator.h ****   template<typename _Iterator, typename _Container>
 574:d:/github/AIOT_WORKSHOP/AIoT_MT2503AVE_SDK/11CW1418SP4_03_CORETEK03AE_11C_V1_GPRS_MMI/Tools/MinGW/include/c++/3.3.1/bits/stl_iterator.h ****     class __normal_iterator
 575:d:/github/AIOT_WORKSHOP/AIoT_MT2503AVE_SDK/11CW1418SP4_03_CORETEK03AE_11C_V1_GPRS_MMI/Tools/MinGW/include/c++/3.3.1/bits/stl_iterator.h ****       : public iterator<typename iterator_traits<_Iterator>::iterator_category,
 576:d:/github/AIOT_WORKSHOP/AIoT_MT2503AVE_SDK/11CW1418SP4_03_CORETEK03AE_11C_V1_GPRS_MMI/Tools/MinGW/include/c++/3.3.1/bits/stl_iterator.h ****                         typename iterator_traits<_Iterator>::value_type,
 577:d:/github/AIOT_WORKSHOP/AIoT_MT2503AVE_SDK/11CW1418SP4_03_CORETEK03AE_11C_V1_GPRS_MMI/Tools/MinGW/include/c++/3.3.1/bits/stl_iterator.h ****                         typename iterator_traits<_Iterator>::difference_type,
 578:d:/github/AIOT_WORKSHOP/AIoT_MT2503AVE_SDK/11CW1418SP4_03_CORETEK03AE_11C_V1_GPRS_MMI/Tools/MinGW/include/c++/3.3.1/bits/stl_iterator.h ****                         typename iterator_traits<_Iterator>::pointer,
 579:d:/github/AIOT_WORKSHOP/AIoT_MT2503AVE_SDK/11CW1418SP4_03_CORETEK03AE_11C_V1_GPRS_MMI/Tools/MinGW/include/c++/3.3.1/bits/stl_iterator.h ****                         typename iterator_traits<_Iterator>::reference>
 580:d:/github/AIOT_WORKSHOP/AIoT_MT2503AVE_SDK/11CW1418SP4_03_CORETEK03AE_11C_V1_GPRS_MMI/Tools/MinGW/include/c++/3.3.1/bits/stl_iterator.h ****     {
 581:d:/github/AIOT_WORKSHOP/AIoT_MT2503AVE_SDK/11CW1418SP4_03_CORETEK03AE_11C_V1_GPRS_MMI/Tools/MinGW/include/c++/3.3.1/bits/stl_iterator.h ****     protected:
 582:d:/github/AIOT_WORKSHOP/AIoT_MT2503AVE_SDK/11CW1418SP4_03_CORETEK03AE_11C_V1_GPRS_MMI/Tools/MinGW/include/c++/3.3.1/bits/stl_iterator.h ****       _Iterator _M_current;
 583:d:/github/AIOT_WORKSHOP/AIoT_MT2503AVE_SDK/11CW1418SP4_03_CORETEK03AE_11C_V1_GPRS_MMI/Tools/MinGW/include/c++/3.3.1/bits/stl_iterator.h ****       
 584:d:/github/AIOT_WORKSHOP/AIoT_MT2503AVE_SDK/11CW1418SP4_03_CORETEK03AE_11C_V1_GPRS_MMI/Tools/MinGW/include/c++/3.3.1/bits/stl_iterator.h ****     public:
 585:d:/github/AIOT_WORKSHOP/AIoT_MT2503AVE_SDK/11CW1418SP4_03_CORETEK03AE_11C_V1_GPRS_MMI/Tools/MinGW/include/c++/3.3.1/bits/stl_iterator.h ****       typedef typename iterator_traits<_Iterator>::difference_type 	
 586:d:/github/AIOT_WORKSHOP/AIoT_MT2503AVE_SDK/11CW1418SP4_03_CORETEK03AE_11C_V1_GPRS_MMI/Tools/MinGW/include/c++/3.3.1/bits/stl_iterator.h ****       							       difference_type;
 587:d:/github/AIOT_WORKSHOP/AIoT_MT2503AVE_SDK/11CW1418SP4_03_CORETEK03AE_11C_V1_GPRS_MMI/Tools/MinGW/include/c++/3.3.1/bits/stl_iterator.h ****       typedef typename iterator_traits<_Iterator>::reference   reference;
 588:d:/github/AIOT_WORKSHOP/AIoT_MT2503AVE_SDK/11CW1418SP4_03_CORETEK03AE_11C_V1_GPRS_MMI/Tools/MinGW/include/c++/3.3.1/bits/stl_iterator.h ****       typedef typename iterator_traits<_Iterator>::pointer     pointer;
 589:d:/github/AIOT_WORKSHOP/AIoT_MT2503AVE_SDK/11CW1418SP4_03_CORETEK03AE_11C_V1_GPRS_MMI/Tools/MinGW/include/c++/3.3.1/bits/stl_iterator.h **** 
 590:d:/github/AIOT_WORKSHOP/AIoT_MT2503AVE_SDK/11CW1418SP4_03_CORETEK03AE_11C_V1_GPRS_MMI/Tools/MinGW/include/c++/3.3.1/bits/stl_iterator.h ****       __normal_iterator() : _M_current(_Iterator()) { }
 591:d:/github/AIOT_WORKSHOP/AIoT_MT2503AVE_SDK/11CW1418SP4_03_CORETEK03AE_11C_V1_GPRS_MMI/Tools/MinGW/include/c++/3.3.1/bits/stl_iterator.h **** 
 592:d:/github/AIOT_WORKSHOP/AIoT_MT2503AVE_SDK/11CW1418SP4_03_CORETEK03AE_11C_V1_GPRS_MMI/Tools/MinGW/include/c++/3.3.1/bits/stl_iterator.h ****       explicit 
 593:d:/github/AIOT_WORKSHOP/AIoT_MT2503AVE_SDK/11CW1418SP4_03_CORETEK03AE_11C_V1_GPRS_MMI/Tools/MinGW/include/c++/3.3.1/bits/stl_iterator.h ****       __normal_iterator(const _Iterator& __i) : _M_current(__i) { }
 10800              	LM870:
 10801 0000 55       		pushl	%ebp
 10802 0001 89E5     		movl	%esp, %ebp
 10803 0003 83EC08   		subl	$8, %esp
 10805              	LM871:
 10806              	LBB110:
GAS LISTING d:/github/AIOT_WORKSHOP/AIoT_MT2503AVE_SDK/11CW1418SP4_03_CORETEK03AE_11C_V1_GPRS_MMI/plutommi/Customer/ResGenerator/gcctmp/ccmAfaaa.s 			page 267


 10807 0006 8B4508   		movl	8(%ebp), %eax
 10808 0009 890424   		movl	%eax, (%esp)
 10809 000c E8000000 		call	__ZNSt8iteratorISt26random_access_iterator_tagP15ResFileGenParamiPKS2_RS3_EC2Ev
 10809      00
 10810 0011 8B5508   		movl	8(%ebp), %edx
 10811 0014 8B450C   		movl	12(%ebp), %eax
 10812 0017 8B00     		movl	(%eax), %eax
 10813 0019 8902     		movl	%eax, (%edx)
 10814 001b C9       		leave
 10815 001c C3       		ret
 10816              	LBE110:
 10817              	Lscope52:
 10819 001d 909090   		.section	.text$_ZNKSt6vectorIP15ResFileGenParamSaIS1_EE3endEv,"x"
 10820              		.linkonce discard
 10821              		.align 2
 10824              	.globl __ZNKSt6vectorIP15ResFileGenParamSaIS1_EE3endEv
 10826              	__ZNKSt6vectorIP15ResFileGenParamSaIS1_EE3endEv:
 10828              	Ltext8:
 10830              	LM872:
 10831 0000 55       		pushl	%ebp
 10832 0001 89E5     		movl	%esp, %ebp
 10833 0003 83EC18   		subl	$24, %esp
 10835              	LM873:
 10836              	LBB111:
 10837 0006 8B4508   		movl	8(%ebp), %eax
 10838 0009 8B4004   		movl	4(%eax), %eax
 10839 000c 8945F8   		movl	%eax, -8(%ebp)
 10840 000f 8D45F8   		leal	-8(%ebp), %eax
 10841 0012 89442404 		movl	%eax, 4(%esp)
 10842 0016 8D45FC   		leal	-4(%ebp), %eax
 10843 0019 890424   		movl	%eax, (%esp)
 10844 001c E8000000 		call	__ZN9__gnu_cxx17__normal_iteratorIPKP15ResFileGenParamSt6vectorIS2_SaIS2_EEEC1ERKS4_
 10844      00
 10845 0021 8B45FC   		movl	-4(%ebp), %eax
 10846 0024 C9       		leave
 10847 0025 C3       		ret
 10848              	LBE111:
 10849              	Lscope53:
 10851 0026 9090     		.section	.text$_ZN9__gnu_cxxmiIPKP15ResFileGenParamS4_St6vectorIS2_SaIS2_EEEENS_17__normal_iterato
 10852              		.linkonce discard
 10853              		.align 2
 10857              	.globl __ZN9__gnu_cxxmiIPKP15ResFileGenParamS4_St6vectorIS2_SaIS2_EEEENS_17__normal_iteratorIT_T1_E
 10859              	__ZN9__gnu_cxxmiIPKP15ResFileGenParamS4_St6vectorIS2_SaIS2_EEEENS_17__normal_iteratorIT_T1_E15diffe
 10861              	Ltext9:
 594:d:/github/AIOT_WORKSHOP/AIoT_MT2503AVE_SDK/11CW1418SP4_03_CORETEK03AE_11C_V1_GPRS_MMI/Tools/MinGW/include/c++/3.3.1/bits/stl_iterator.h **** 
 595:d:/github/AIOT_WORKSHOP/AIoT_MT2503AVE_SDK/11CW1418SP4_03_CORETEK03AE_11C_V1_GPRS_MMI/Tools/MinGW/include/c++/3.3.1/bits/stl_iterator.h ****       // Allow iterator to const_iterator conversion
 596:d:/github/AIOT_WORKSHOP/AIoT_MT2503AVE_SDK/11CW1418SP4_03_CORETEK03AE_11C_V1_GPRS_MMI/Tools/MinGW/include/c++/3.3.1/bits/stl_iterator.h ****       template<typename _Iter>
 597:d:/github/AIOT_WORKSHOP/AIoT_MT2503AVE_SDK/11CW1418SP4_03_CORETEK03AE_11C_V1_GPRS_MMI/Tools/MinGW/include/c++/3.3.1/bits/stl_iterator.h ****       inline __normal_iterator(const __normal_iterator<_Iter, _Container>& __i)
 598:d:/github/AIOT_WORKSHOP/AIoT_MT2503AVE_SDK/11CW1418SP4_03_CORETEK03AE_11C_V1_GPRS_MMI/Tools/MinGW/include/c++/3.3.1/bits/stl_iterator.h **** 	: _M_current(__i.base()) { }
 599:d:/github/AIOT_WORKSHOP/AIoT_MT2503AVE_SDK/11CW1418SP4_03_CORETEK03AE_11C_V1_GPRS_MMI/Tools/MinGW/include/c++/3.3.1/bits/stl_iterator.h **** 
 600:d:/github/AIOT_WORKSHOP/AIoT_MT2503AVE_SDK/11CW1418SP4_03_CORETEK03AE_11C_V1_GPRS_MMI/Tools/MinGW/include/c++/3.3.1/bits/stl_iterator.h ****       // Forward iterator requirements
 601:d:/github/AIOT_WORKSHOP/AIoT_MT2503AVE_SDK/11CW1418SP4_03_CORETEK03AE_11C_V1_GPRS_MMI/Tools/MinGW/include/c++/3.3.1/bits/stl_iterator.h ****       reference
 602:d:/github/AIOT_WORKSHOP/AIoT_MT2503AVE_SDK/11CW1418SP4_03_CORETEK03AE_11C_V1_GPRS_MMI/Tools/MinGW/include/c++/3.3.1/bits/stl_iterator.h ****       operator*() const { return *_M_current; }
 603:d:/github/AIOT_WORKSHOP/AIoT_MT2503AVE_SDK/11CW1418SP4_03_CORETEK03AE_11C_V1_GPRS_MMI/Tools/MinGW/include/c++/3.3.1/bits/stl_iterator.h ****       
 604:d:/github/AIOT_WORKSHOP/AIoT_MT2503AVE_SDK/11CW1418SP4_03_CORETEK03AE_11C_V1_GPRS_MMI/Tools/MinGW/include/c++/3.3.1/bits/stl_iterator.h ****       pointer
 605:d:/github/AIOT_WORKSHOP/AIoT_MT2503AVE_SDK/11CW1418SP4_03_CORETEK03AE_11C_V1_GPRS_MMI/Tools/MinGW/include/c++/3.3.1/bits/stl_iterator.h ****       operator->() const { return _M_current; }
 606:d:/github/AIOT_WORKSHOP/AIoT_MT2503AVE_SDK/11CW1418SP4_03_CORETEK03AE_11C_V1_GPRS_MMI/Tools/MinGW/include/c++/3.3.1/bits/stl_iterator.h ****       
GAS LISTING d:/github/AIOT_WORKSHOP/AIoT_MT2503AVE_SDK/11CW1418SP4_03_CORETEK03AE_11C_V1_GPRS_MMI/plutommi/Customer/ResGenerator/gcctmp/ccmAfaaa.s 			page 268


 607:d:/github/AIOT_WORKSHOP/AIoT_MT2503AVE_SDK/11CW1418SP4_03_CORETEK03AE_11C_V1_GPRS_MMI/Tools/MinGW/include/c++/3.3.1/bits/stl_iterator.h ****       __normal_iterator&
 608:d:/github/AIOT_WORKSHOP/AIoT_MT2503AVE_SDK/11CW1418SP4_03_CORETEK03AE_11C_V1_GPRS_MMI/Tools/MinGW/include/c++/3.3.1/bits/stl_iterator.h ****       operator++() { ++_M_current; return *this; }
 609:d:/github/AIOT_WORKSHOP/AIoT_MT2503AVE_SDK/11CW1418SP4_03_CORETEK03AE_11C_V1_GPRS_MMI/Tools/MinGW/include/c++/3.3.1/bits/stl_iterator.h ****       
 610:d:/github/AIOT_WORKSHOP/AIoT_MT2503AVE_SDK/11CW1418SP4_03_CORETEK03AE_11C_V1_GPRS_MMI/Tools/MinGW/include/c++/3.3.1/bits/stl_iterator.h ****       __normal_iterator
 611:d:/github/AIOT_WORKSHOP/AIoT_MT2503AVE_SDK/11CW1418SP4_03_CORETEK03AE_11C_V1_GPRS_MMI/Tools/MinGW/include/c++/3.3.1/bits/stl_iterator.h ****       operator++(int) { return __normal_iterator(_M_current++); }
 612:d:/github/AIOT_WORKSHOP/AIoT_MT2503AVE_SDK/11CW1418SP4_03_CORETEK03AE_11C_V1_GPRS_MMI/Tools/MinGW/include/c++/3.3.1/bits/stl_iterator.h ****       
 613:d:/github/AIOT_WORKSHOP/AIoT_MT2503AVE_SDK/11CW1418SP4_03_CORETEK03AE_11C_V1_GPRS_MMI/Tools/MinGW/include/c++/3.3.1/bits/stl_iterator.h ****       // Bidirectional iterator requirements
 614:d:/github/AIOT_WORKSHOP/AIoT_MT2503AVE_SDK/11CW1418SP4_03_CORETEK03AE_11C_V1_GPRS_MMI/Tools/MinGW/include/c++/3.3.1/bits/stl_iterator.h ****       __normal_iterator&
 615:d:/github/AIOT_WORKSHOP/AIoT_MT2503AVE_SDK/11CW1418SP4_03_CORETEK03AE_11C_V1_GPRS_MMI/Tools/MinGW/include/c++/3.3.1/bits/stl_iterator.h ****       operator--() { --_M_current; return *this; }
 616:d:/github/AIOT_WORKSHOP/AIoT_MT2503AVE_SDK/11CW1418SP4_03_CORETEK03AE_11C_V1_GPRS_MMI/Tools/MinGW/include/c++/3.3.1/bits/stl_iterator.h ****       
 617:d:/github/AIOT_WORKSHOP/AIoT_MT2503AVE_SDK/11CW1418SP4_03_CORETEK03AE_11C_V1_GPRS_MMI/Tools/MinGW/include/c++/3.3.1/bits/stl_iterator.h ****       __normal_iterator
 618:d:/github/AIOT_WORKSHOP/AIoT_MT2503AVE_SDK/11CW1418SP4_03_CORETEK03AE_11C_V1_GPRS_MMI/Tools/MinGW/include/c++/3.3.1/bits/stl_iterator.h ****       operator--(int) { return __normal_iterator(_M_current--); }
 619:d:/github/AIOT_WORKSHOP/AIoT_MT2503AVE_SDK/11CW1418SP4_03_CORETEK03AE_11C_V1_GPRS_MMI/Tools/MinGW/include/c++/3.3.1/bits/stl_iterator.h ****       
 620:d:/github/AIOT_WORKSHOP/AIoT_MT2503AVE_SDK/11CW1418SP4_03_CORETEK03AE_11C_V1_GPRS_MMI/Tools/MinGW/include/c++/3.3.1/bits/stl_iterator.h ****       // Random access iterator requirements
 621:d:/github/AIOT_WORKSHOP/AIoT_MT2503AVE_SDK/11CW1418SP4_03_CORETEK03AE_11C_V1_GPRS_MMI/Tools/MinGW/include/c++/3.3.1/bits/stl_iterator.h ****       reference
 622:d:/github/AIOT_WORKSHOP/AIoT_MT2503AVE_SDK/11CW1418SP4_03_CORETEK03AE_11C_V1_GPRS_MMI/Tools/MinGW/include/c++/3.3.1/bits/stl_iterator.h ****       operator[](const difference_type& __n) const
 623:d:/github/AIOT_WORKSHOP/AIoT_MT2503AVE_SDK/11CW1418SP4_03_CORETEK03AE_11C_V1_GPRS_MMI/Tools/MinGW/include/c++/3.3.1/bits/stl_iterator.h ****       { return _M_current[__n]; }
 624:d:/github/AIOT_WORKSHOP/AIoT_MT2503AVE_SDK/11CW1418SP4_03_CORETEK03AE_11C_V1_GPRS_MMI/Tools/MinGW/include/c++/3.3.1/bits/stl_iterator.h ****       
 625:d:/github/AIOT_WORKSHOP/AIoT_MT2503AVE_SDK/11CW1418SP4_03_CORETEK03AE_11C_V1_GPRS_MMI/Tools/MinGW/include/c++/3.3.1/bits/stl_iterator.h ****       __normal_iterator&
 626:d:/github/AIOT_WORKSHOP/AIoT_MT2503AVE_SDK/11CW1418SP4_03_CORETEK03AE_11C_V1_GPRS_MMI/Tools/MinGW/include/c++/3.3.1/bits/stl_iterator.h ****       operator+=(const difference_type& __n)
 627:d:/github/AIOT_WORKSHOP/AIoT_MT2503AVE_SDK/11CW1418SP4_03_CORETEK03AE_11C_V1_GPRS_MMI/Tools/MinGW/include/c++/3.3.1/bits/stl_iterator.h ****       { _M_current += __n; return *this; }
 628:d:/github/AIOT_WORKSHOP/AIoT_MT2503AVE_SDK/11CW1418SP4_03_CORETEK03AE_11C_V1_GPRS_MMI/Tools/MinGW/include/c++/3.3.1/bits/stl_iterator.h **** 
 629:d:/github/AIOT_WORKSHOP/AIoT_MT2503AVE_SDK/11CW1418SP4_03_CORETEK03AE_11C_V1_GPRS_MMI/Tools/MinGW/include/c++/3.3.1/bits/stl_iterator.h ****       __normal_iterator
 630:d:/github/AIOT_WORKSHOP/AIoT_MT2503AVE_SDK/11CW1418SP4_03_CORETEK03AE_11C_V1_GPRS_MMI/Tools/MinGW/include/c++/3.3.1/bits/stl_iterator.h ****       operator+(const difference_type& __n) const
 631:d:/github/AIOT_WORKSHOP/AIoT_MT2503AVE_SDK/11CW1418SP4_03_CORETEK03AE_11C_V1_GPRS_MMI/Tools/MinGW/include/c++/3.3.1/bits/stl_iterator.h ****       { return __normal_iterator(_M_current + __n); }
 632:d:/github/AIOT_WORKSHOP/AIoT_MT2503AVE_SDK/11CW1418SP4_03_CORETEK03AE_11C_V1_GPRS_MMI/Tools/MinGW/include/c++/3.3.1/bits/stl_iterator.h ****       
 633:d:/github/AIOT_WORKSHOP/AIoT_MT2503AVE_SDK/11CW1418SP4_03_CORETEK03AE_11C_V1_GPRS_MMI/Tools/MinGW/include/c++/3.3.1/bits/stl_iterator.h ****       __normal_iterator&
 634:d:/github/AIOT_WORKSHOP/AIoT_MT2503AVE_SDK/11CW1418SP4_03_CORETEK03AE_11C_V1_GPRS_MMI/Tools/MinGW/include/c++/3.3.1/bits/stl_iterator.h ****       operator-=(const difference_type& __n)
 635:d:/github/AIOT_WORKSHOP/AIoT_MT2503AVE_SDK/11CW1418SP4_03_CORETEK03AE_11C_V1_GPRS_MMI/Tools/MinGW/include/c++/3.3.1/bits/stl_iterator.h ****       { _M_current -= __n; return *this; }
 636:d:/github/AIOT_WORKSHOP/AIoT_MT2503AVE_SDK/11CW1418SP4_03_CORETEK03AE_11C_V1_GPRS_MMI/Tools/MinGW/include/c++/3.3.1/bits/stl_iterator.h ****       
 637:d:/github/AIOT_WORKSHOP/AIoT_MT2503AVE_SDK/11CW1418SP4_03_CORETEK03AE_11C_V1_GPRS_MMI/Tools/MinGW/include/c++/3.3.1/bits/stl_iterator.h ****       __normal_iterator
 638:d:/github/AIOT_WORKSHOP/AIoT_MT2503AVE_SDK/11CW1418SP4_03_CORETEK03AE_11C_V1_GPRS_MMI/Tools/MinGW/include/c++/3.3.1/bits/stl_iterator.h ****       operator-(const difference_type& __n) const
 639:d:/github/AIOT_WORKSHOP/AIoT_MT2503AVE_SDK/11CW1418SP4_03_CORETEK03AE_11C_V1_GPRS_MMI/Tools/MinGW/include/c++/3.3.1/bits/stl_iterator.h ****       { return __normal_iterator(_M_current - __n); }
 640:d:/github/AIOT_WORKSHOP/AIoT_MT2503AVE_SDK/11CW1418SP4_03_CORETEK03AE_11C_V1_GPRS_MMI/Tools/MinGW/include/c++/3.3.1/bits/stl_iterator.h ****       
 641:d:/github/AIOT_WORKSHOP/AIoT_MT2503AVE_SDK/11CW1418SP4_03_CORETEK03AE_11C_V1_GPRS_MMI/Tools/MinGW/include/c++/3.3.1/bits/stl_iterator.h ****       const _Iterator& 
 642:d:/github/AIOT_WORKSHOP/AIoT_MT2503AVE_SDK/11CW1418SP4_03_CORETEK03AE_11C_V1_GPRS_MMI/Tools/MinGW/include/c++/3.3.1/bits/stl_iterator.h ****       base() const { return _M_current; }
 643:d:/github/AIOT_WORKSHOP/AIoT_MT2503AVE_SDK/11CW1418SP4_03_CORETEK03AE_11C_V1_GPRS_MMI/Tools/MinGW/include/c++/3.3.1/bits/stl_iterator.h ****     };
 644:d:/github/AIOT_WORKSHOP/AIoT_MT2503AVE_SDK/11CW1418SP4_03_CORETEK03AE_11C_V1_GPRS_MMI/Tools/MinGW/include/c++/3.3.1/bits/stl_iterator.h **** 
 645:d:/github/AIOT_WORKSHOP/AIoT_MT2503AVE_SDK/11CW1418SP4_03_CORETEK03AE_11C_V1_GPRS_MMI/Tools/MinGW/include/c++/3.3.1/bits/stl_iterator.h ****   // Note: In what follows, the left- and right-hand-side iterators are
 646:d:/github/AIOT_WORKSHOP/AIoT_MT2503AVE_SDK/11CW1418SP4_03_CORETEK03AE_11C_V1_GPRS_MMI/Tools/MinGW/include/c++/3.3.1/bits/stl_iterator.h ****   // allowed to vary in types (conceptually in cv-qualification) so that
 647:d:/github/AIOT_WORKSHOP/AIoT_MT2503AVE_SDK/11CW1418SP4_03_CORETEK03AE_11C_V1_GPRS_MMI/Tools/MinGW/include/c++/3.3.1/bits/stl_iterator.h ****   // comparaison between cv-qualified and non-cv-qualified iterators be
 648:d:/github/AIOT_WORKSHOP/AIoT_MT2503AVE_SDK/11CW1418SP4_03_CORETEK03AE_11C_V1_GPRS_MMI/Tools/MinGW/include/c++/3.3.1/bits/stl_iterator.h ****   // valid.  However, the greedy and unfriendly operators in std::rel_ops
 649:d:/github/AIOT_WORKSHOP/AIoT_MT2503AVE_SDK/11CW1418SP4_03_CORETEK03AE_11C_V1_GPRS_MMI/Tools/MinGW/include/c++/3.3.1/bits/stl_iterator.h ****   // will make overload resolution ambiguous (when in scope) if we don't
 650:d:/github/AIOT_WORKSHOP/AIoT_MT2503AVE_SDK/11CW1418SP4_03_CORETEK03AE_11C_V1_GPRS_MMI/Tools/MinGW/include/c++/3.3.1/bits/stl_iterator.h ****   // provide overloads whose operands are of the same type.  Can someone
 651:d:/github/AIOT_WORKSHOP/AIoT_MT2503AVE_SDK/11CW1418SP4_03_CORETEK03AE_11C_V1_GPRS_MMI/Tools/MinGW/include/c++/3.3.1/bits/stl_iterator.h ****   // remind me what generic programming is about? -- Gaby
 652:d:/github/AIOT_WORKSHOP/AIoT_MT2503AVE_SDK/11CW1418SP4_03_CORETEK03AE_11C_V1_GPRS_MMI/Tools/MinGW/include/c++/3.3.1/bits/stl_iterator.h ****   
 653:d:/github/AIOT_WORKSHOP/AIoT_MT2503AVE_SDK/11CW1418SP4_03_CORETEK03AE_11C_V1_GPRS_MMI/Tools/MinGW/include/c++/3.3.1/bits/stl_iterator.h ****   // Forward iterator requirements
 654:d:/github/AIOT_WORKSHOP/AIoT_MT2503AVE_SDK/11CW1418SP4_03_CORETEK03AE_11C_V1_GPRS_MMI/Tools/MinGW/include/c++/3.3.1/bits/stl_iterator.h ****   template<typename _IteratorL, typename _IteratorR, typename _Container>
 655:d:/github/AIOT_WORKSHOP/AIoT_MT2503AVE_SDK/11CW1418SP4_03_CORETEK03AE_11C_V1_GPRS_MMI/Tools/MinGW/include/c++/3.3.1/bits/stl_iterator.h ****   inline bool
 656:d:/github/AIOT_WORKSHOP/AIoT_MT2503AVE_SDK/11CW1418SP4_03_CORETEK03AE_11C_V1_GPRS_MMI/Tools/MinGW/include/c++/3.3.1/bits/stl_iterator.h ****   operator==(const __normal_iterator<_IteratorL, _Container>& __lhs,
 657:d:/github/AIOT_WORKSHOP/AIoT_MT2503AVE_SDK/11CW1418SP4_03_CORETEK03AE_11C_V1_GPRS_MMI/Tools/MinGW/include/c++/3.3.1/bits/stl_iterator.h **** 	     const __normal_iterator<_IteratorR, _Container>& __rhs)
 658:d:/github/AIOT_WORKSHOP/AIoT_MT2503AVE_SDK/11CW1418SP4_03_CORETEK03AE_11C_V1_GPRS_MMI/Tools/MinGW/include/c++/3.3.1/bits/stl_iterator.h ****   { return __lhs.base() == __rhs.base(); }
 659:d:/github/AIOT_WORKSHOP/AIoT_MT2503AVE_SDK/11CW1418SP4_03_CORETEK03AE_11C_V1_GPRS_MMI/Tools/MinGW/include/c++/3.3.1/bits/stl_iterator.h **** 
 660:d:/github/AIOT_WORKSHOP/AIoT_MT2503AVE_SDK/11CW1418SP4_03_CORETEK03AE_11C_V1_GPRS_MMI/Tools/MinGW/include/c++/3.3.1/bits/stl_iterator.h ****   template<typename _Iterator, typename _Container>
 661:d:/github/AIOT_WORKSHOP/AIoT_MT2503AVE_SDK/11CW1418SP4_03_CORETEK03AE_11C_V1_GPRS_MMI/Tools/MinGW/include/c++/3.3.1/bits/stl_iterator.h ****   inline bool
 662:d:/github/AIOT_WORKSHOP/AIoT_MT2503AVE_SDK/11CW1418SP4_03_CORETEK03AE_11C_V1_GPRS_MMI/Tools/MinGW/include/c++/3.3.1/bits/stl_iterator.h ****   operator==(const __normal_iterator<_Iterator, _Container>& __lhs,
 663:d:/github/AIOT_WORKSHOP/AIoT_MT2503AVE_SDK/11CW1418SP4_03_CORETEK03AE_11C_V1_GPRS_MMI/Tools/MinGW/include/c++/3.3.1/bits/stl_iterator.h ****              const __normal_iterator<_Iterator, _Container>& __rhs)
GAS LISTING d:/github/AIOT_WORKSHOP/AIoT_MT2503AVE_SDK/11CW1418SP4_03_CORETEK03AE_11C_V1_GPRS_MMI/plutommi/Customer/ResGenerator/gcctmp/ccmAfaaa.s 			page 269


 664:d:/github/AIOT_WORKSHOP/AIoT_MT2503AVE_SDK/11CW1418SP4_03_CORETEK03AE_11C_V1_GPRS_MMI/Tools/MinGW/include/c++/3.3.1/bits/stl_iterator.h ****   { return __lhs.base() == __rhs.base(); }
 665:d:/github/AIOT_WORKSHOP/AIoT_MT2503AVE_SDK/11CW1418SP4_03_CORETEK03AE_11C_V1_GPRS_MMI/Tools/MinGW/include/c++/3.3.1/bits/stl_iterator.h **** 
 666:d:/github/AIOT_WORKSHOP/AIoT_MT2503AVE_SDK/11CW1418SP4_03_CORETEK03AE_11C_V1_GPRS_MMI/Tools/MinGW/include/c++/3.3.1/bits/stl_iterator.h ****   template<typename _IteratorL, typename _IteratorR, typename _Container>
 667:d:/github/AIOT_WORKSHOP/AIoT_MT2503AVE_SDK/11CW1418SP4_03_CORETEK03AE_11C_V1_GPRS_MMI/Tools/MinGW/include/c++/3.3.1/bits/stl_iterator.h ****   inline bool
 668:d:/github/AIOT_WORKSHOP/AIoT_MT2503AVE_SDK/11CW1418SP4_03_CORETEK03AE_11C_V1_GPRS_MMI/Tools/MinGW/include/c++/3.3.1/bits/stl_iterator.h ****   operator!=(const __normal_iterator<_IteratorL, _Container>& __lhs,
 669:d:/github/AIOT_WORKSHOP/AIoT_MT2503AVE_SDK/11CW1418SP4_03_CORETEK03AE_11C_V1_GPRS_MMI/Tools/MinGW/include/c++/3.3.1/bits/stl_iterator.h **** 	     const __normal_iterator<_IteratorR, _Container>& __rhs)
 670:d:/github/AIOT_WORKSHOP/AIoT_MT2503AVE_SDK/11CW1418SP4_03_CORETEK03AE_11C_V1_GPRS_MMI/Tools/MinGW/include/c++/3.3.1/bits/stl_iterator.h ****   { return __lhs.base() != __rhs.base(); }
 671:d:/github/AIOT_WORKSHOP/AIoT_MT2503AVE_SDK/11CW1418SP4_03_CORETEK03AE_11C_V1_GPRS_MMI/Tools/MinGW/include/c++/3.3.1/bits/stl_iterator.h **** 
 672:d:/github/AIOT_WORKSHOP/AIoT_MT2503AVE_SDK/11CW1418SP4_03_CORETEK03AE_11C_V1_GPRS_MMI/Tools/MinGW/include/c++/3.3.1/bits/stl_iterator.h ****   template<typename _Iterator, typename _Container>
 673:d:/github/AIOT_WORKSHOP/AIoT_MT2503AVE_SDK/11CW1418SP4_03_CORETEK03AE_11C_V1_GPRS_MMI/Tools/MinGW/include/c++/3.3.1/bits/stl_iterator.h ****   inline bool
 674:d:/github/AIOT_WORKSHOP/AIoT_MT2503AVE_SDK/11CW1418SP4_03_CORETEK03AE_11C_V1_GPRS_MMI/Tools/MinGW/include/c++/3.3.1/bits/stl_iterator.h ****   operator!=(const __normal_iterator<_Iterator, _Container>& __lhs,
 675:d:/github/AIOT_WORKSHOP/AIoT_MT2503AVE_SDK/11CW1418SP4_03_CORETEK03AE_11C_V1_GPRS_MMI/Tools/MinGW/include/c++/3.3.1/bits/stl_iterator.h ****              const __normal_iterator<_Iterator, _Container>& __rhs)
 676:d:/github/AIOT_WORKSHOP/AIoT_MT2503AVE_SDK/11CW1418SP4_03_CORETEK03AE_11C_V1_GPRS_MMI/Tools/MinGW/include/c++/3.3.1/bits/stl_iterator.h ****   { return __lhs.base() != __rhs.base(); }
 677:d:/github/AIOT_WORKSHOP/AIoT_MT2503AVE_SDK/11CW1418SP4_03_CORETEK03AE_11C_V1_GPRS_MMI/Tools/MinGW/include/c++/3.3.1/bits/stl_iterator.h **** 
 678:d:/github/AIOT_WORKSHOP/AIoT_MT2503AVE_SDK/11CW1418SP4_03_CORETEK03AE_11C_V1_GPRS_MMI/Tools/MinGW/include/c++/3.3.1/bits/stl_iterator.h ****   // Random access iterator requirements
 679:d:/github/AIOT_WORKSHOP/AIoT_MT2503AVE_SDK/11CW1418SP4_03_CORETEK03AE_11C_V1_GPRS_MMI/Tools/MinGW/include/c++/3.3.1/bits/stl_iterator.h ****   template<typename _IteratorL, typename _IteratorR, typename _Container>
 680:d:/github/AIOT_WORKSHOP/AIoT_MT2503AVE_SDK/11CW1418SP4_03_CORETEK03AE_11C_V1_GPRS_MMI/Tools/MinGW/include/c++/3.3.1/bits/stl_iterator.h ****   inline bool 
 681:d:/github/AIOT_WORKSHOP/AIoT_MT2503AVE_SDK/11CW1418SP4_03_CORETEK03AE_11C_V1_GPRS_MMI/Tools/MinGW/include/c++/3.3.1/bits/stl_iterator.h ****   operator<(const __normal_iterator<_IteratorL, _Container>& __lhs,
 682:d:/github/AIOT_WORKSHOP/AIoT_MT2503AVE_SDK/11CW1418SP4_03_CORETEK03AE_11C_V1_GPRS_MMI/Tools/MinGW/include/c++/3.3.1/bits/stl_iterator.h **** 	    const __normal_iterator<_IteratorR, _Container>& __rhs)
 683:d:/github/AIOT_WORKSHOP/AIoT_MT2503AVE_SDK/11CW1418SP4_03_CORETEK03AE_11C_V1_GPRS_MMI/Tools/MinGW/include/c++/3.3.1/bits/stl_iterator.h ****   { return __lhs.base() < __rhs.base(); }
 684:d:/github/AIOT_WORKSHOP/AIoT_MT2503AVE_SDK/11CW1418SP4_03_CORETEK03AE_11C_V1_GPRS_MMI/Tools/MinGW/include/c++/3.3.1/bits/stl_iterator.h **** 
 685:d:/github/AIOT_WORKSHOP/AIoT_MT2503AVE_SDK/11CW1418SP4_03_CORETEK03AE_11C_V1_GPRS_MMI/Tools/MinGW/include/c++/3.3.1/bits/stl_iterator.h ****   template<typename _Iterator, typename _Container>
 686:d:/github/AIOT_WORKSHOP/AIoT_MT2503AVE_SDK/11CW1418SP4_03_CORETEK03AE_11C_V1_GPRS_MMI/Tools/MinGW/include/c++/3.3.1/bits/stl_iterator.h ****   inline bool
 687:d:/github/AIOT_WORKSHOP/AIoT_MT2503AVE_SDK/11CW1418SP4_03_CORETEK03AE_11C_V1_GPRS_MMI/Tools/MinGW/include/c++/3.3.1/bits/stl_iterator.h ****   operator<(const __normal_iterator<_Iterator, _Container>& __lhs,
 688:d:/github/AIOT_WORKSHOP/AIoT_MT2503AVE_SDK/11CW1418SP4_03_CORETEK03AE_11C_V1_GPRS_MMI/Tools/MinGW/include/c++/3.3.1/bits/stl_iterator.h ****              const __normal_iterator<_Iterator, _Container>& __rhs)
 689:d:/github/AIOT_WORKSHOP/AIoT_MT2503AVE_SDK/11CW1418SP4_03_CORETEK03AE_11C_V1_GPRS_MMI/Tools/MinGW/include/c++/3.3.1/bits/stl_iterator.h ****   { return __lhs.base() < __rhs.base(); }
 690:d:/github/AIOT_WORKSHOP/AIoT_MT2503AVE_SDK/11CW1418SP4_03_CORETEK03AE_11C_V1_GPRS_MMI/Tools/MinGW/include/c++/3.3.1/bits/stl_iterator.h **** 
 691:d:/github/AIOT_WORKSHOP/AIoT_MT2503AVE_SDK/11CW1418SP4_03_CORETEK03AE_11C_V1_GPRS_MMI/Tools/MinGW/include/c++/3.3.1/bits/stl_iterator.h ****   template<typename _IteratorL, typename _IteratorR, typename _Container>
 692:d:/github/AIOT_WORKSHOP/AIoT_MT2503AVE_SDK/11CW1418SP4_03_CORETEK03AE_11C_V1_GPRS_MMI/Tools/MinGW/include/c++/3.3.1/bits/stl_iterator.h ****   inline bool
 693:d:/github/AIOT_WORKSHOP/AIoT_MT2503AVE_SDK/11CW1418SP4_03_CORETEK03AE_11C_V1_GPRS_MMI/Tools/MinGW/include/c++/3.3.1/bits/stl_iterator.h ****   operator>(const __normal_iterator<_IteratorL, _Container>& __lhs,
 694:d:/github/AIOT_WORKSHOP/AIoT_MT2503AVE_SDK/11CW1418SP4_03_CORETEK03AE_11C_V1_GPRS_MMI/Tools/MinGW/include/c++/3.3.1/bits/stl_iterator.h **** 	    const __normal_iterator<_IteratorR, _Container>& __rhs)
 695:d:/github/AIOT_WORKSHOP/AIoT_MT2503AVE_SDK/11CW1418SP4_03_CORETEK03AE_11C_V1_GPRS_MMI/Tools/MinGW/include/c++/3.3.1/bits/stl_iterator.h ****   { return __lhs.base() > __rhs.base(); }
 696:d:/github/AIOT_WORKSHOP/AIoT_MT2503AVE_SDK/11CW1418SP4_03_CORETEK03AE_11C_V1_GPRS_MMI/Tools/MinGW/include/c++/3.3.1/bits/stl_iterator.h **** 
 697:d:/github/AIOT_WORKSHOP/AIoT_MT2503AVE_SDK/11CW1418SP4_03_CORETEK03AE_11C_V1_GPRS_MMI/Tools/MinGW/include/c++/3.3.1/bits/stl_iterator.h ****   template<typename _Iterator, typename _Container>
 698:d:/github/AIOT_WORKSHOP/AIoT_MT2503AVE_SDK/11CW1418SP4_03_CORETEK03AE_11C_V1_GPRS_MMI/Tools/MinGW/include/c++/3.3.1/bits/stl_iterator.h ****   inline bool
 699:d:/github/AIOT_WORKSHOP/AIoT_MT2503AVE_SDK/11CW1418SP4_03_CORETEK03AE_11C_V1_GPRS_MMI/Tools/MinGW/include/c++/3.3.1/bits/stl_iterator.h ****   operator>(const __normal_iterator<_Iterator, _Container>& __lhs,
 700:d:/github/AIOT_WORKSHOP/AIoT_MT2503AVE_SDK/11CW1418SP4_03_CORETEK03AE_11C_V1_GPRS_MMI/Tools/MinGW/include/c++/3.3.1/bits/stl_iterator.h **** 	    const __normal_iterator<_Iterator, _Container>& __rhs)
 701:d:/github/AIOT_WORKSHOP/AIoT_MT2503AVE_SDK/11CW1418SP4_03_CORETEK03AE_11C_V1_GPRS_MMI/Tools/MinGW/include/c++/3.3.1/bits/stl_iterator.h ****   { return __lhs.base() > __rhs.base(); }
 702:d:/github/AIOT_WORKSHOP/AIoT_MT2503AVE_SDK/11CW1418SP4_03_CORETEK03AE_11C_V1_GPRS_MMI/Tools/MinGW/include/c++/3.3.1/bits/stl_iterator.h **** 
 703:d:/github/AIOT_WORKSHOP/AIoT_MT2503AVE_SDK/11CW1418SP4_03_CORETEK03AE_11C_V1_GPRS_MMI/Tools/MinGW/include/c++/3.3.1/bits/stl_iterator.h ****   template<typename _IteratorL, typename _IteratorR, typename _Container>
 704:d:/github/AIOT_WORKSHOP/AIoT_MT2503AVE_SDK/11CW1418SP4_03_CORETEK03AE_11C_V1_GPRS_MMI/Tools/MinGW/include/c++/3.3.1/bits/stl_iterator.h ****   inline bool
 705:d:/github/AIOT_WORKSHOP/AIoT_MT2503AVE_SDK/11CW1418SP4_03_CORETEK03AE_11C_V1_GPRS_MMI/Tools/MinGW/include/c++/3.3.1/bits/stl_iterator.h ****   operator<=(const __normal_iterator<_IteratorL, _Container>& __lhs,
 706:d:/github/AIOT_WORKSHOP/AIoT_MT2503AVE_SDK/11CW1418SP4_03_CORETEK03AE_11C_V1_GPRS_MMI/Tools/MinGW/include/c++/3.3.1/bits/stl_iterator.h **** 	     const __normal_iterator<_IteratorR, _Container>& __rhs)
 707:d:/github/AIOT_WORKSHOP/AIoT_MT2503AVE_SDK/11CW1418SP4_03_CORETEK03AE_11C_V1_GPRS_MMI/Tools/MinGW/include/c++/3.3.1/bits/stl_iterator.h ****   { return __lhs.base() <= __rhs.base(); }
 708:d:/github/AIOT_WORKSHOP/AIoT_MT2503AVE_SDK/11CW1418SP4_03_CORETEK03AE_11C_V1_GPRS_MMI/Tools/MinGW/include/c++/3.3.1/bits/stl_iterator.h **** 
 709:d:/github/AIOT_WORKSHOP/AIoT_MT2503AVE_SDK/11CW1418SP4_03_CORETEK03AE_11C_V1_GPRS_MMI/Tools/MinGW/include/c++/3.3.1/bits/stl_iterator.h ****   template<typename _Iterator, typename _Container>
 710:d:/github/AIOT_WORKSHOP/AIoT_MT2503AVE_SDK/11CW1418SP4_03_CORETEK03AE_11C_V1_GPRS_MMI/Tools/MinGW/include/c++/3.3.1/bits/stl_iterator.h ****   inline bool
 711:d:/github/AIOT_WORKSHOP/AIoT_MT2503AVE_SDK/11CW1418SP4_03_CORETEK03AE_11C_V1_GPRS_MMI/Tools/MinGW/include/c++/3.3.1/bits/stl_iterator.h ****   operator<=(const __normal_iterator<_Iterator, _Container>& __lhs,
 712:d:/github/AIOT_WORKSHOP/AIoT_MT2503AVE_SDK/11CW1418SP4_03_CORETEK03AE_11C_V1_GPRS_MMI/Tools/MinGW/include/c++/3.3.1/bits/stl_iterator.h **** 	     const __normal_iterator<_Iterator, _Container>& __rhs)
 713:d:/github/AIOT_WORKSHOP/AIoT_MT2503AVE_SDK/11CW1418SP4_03_CORETEK03AE_11C_V1_GPRS_MMI/Tools/MinGW/include/c++/3.3.1/bits/stl_iterator.h ****   { return __lhs.base() <= __rhs.base(); }
 714:d:/github/AIOT_WORKSHOP/AIoT_MT2503AVE_SDK/11CW1418SP4_03_CORETEK03AE_11C_V1_GPRS_MMI/Tools/MinGW/include/c++/3.3.1/bits/stl_iterator.h **** 
 715:d:/github/AIOT_WORKSHOP/AIoT_MT2503AVE_SDK/11CW1418SP4_03_CORETEK03AE_11C_V1_GPRS_MMI/Tools/MinGW/include/c++/3.3.1/bits/stl_iterator.h ****   template<typename _IteratorL, typename _IteratorR, typename _Container>
 716:d:/github/AIOT_WORKSHOP/AIoT_MT2503AVE_SDK/11CW1418SP4_03_CORETEK03AE_11C_V1_GPRS_MMI/Tools/MinGW/include/c++/3.3.1/bits/stl_iterator.h ****   inline bool
 717:d:/github/AIOT_WORKSHOP/AIoT_MT2503AVE_SDK/11CW1418SP4_03_CORETEK03AE_11C_V1_GPRS_MMI/Tools/MinGW/include/c++/3.3.1/bits/stl_iterator.h ****   operator>=(const __normal_iterator<_IteratorL, _Container>& __lhs,
 718:d:/github/AIOT_WORKSHOP/AIoT_MT2503AVE_SDK/11CW1418SP4_03_CORETEK03AE_11C_V1_GPRS_MMI/Tools/MinGW/include/c++/3.3.1/bits/stl_iterator.h **** 	     const __normal_iterator<_IteratorR, _Container>& __rhs)
 719:d:/github/AIOT_WORKSHOP/AIoT_MT2503AVE_SDK/11CW1418SP4_03_CORETEK03AE_11C_V1_GPRS_MMI/Tools/MinGW/include/c++/3.3.1/bits/stl_iterator.h ****   { return __lhs.base() >= __rhs.base(); }
 720:d:/github/AIOT_WORKSHOP/AIoT_MT2503AVE_SDK/11CW1418SP4_03_CORETEK03AE_11C_V1_GPRS_MMI/Tools/MinGW/include/c++/3.3.1/bits/stl_iterator.h **** 
GAS LISTING d:/github/AIOT_WORKSHOP/AIoT_MT2503AVE_SDK/11CW1418SP4_03_CORETEK03AE_11C_V1_GPRS_MMI/plutommi/Customer/ResGenerator/gcctmp/ccmAfaaa.s 			page 270


 721:d:/github/AIOT_WORKSHOP/AIoT_MT2503AVE_SDK/11CW1418SP4_03_CORETEK03AE_11C_V1_GPRS_MMI/Tools/MinGW/include/c++/3.3.1/bits/stl_iterator.h ****   template<typename _Iterator, typename _Container>
 722:d:/github/AIOT_WORKSHOP/AIoT_MT2503AVE_SDK/11CW1418SP4_03_CORETEK03AE_11C_V1_GPRS_MMI/Tools/MinGW/include/c++/3.3.1/bits/stl_iterator.h ****   inline bool
 723:d:/github/AIOT_WORKSHOP/AIoT_MT2503AVE_SDK/11CW1418SP4_03_CORETEK03AE_11C_V1_GPRS_MMI/Tools/MinGW/include/c++/3.3.1/bits/stl_iterator.h ****   operator>=(const __normal_iterator<_Iterator, _Container>& __lhs,
 724:d:/github/AIOT_WORKSHOP/AIoT_MT2503AVE_SDK/11CW1418SP4_03_CORETEK03AE_11C_V1_GPRS_MMI/Tools/MinGW/include/c++/3.3.1/bits/stl_iterator.h **** 	     const __normal_iterator<_Iterator, _Container>& __rhs)
 725:d:/github/AIOT_WORKSHOP/AIoT_MT2503AVE_SDK/11CW1418SP4_03_CORETEK03AE_11C_V1_GPRS_MMI/Tools/MinGW/include/c++/3.3.1/bits/stl_iterator.h ****   { return __lhs.base() >= __rhs.base(); }
 726:d:/github/AIOT_WORKSHOP/AIoT_MT2503AVE_SDK/11CW1418SP4_03_CORETEK03AE_11C_V1_GPRS_MMI/Tools/MinGW/include/c++/3.3.1/bits/stl_iterator.h **** 
 727:d:/github/AIOT_WORKSHOP/AIoT_MT2503AVE_SDK/11CW1418SP4_03_CORETEK03AE_11C_V1_GPRS_MMI/Tools/MinGW/include/c++/3.3.1/bits/stl_iterator.h ****   // _GLIBCPP_RESOLVE_LIB_DEFECTS
 728:d:/github/AIOT_WORKSHOP/AIoT_MT2503AVE_SDK/11CW1418SP4_03_CORETEK03AE_11C_V1_GPRS_MMI/Tools/MinGW/include/c++/3.3.1/bits/stl_iterator.h ****   // According to the resolution of DR179 not only the various comparison
 729:d:/github/AIOT_WORKSHOP/AIoT_MT2503AVE_SDK/11CW1418SP4_03_CORETEK03AE_11C_V1_GPRS_MMI/Tools/MinGW/include/c++/3.3.1/bits/stl_iterator.h ****   // operators but also operator- must accept mixed iterator/const_iterator
 730:d:/github/AIOT_WORKSHOP/AIoT_MT2503AVE_SDK/11CW1418SP4_03_CORETEK03AE_11C_V1_GPRS_MMI/Tools/MinGW/include/c++/3.3.1/bits/stl_iterator.h ****   // parameters.
 731:d:/github/AIOT_WORKSHOP/AIoT_MT2503AVE_SDK/11CW1418SP4_03_CORETEK03AE_11C_V1_GPRS_MMI/Tools/MinGW/include/c++/3.3.1/bits/stl_iterator.h ****   template<typename _IteratorL, typename _IteratorR, typename _Container>
 732:d:/github/AIOT_WORKSHOP/AIoT_MT2503AVE_SDK/11CW1418SP4_03_CORETEK03AE_11C_V1_GPRS_MMI/Tools/MinGW/include/c++/3.3.1/bits/stl_iterator.h ****   inline typename __normal_iterator<_IteratorL, _Container>::difference_type
 733:d:/github/AIOT_WORKSHOP/AIoT_MT2503AVE_SDK/11CW1418SP4_03_CORETEK03AE_11C_V1_GPRS_MMI/Tools/MinGW/include/c++/3.3.1/bits/stl_iterator.h ****   operator-(const __normal_iterator<_IteratorL, _Container>& __lhs,
 734:d:/github/AIOT_WORKSHOP/AIoT_MT2503AVE_SDK/11CW1418SP4_03_CORETEK03AE_11C_V1_GPRS_MMI/Tools/MinGW/include/c++/3.3.1/bits/stl_iterator.h **** 	     const __normal_iterator<_IteratorR, _Container>& __rhs)
 735:d:/github/AIOT_WORKSHOP/AIoT_MT2503AVE_SDK/11CW1418SP4_03_CORETEK03AE_11C_V1_GPRS_MMI/Tools/MinGW/include/c++/3.3.1/bits/stl_iterator.h ****   { return __lhs.base() - __rhs.base(); }
 10863              	LM874:
 10864 0000 55       		pushl	%ebp
 10865 0001 89E5     		movl	%esp, %ebp
 10866 0003 53       		pushl	%ebx
 10867 0004 83EC04   		subl	$4, %esp
 10869              	LM875:
 10870              	LBB112:
 10871 0007 8B4508   		movl	8(%ebp), %eax
 10872 000a 890424   		movl	%eax, (%esp)
 10873 000d E8000000 		call	__ZNK9__gnu_cxx17__normal_iteratorIPKP15ResFileGenParamSt6vectorIS2_SaIS2_EEE4baseEv
 10873      00
 10874 0012 89C3     		movl	%eax, %ebx
 10875 0014 8B450C   		movl	12(%ebp), %eax
 10876 0017 890424   		movl	%eax, (%esp)
 10877 001a E8000000 		call	__ZNK9__gnu_cxx17__normal_iteratorIPKP15ResFileGenParamSt6vectorIS2_SaIS2_EEE4baseEv
 10877      00
 10878 001f 8B10     		movl	(%eax), %edx
 10879 0021 8B03     		movl	(%ebx), %eax
 10880 0023 29D0     		subl	%edx, %eax
 10881 0025 C1F802   		sarl	$2, %eax
 10882 0028 83C404   		addl	$4, %esp
 10883 002b 5B       		popl	%ebx
 10884 002c 5D       		popl	%ebp
 10885 002d C3       		ret
 10886              	LBE112:
 10887              	Lscope54:
 10889 002e 9090     		.section	.text$_ZNK9__gnu_cxx17__normal_iteratorIPKP15ResFileGenParamSt6vectorIS2_SaIS2_EEE4baseEv
 10890              		.linkonce discard
 10891              		.align 2
 10894              	.globl __ZNK9__gnu_cxx17__normal_iteratorIPKP15ResFileGenParamSt6vectorIS2_SaIS2_EEE4baseEv
 10896              	__ZNK9__gnu_cxx17__normal_iteratorIPKP15ResFileGenParamSt6vectorIS2_SaIS2_EEE4baseEv:
 10898              	LM876:
 10899 0000 55       		pushl	%ebp
 10900 0001 89E5     		movl	%esp, %ebp
 10902              	LM877:
 10903              	LBB113:
 10904 0003 8B4508   		movl	8(%ebp), %eax
 10905 0006 5D       		popl	%ebp
 10906 0007 C3       		ret
 10907              	LBE113:
 10908              	Lscope55:
 10910              		.section	.text$_ZNSt6vectorIP15ResFileGenParamSaIS1_EE5beginEv,"x"
GAS LISTING d:/github/AIOT_WORKSHOP/AIoT_MT2503AVE_SDK/11CW1418SP4_03_CORETEK03AE_11C_V1_GPRS_MMI/plutommi/Customer/ResGenerator/gcctmp/ccmAfaaa.s 			page 271


 10911              		.linkonce discard
 10912              		.align 2
 10915              	.globl __ZNSt6vectorIP15ResFileGenParamSaIS1_EE5beginEv
 10917              	__ZNSt6vectorIP15ResFileGenParamSaIS1_EE5beginEv:
 10919              	Ltext10:
 10921              	LM878:
 10922 0000 55       		pushl	%ebp
 10923 0001 89E5     		movl	%esp, %ebp
 10924 0003 83EC18   		subl	$24, %esp
 10926              	LM879:
 10927              	LBB114:
 10928 0006 8B4508   		movl	8(%ebp), %eax
 10929 0009 89442404 		movl	%eax, 4(%esp)
 10930 000d 8D45FC   		leal	-4(%ebp), %eax
 10931 0010 890424   		movl	%eax, (%esp)
 10932 0013 E8000000 		call	__ZN9__gnu_cxx17__normal_iteratorIPP15ResFileGenParamSt6vectorIS2_SaIS2_EEEC1ERKS3_
 10932      00
 10933 0018 8B45FC   		movl	-4(%ebp), %eax
 10934 001b C9       		leave
 10935 001c C3       		ret
 10936              	LBE114:
 10937              	Lscope56:
 10939 001d 909090   		.section	.text$_ZN9__gnu_cxx17__normal_iteratorIPP15ResFileGenParamSt6vectorIS2_SaIS2_EEEC1ERKS3_,
 10940              		.linkonce discard
 10941              		.align 2
 10945              	.globl __ZN9__gnu_cxx17__normal_iteratorIPP15ResFileGenParamSt6vectorIS2_SaIS2_EEEC1ERKS3_
 10947              	__ZN9__gnu_cxx17__normal_iteratorIPP15ResFileGenParamSt6vectorIS2_SaIS2_EEEC1ERKS3_:
 10949              	Ltext11:
 10951              	LM880:
 10952 0000 55       		pushl	%ebp
 10953 0001 89E5     		movl	%esp, %ebp
 10954 0003 83EC08   		subl	$8, %esp
 10956              	LM881:
 10957              	LBB115:
 10958 0006 8B4508   		movl	8(%ebp), %eax
 10959 0009 890424   		movl	%eax, (%esp)
 10960 000c E8000000 		call	__ZNSt8iteratorISt26random_access_iterator_tagP15ResFileGenParamiPS2_RS2_EC2Ev
 10960      00
 10961 0011 8B5508   		movl	8(%ebp), %edx
 10962 0014 8B450C   		movl	12(%ebp), %eax
 10963 0017 8B00     		movl	(%eax), %eax
 10964 0019 8902     		movl	%eax, (%edx)
 10965 001b C9       		leave
 10966 001c C3       		ret
 10967              	LBE115:
 10968              	Lscope57:
 10970 001d 909090   		.section	.text$_ZNK9__gnu_cxx17__normal_iteratorIPP15ResFileGenParamSt6vectorIS2_SaIS2_EEEplERKi,"
 10971              		.linkonce discard
 10972              		.align 2
 10976              	.globl __ZNK9__gnu_cxx17__normal_iteratorIPP15ResFileGenParamSt6vectorIS2_SaIS2_EEEplERKi
 10978              	__ZNK9__gnu_cxx17__normal_iteratorIPP15ResFileGenParamSt6vectorIS2_SaIS2_EEEplERKi:
 10980              	LM882:
 10981 0000 55       		pushl	%ebp
 10982 0001 89E5     		movl	%esp, %ebp
 10983 0003 83EC18   		subl	$24, %esp
 10985              	LM883:
 10986              	LBB116:
GAS LISTING d:/github/AIOT_WORKSHOP/AIoT_MT2503AVE_SDK/11CW1418SP4_03_CORETEK03AE_11C_V1_GPRS_MMI/plutommi/Customer/ResGenerator/gcctmp/ccmAfaaa.s 			page 272


 10987 0006 8B5508   		movl	8(%ebp), %edx
 10988 0009 8B450C   		movl	12(%ebp), %eax
 10989 000c 8B00     		movl	(%eax), %eax
 10990 000e C1E002   		sall	$2, %eax
 10991 0011 0302     		addl	(%edx), %eax
 10992 0013 8945F8   		movl	%eax, -8(%ebp)
 10993 0016 8D45F8   		leal	-8(%ebp), %eax
 10994 0019 89442404 		movl	%eax, 4(%esp)
 10995 001d 8D45FC   		leal	-4(%ebp), %eax
 10996 0020 890424   		movl	%eax, (%esp)
 10997 0023 E8000000 		call	__ZN9__gnu_cxx17__normal_iteratorIPP15ResFileGenParamSt6vectorIS2_SaIS2_EEEC1ERKS3_
 10997      00
 10998 0028 8B45FC   		movl	-4(%ebp), %eax
 10999 002b C9       		leave
 11000 002c C3       		ret
 11001              	LBE116:
 11002              	Lscope58:
 11004 002d 909090   		.section	.text$_ZNK9__gnu_cxx17__normal_iteratorIPP15ResFileGenParamSt6vectorIS2_SaIS2_EEEdeEv,"x"
 11005              		.linkonce discard
 11006              		.align 2
 11009              	.globl __ZNK9__gnu_cxx17__normal_iteratorIPP15ResFileGenParamSt6vectorIS2_SaIS2_EEEdeEv
 11011              	__ZNK9__gnu_cxx17__normal_iteratorIPP15ResFileGenParamSt6vectorIS2_SaIS2_EEEdeEv:
 11013              	LM884:
 11014 0000 55       		pushl	%ebp
 11015 0001 89E5     		movl	%esp, %ebp
 11017              	LM885:
 11018              	LBB117:
 11019 0003 8B4508   		movl	8(%ebp), %eax
 11020 0006 8B00     		movl	(%eax), %eax
 11021 0008 5D       		popl	%ebp
 11022 0009 C3       		ret
 11023              	LBE117:
 11024              	Lscope59:
 11026              	.globl __ZTV25OfflineResPopAudioAdaptor
 11027 000a 9090     		.section	.rdata$_ZTV25OfflineResPopAudioAdaptor,""
 11028              		.linkonce same_size
 11029              		.align 8
 11030              	__ZTV25OfflineResPopAudioAdaptor:
 11031 0000 00000000 		.long	0
 11032 0004 00000000 		.long	__ZTI25OfflineResPopAudioAdaptor
 11033 0008 00000000 		.long	__ZN20OfflineResPopAdaptor8populateEv
 11034 000c 00000000 		.long	__ZN20OfflineResPopAdaptor14setResPopModelEP13ResParamModel
 11035 0010 00000000 		.long	__ZN20OfflineResPopAdaptor14getResPopModelEv
 11036 0014 00000000 		.long	__ZN25OfflineResPopAudioAdaptor21issueLecacyPopulationEP11ResPopParam
 11039              		.section	.text$_ZN16ParamTextFileDAOC2Ev,"x"
 11040              		.linkonce discard
 11041              		.align 2
 11044              	.globl __ZN16ParamTextFileDAOC2Ev
 11046              	__ZN16ParamTextFileDAOC2Ev:
 11048              	Ltext12:
 11050              	LM886:
 11051 0000 55       		pushl	%ebp
 11052 0001 89E5     		movl	%esp, %ebp
 11054              	LM887:
 11055              	LBB118:
 11056 0003 8B4508   		movl	8(%ebp), %eax
 11057 0006 C7000800 		movl	$__ZTV16ParamTextFileDAO+8, (%eax)
GAS LISTING d:/github/AIOT_WORKSHOP/AIoT_MT2503AVE_SDK/11CW1418SP4_03_CORETEK03AE_11C_V1_GPRS_MMI/plutommi/Customer/ResGenerator/gcctmp/ccmAfaaa.s 			page 273


 11057      0000
 11058 000c 5D       		popl	%ebp
 11059 000d C3       		ret
 11060              	L415:
 11061              	L414:
 11062              	LBE118:
 11063              	Lscope60:
 11065 000e 9090     		.section	.text$_ZN20OfflineResPopAdaptorC2Ev,"x"
 11066              		.linkonce discard
 11067              		.align 2
 11070              	.globl __ZN20OfflineResPopAdaptorC2Ev
 11072              	__ZN20OfflineResPopAdaptorC2Ev:
 11074              	LM888:
 11075 0000 55       		pushl	%ebp
 11076 0001 89E5     		movl	%esp, %ebp
 11077 0003 83EC08   		subl	$8, %esp
 11079              	LM889:
 11080              	LBB119:
 11081 0006 8B4508   		movl	8(%ebp), %eax
 11082 0009 890424   		movl	%eax, (%esp)
 11083 000c E8000000 		call	__ZN19OfflineResPopulatorC2Ev
 11083      00
 11084 0011 8B4508   		movl	8(%ebp), %eax
 11085 0014 C7000800 		movl	$__ZTV20OfflineResPopAdaptor+8, (%eax)
 11085      0000
 11086 001a C9       		leave
 11087 001b C3       		ret
 11088              	L418:
 11089              	L417:
 11090              	LBE119:
 11091              	Lscope61:
 11093              		.text
 11094 897b 908D7426 		.align 32
 11094      00
 11095              	LC335:
 11096 8980 4552524F 		.ascii "ERROR!! _audioParam can't be NULL\0"
 11096      52212120 
 11096      5F617564 
 11096      696F5061 
 11096      72616D20 
 11097              		.section	.text$_ZN25OfflineResPopAudioAdaptor21issueLecacyPopulationEP11ResPopParam,"x"
 11098              		.linkonce discard
 11099              		.align 2
 11103              	.globl __ZN25OfflineResPopAudioAdaptor21issueLecacyPopulationEP11ResPopParam
 11105              	__ZN25OfflineResPopAudioAdaptor21issueLecacyPopulationEP11ResPopParam:
 11107              	LM890:
 11108 0000 55       		pushl	%ebp
 11109 0001 89E5     		movl	%esp, %ebp
 11110 0003 56       		pushl	%esi
 11111 0004 53       		pushl	%ebx
 11112 0005 83EC30   		subl	$48, %esp
 11114              	LM891:
 11115              	LBB120:
 11116 0008 C745F400 		movl	$0, -12(%ebp)
 11116      000000
 11118              	LM892:
 11119 000f C745F000 		movl	$0, -16(%ebp)
GAS LISTING d:/github/AIOT_WORKSHOP/AIoT_MT2503AVE_SDK/11CW1418SP4_03_CORETEK03AE_11C_V1_GPRS_MMI/plutommi/Customer/ResGenerator/gcctmp/ccmAfaaa.s 			page 274


 11119      000000
 11121              	LM893:
 11122 0016 8B450C   		movl	12(%ebp), %eax
 11123 0019 8945EC   		movl	%eax, -20(%ebp)
 11125              	LM894:
 11126 001c 837D0C00 		cmpl	$0, 12(%ebp)
 11127 0020 7530     		jne	L421
 11129              	LM895:
 11130 0022 C7442404 		movl	$LC335, 4(%esp)
 11130      80890000 
 11131 002a C7042400 		movl	$__ZSt4cout, (%esp)
 11131      000000
 11132 0031 E8000000 		call	__ZStlsISt11char_traitsIcEERSt13basic_ostreamIcT_ES5_PKc
 11132      00
 11133 0036 C7442404 		movl	$__ZSt4endlIcSt11char_traitsIcEERSt13basic_ostreamIT_T0_ES6_, 4(%esp)
 11133      00000000 
 11134 003e 890424   		movl	%eax, (%esp)
 11135 0041 E8000000 		call	__ZNSolsEPFRSoS_E
 11135      00
 11137              	LM896:
 11138 0046 C745E8FF 		movl	$-1, -24(%ebp)
 11138      FFFFFF
 11139 004d E93A0100 		jmp	L420
 11139      00
 11140              	L421:
 11142              	LM897:
 11143 0052 8B45EC   		movl	-20(%ebp), %eax
 11144 0055 890424   		movl	%eax, (%esp)
 11145 0058 E8000000 		call	__ZN13AudioResParam16getAudioFilePathEv
 11145      00
 11146 005d 890424   		movl	%eax, (%esp)
 11147 0060 E8000000 		call	__ZNKSs4sizeEv
 11147      00
 11148 0065 40       		incl	%eax
 11149 0066 890424   		movl	%eax, (%esp)
 11150 0069 E8000000 		call	__Znaj
 11150      00
 11151 006e 8945F4   		movl	%eax, -12(%ebp)
 11153              	LM898:
 11154 0071 8B45EC   		movl	-20(%ebp), %eax
 11155 0074 890424   		movl	%eax, (%esp)
 11156 0077 E8000000 		call	__ZN11ResPopParam15getIdEnumStringEv
 11156      00
 11157 007c 890424   		movl	%eax, (%esp)
 11158 007f E8000000 		call	__ZNKSs4sizeEv
 11158      00
 11159 0084 40       		incl	%eax
 11160 0085 890424   		movl	%eax, (%esp)
 11161 0088 E8000000 		call	__Znaj
 11161      00
 11162 008d 8945F0   		movl	%eax, -16(%ebp)
 11164              	LM899:
 11165 0090 8B45EC   		movl	-20(%ebp), %eax
 11166 0093 890424   		movl	%eax, (%esp)
 11167 0096 E8000000 		call	__ZN13AudioResParam16getAudioFilePathEv
 11167      00
 11168 009b 890424   		movl	%eax, (%esp)
GAS LISTING d:/github/AIOT_WORKSHOP/AIoT_MT2503AVE_SDK/11CW1418SP4_03_CORETEK03AE_11C_V1_GPRS_MMI/plutommi/Customer/ResGenerator/gcctmp/ccmAfaaa.s 			page 275


 11169 009e E8000000 		call	__ZNKSs5c_strEv
 11169      00
 11170 00a3 89442404 		movl	%eax, 4(%esp)
 11171 00a7 8B45F4   		movl	-12(%ebp), %eax
 11172 00aa 890424   		movl	%eax, (%esp)
 11173 00ad E8000000 		call	_strcpy
 11173      00
 11175              	LM900:
 11176 00b2 8B45EC   		movl	-20(%ebp), %eax
 11177 00b5 890424   		movl	%eax, (%esp)
 11178 00b8 E8000000 		call	__ZN11ResPopParam15getIdEnumStringEv
 11178      00
 11179 00bd 890424   		movl	%eax, (%esp)
 11180 00c0 E8000000 		call	__ZNKSs5c_strEv
 11180      00
 11181 00c5 89442404 		movl	%eax, 4(%esp)
 11182 00c9 8B45F0   		movl	-16(%ebp), %eax
 11183 00cc 890424   		movl	%eax, (%esp)
 11184 00cf E8000000 		call	_strcpy
 11184      00
 11186              	LM901:
 11187 00d4 8B45EC   		movl	-20(%ebp), %eax
 11188 00d7 890424   		movl	%eax, (%esp)
 11189 00da E8000000 		call	__ZN13AudioResParam12getForceTypeEv
 11189      00
 11190 00df 3DFE0000 		cmpl	$254, %eax
 11190      00
 11191 00e4 7E37     		jle	L422
 11193              	LM902:
 11194 00e6 8B45EC   		movl	-20(%ebp), %eax
 11195 00e9 890424   		movl	%eax, (%esp)
 11196 00ec E8000000 		call	__ZN13AudioResParam16getIsMultipleBinEv
 11196      00
 11197 00f1 89C3     		movl	%eax, %ebx
 11198 00f3 8B45EC   		movl	-20(%ebp), %eax
 11199 00f6 890424   		movl	%eax, (%esp)
 11200 00f9 E8000000 		call	__ZN11ResPopParam14getIdEnumValueEv
 11200      00
 11201 00fe 0FB7D0   		movzwl	%ax, %edx
 11202 0101 895C240C 		movl	%ebx, 12(%esp)
 11203 0105 8B45F0   		movl	-16(%ebp), %eax
 11204 0108 89442408 		movl	%eax, 8(%esp)
 11205 010c 8B45F4   		movl	-12(%ebp), %eax
 11206 010f 89442404 		movl	%eax, 4(%esp)
 11207 0113 891424   		movl	%edx, (%esp)
 11208 0116 E8000000 		call	_SetAudioWithBuffer
 11208      00
 11209 011b EB46     		jmp	L423
 11210              	L422:
 11212              	LM903:
 11213 011d 8B45EC   		movl	-20(%ebp), %eax
 11214 0120 890424   		movl	%eax, (%esp)
 11215 0123 E8000000 		call	__ZN13AudioResParam12getForceTypeEv
 11215      00
 11216 0128 89C3     		movl	%eax, %ebx
 11217 012a 8B45EC   		movl	-20(%ebp), %eax
 11218 012d 890424   		movl	%eax, (%esp)
GAS LISTING d:/github/AIOT_WORKSHOP/AIoT_MT2503AVE_SDK/11CW1418SP4_03_CORETEK03AE_11C_V1_GPRS_MMI/plutommi/Customer/ResGenerator/gcctmp/ccmAfaaa.s 			page 276


 11219 0130 E8000000 		call	__ZN13AudioResParam16getIsMultipleBinEv
 11219      00
 11220 0135 89C6     		movl	%eax, %esi
 11221 0137 8B45EC   		movl	-20(%ebp), %eax
 11222 013a 890424   		movl	%eax, (%esp)
 11223 013d E8000000 		call	__ZN11ResPopParam14getIdEnumValueEv
 11223      00
 11224 0142 0FB7D0   		movzwl	%ax, %edx
 11225 0145 895C2410 		movl	%ebx, 16(%esp)
 11226 0149 8974240C 		movl	%esi, 12(%esp)
 11227 014d 8B45F0   		movl	-16(%ebp), %eax
 11228 0150 89442408 		movl	%eax, 8(%esp)
 11229 0154 8B45F4   		movl	-12(%ebp), %eax
 11230 0157 89442404 		movl	%eax, 4(%esp)
 11231 015b 891424   		movl	%edx, (%esp)
 11232 015e E8000000 		call	_SetAudioWithBufferForceType
 11232      00
 11233              	L423:
 11235              	LM904:
 11236 0163 837DF400 		cmpl	$0, -12(%ebp)
 11237 0167 740B     		je	L425
 11238 0169 8B45F4   		movl	-12(%ebp), %eax
 11239 016c 890424   		movl	%eax, (%esp)
 11240 016f E8000000 		call	__ZdaPv
 11240      00
 11241              	L425:
 11243              	LM905:
 11244 0174 837DF000 		cmpl	$0, -16(%ebp)
 11245 0178 740B     		je	L427
 11246 017a 8B45F0   		movl	-16(%ebp), %eax
 11247 017d 890424   		movl	%eax, (%esp)
 11248 0180 E8000000 		call	__ZdaPv
 11248      00
 11249              	L427:
 11251              	LM906:
 11252 0185 C745E800 		movl	$0, -24(%ebp)
 11252      000000
 11254              	LM907:
 11255              	L420:
 11256              	LBE120:
 11257 018c 8B45E8   		movl	-24(%ebp), %eax
 11258 018f 83C430   		addl	$48, %esp
 11259 0192 5B       		popl	%ebx
 11260 0193 5E       		popl	%esi
 11261 0194 5D       		popl	%ebp
 11262 0195 C3       		ret
 11268              	Lscope62:
 11270 0196 9090     		.text
 11271              	LC336:
 11272 89a2 64657374 		.ascii "dest_file could not open!\12\0"
 11272      5F66696C 
 11272      6520636F 
 11272      756C6420 
 11272      6E6F7420 
 11273              		.section	.text$_ZN24BatchedResFileGenService17initResFileOutputEPc,"x"
 11274              		.linkonce discard
 11275              		.align 2
GAS LISTING d:/github/AIOT_WORKSHOP/AIoT_MT2503AVE_SDK/11CW1418SP4_03_CORETEK03AE_11C_V1_GPRS_MMI/plutommi/Customer/ResGenerator/gcctmp/ccmAfaaa.s 			page 277


 11279              	.globl __ZN24BatchedResFileGenService17initResFileOutputEPc
 11281              	__ZN24BatchedResFileGenService17initResFileOutputEPc:
 11283              	LM908:
 11284 0000 55       		pushl	%ebp
 11285 0001 89E5     		movl	%esp, %ebp
 11286 0003 83EC18   		subl	$24, %esp
 11288              	LM909:
 11289              	LBB121:
 11290 0006 C745FC00 		movl	$0, -4(%ebp)
 11290      000000
 11292              	LM910:
 11293 000d C7442404 		movl	$LC29, 4(%esp)
 11293      1B090000 
 11294 0015 8B450C   		movl	12(%ebp), %eax
 11295 0018 890424   		movl	%eax, (%esp)
 11296 001b E8000000 		call	_fopen
 11296      00
 11297 0020 A3000000 		movl	%eax, _dest_file
 11297      00
 11299              	LM911:
 11300 0025 833D0000 		cmpl	$0, _dest_file
 11300      000000
 11301 002c 752B     		jne	L429
 11303              	LM912:
 11304 002e C745FCFF 		movl	$-1, -4(%ebp)
 11304      FFFFFF
 11306              	LM913:
 11307 0035 C7442404 		movl	$LC336, 4(%esp)
 11307      A2890000 
 11308 003d C7042400 		movl	$__ZSt4cout, (%esp)
 11308      000000
 11309 0044 E8000000 		call	__ZStlsISt11char_traitsIcEERSt13basic_ostreamIcT_ES5_PKc
 11309      00
 11310 0049 C7442404 		movl	$__ZSt4endlIcSt11char_traitsIcEERSt13basic_ostreamIT_T0_ES6_, 4(%esp)
 11310      00000000 
 11311 0051 890424   		movl	%eax, (%esp)
 11312 0054 E8000000 		call	__ZNSolsEPFRSoS_E
 11312      00
 11313              	L429:
 11315              	LM914:
 11316 0059 C7050000 		movl	$1, _toolFlag
 11316      00000100 
 11316      0000
 11318              	LM915:
 11319 0063 E8000000 		call	_ToolPopulateInitial
 11319      00
 11321              	LM916:
 11322 0068 8B45FC   		movl	-4(%ebp), %eax
 11324              	LM917:
 11325 006b C9       		leave
 11326 006c C3       		ret
 11327              	LBE121:
 11331              	Lscope63:
 11333 006d 909090   		.section	.text$_ZN24BatchedResFileGenService19deInitResFileOutputEv,"x"
 11334              		.linkonce discard
 11335              		.align 2
 11338              	.globl __ZN24BatchedResFileGenService19deInitResFileOutputEv
GAS LISTING d:/github/AIOT_WORKSHOP/AIoT_MT2503AVE_SDK/11CW1418SP4_03_CORETEK03AE_11C_V1_GPRS_MMI/plutommi/Customer/ResGenerator/gcctmp/ccmAfaaa.s 			page 278


 11340              	__ZN24BatchedResFileGenService19deInitResFileOutputEv:
 11342              	LM918:
 11343 0000 55       		pushl	%ebp
 11344 0001 89E5     		movl	%esp, %ebp
 11345 0003 83EC08   		subl	$8, %esp
 11347              	LM919:
 11348              	LBB122:
 11349 0006 833D0000 		cmpl	$0, _dest_file
 11349      000000
 11350 000d 740D     		je	L431
 11352              	LM920:
 11353 000f A1000000 		movl	_dest_file, %eax
 11353      00
 11354 0014 890424   		movl	%eax, (%esp)
 11355 0017 E8000000 		call	_fclose
 11355      00
 11356              	L431:
 11358              	LM921:
 11359 001c C7050000 		movl	$0, _dest_file
 11359      00000000 
 11359      0000
 11361              	LM922:
 11362 0026 B8000000 		movl	$0, %eax
 11362      00
 11364              	LM923:
 11365 002b C9       		leave
 11366 002c C3       		ret
 11367              	LBE122:
 11368              	Lscope64:
 11370 002d 909090   		.section	.text$_ZNSt8iteratorISt26random_access_iterator_tagP15ResFileGenParamiPKS2_RS3_EC2Ev,"x"
 11371              		.linkonce discard
 11372              		.align 2
 11375              	.globl __ZNSt8iteratorISt26random_access_iterator_tagP15ResFileGenParamiPKS2_RS3_EC2Ev
 11377              	__ZNSt8iteratorISt26random_access_iterator_tagP15ResFileGenParamiPKS2_RS3_EC2Ev:
 11379              	Ltext13:
 11381              	LM924:
 11382              	L433:
 11383              	L432:
 11384 0000 55       		pushl	%ebp
 11385 0001 89E5     		movl	%esp, %ebp
 11387              	LM925:
 11388 0003 5D       		popl	%ebp
 11389 0004 C3       		ret
 11390              	Lscope65:
 11392 0005 909090   		.section	.text$_ZNSt8iteratorISt26random_access_iterator_tagP15ResFileGenParamiPS2_RS2_EC2Ev,"x"
 11393              		.linkonce discard
 11394              		.align 2
 11397              	.globl __ZNSt8iteratorISt26random_access_iterator_tagP15ResFileGenParamiPS2_RS2_EC2Ev
 11399              	__ZNSt8iteratorISt26random_access_iterator_tagP15ResFileGenParamiPS2_RS2_EC2Ev:
 11401              	LM926:
 11402              	L436:
 11403              	L435:
 11404 0000 55       		pushl	%ebp
 11405 0001 89E5     		movl	%esp, %ebp
 11407              	LM927:
 11408 0003 5D       		popl	%ebp
 11409 0004 C3       		ret
GAS LISTING d:/github/AIOT_WORKSHOP/AIoT_MT2503AVE_SDK/11CW1418SP4_03_CORETEK03AE_11C_V1_GPRS_MMI/plutommi/Customer/ResGenerator/gcctmp/ccmAfaaa.s 			page 279


 11410              	Lscope66:
 11412              	.globl __ZTI25OfflineResPopAudioAdaptor
 11413 0005 909090   		.section	.rdata$_ZTI25OfflineResPopAudioAdaptor,""
 11414              		.linkonce same_size
 11415              		.align 4
 11416              	__ZTI25OfflineResPopAudioAdaptor:
 11417 0000 08000000 		.long	__ZTVN10__cxxabiv120__si_class_type_infoE+8
 11418 0004 00000000 		.long	__ZTS25OfflineResPopAudioAdaptor
 11419 0008 00000000 		.long	__ZTI20OfflineResPopAdaptor
 11420              	.globl __ZTS25OfflineResPopAudioAdaptor
 11421              		.section	.rdata$_ZTS25OfflineResPopAudioAdaptor,""
 11422              		.linkonce same_size
 11423              	__ZTS25OfflineResPopAudioAdaptor:
 11424 0000 32354F66 		.ascii "25OfflineResPopAudioAdaptor\0"
 11424      666C696E 
 11424      65526573 
 11424      506F7041 
 11424      7564696F 
 11425              		.section	.text$_ZN19OfflineResPopulatorC2Ev,"x"
 11426              		.linkonce discard
 11427              		.align 2
 11430              	.globl __ZN19OfflineResPopulatorC2Ev
 11432              	__ZN19OfflineResPopulatorC2Ev:
 11434              	Ltext14:
 11436              	LM928:
 11437 0000 55       		pushl	%ebp
 11438 0001 89E5     		movl	%esp, %ebp
 11440              	LM929:
 11441              	LBB123:
 11442 0003 8B4508   		movl	8(%ebp), %eax
 11443 0006 C7000800 		movl	$__ZTV19OfflineResPopulator+8, (%eax)
 11443      0000
 11444 000c 5D       		popl	%ebp
 11445 000d C3       		ret
 11446              	L439:
 11447              	L438:
 11448              	LBE123:
 11449              	Lscope67:
 11451              	.globl __ZTI20OfflineResPopAdaptor
 11452 000e 9090     		.section	.rdata$_ZTI20OfflineResPopAdaptor,""
 11453              		.linkonce same_size
 11454              		.align 4
 11455              	__ZTI20OfflineResPopAdaptor:
 11456 0000 08000000 		.long	__ZTVN10__cxxabiv120__si_class_type_infoE+8
 11457 0004 00000000 		.long	__ZTS20OfflineResPopAdaptor
 11458 0008 00000000 		.long	__ZTI19OfflineResPopulator
 11459              	.globl __ZTS20OfflineResPopAdaptor
 11460              		.section	.rdata$_ZTS20OfflineResPopAdaptor,""
 11461              		.linkonce same_size
 11462              	__ZTS20OfflineResPopAdaptor:
 11463 0000 32304F66 		.ascii "20OfflineResPopAdaptor\0"
 11463      666C696E 
 11463      65526573 
 11463      506F7041 
 11463      64617074 
 11464              	.globl __ZTV19OfflineResPopulator
 11465 0017 00       		.section	.rdata$_ZTV19OfflineResPopulator,""
GAS LISTING d:/github/AIOT_WORKSHOP/AIoT_MT2503AVE_SDK/11CW1418SP4_03_CORETEK03AE_11C_V1_GPRS_MMI/plutommi/Customer/ResGenerator/gcctmp/ccmAfaaa.s 			page 280


 11466              		.linkonce same_size
 11467              		.align 8
 11468              	__ZTV19OfflineResPopulator:
 11469 0000 00000000 		.long	0
 11470 0004 00000000 		.long	__ZTI19OfflineResPopulator
 11471 0008 00000000 		.long	___cxa_pure_virtual
 11472 000c 00000000 		.long	___cxa_pure_virtual
 11473 0010 00000000 		.long	___cxa_pure_virtual
 11474              	.globl __ZTI19OfflineResPopulator
 11475 0014 00000000 		.section	.rdata$_ZTI19OfflineResPopulator,""
 11476              		.linkonce same_size
 11477              		.align 4
 11478              	__ZTI19OfflineResPopulator:
 11479 0000 08000000 		.long	__ZTVN10__cxxabiv117__class_type_infoE+8
 11480 0004 00000000 		.long	__ZTS19OfflineResPopulator
 11481              	.globl __ZTS19OfflineResPopulator
 11482              		.section	.rdata$_ZTS19OfflineResPopulator,""
 11483              		.linkonce same_size
 11484              	__ZTS19OfflineResPopulator:
 11485 0000 31394F66 		.ascii "19OfflineResPopulator\0"
 11485      666C696E 
 11485      65526573 
 11485      506F7075 
 11485      6C61746F 
 11486 0016 0000     		.text
 11487 89bd 90       		.align 2
 11490              	__GLOBAL__I_g_is_clean:
 11492              	LM930:
 11493 89be 55       		pushl	%ebp
 11494 89bf 89E5     		movl	%esp, %ebp
 11495 89c1 83EC08   		subl	$8, %esp
 11497              	LM931:
 11498 89c4 C7442404 		movl	$65535, 4(%esp)
 11498      FFFF0000 
 11499 89cc C7042401 		movl	$1, (%esp)
 11499      000000
 11500 89d3 E808FEFF 		call	__Z41__static_initialization_and_destruction_0ii
 11500      FF
 11501 89d8 C9       		leave
 11502 89d9 C3       		ret
 11503              	Lscope68:
 11505              		.section	.ctors,"w"
 11506              		.align 4
 11507 0000 BE890000 		.long	__GLOBAL__I_g_is_clean
 11508              		.text
 11509              		.align 2
 11512              	__GLOBAL__D_g_is_clean:
 11514              	LM932:
 11515 89da 55       		pushl	%ebp
 11516 89db 89E5     		movl	%esp, %ebp
 11517 89dd 83EC08   		subl	$8, %esp
 11519              	LM933:
 11520 89e0 C7442404 		movl	$65535, 4(%esp)
 11520      FFFF0000 
 11521 89e8 C7042400 		movl	$0, (%esp)
 11521      000000
 11522 89ef E8ECFDFF 		call	__Z41__static_initialization_and_destruction_0ii
GAS LISTING d:/github/AIOT_WORKSHOP/AIoT_MT2503AVE_SDK/11CW1418SP4_03_CORETEK03AE_11C_V1_GPRS_MMI/plutommi/Customer/ResGenerator/gcctmp/ccmAfaaa.s 			page 281


 11522      FF
 11523 89f4 C9       		leave
 11524 89f5 C3       		ret
 11525              	Lscope69:
 11527              		.section	.dtors,"w"
 11528              		.align 4
 11529 0000 DA890000 		.long	__GLOBAL__D_g_is_clean
 11546              		.text
 11548              	Letext:
GAS LISTING d:/github/AIOT_WORKSHOP/AIoT_MT2503AVE_SDK/11CW1418SP4_03_CORETEK03AE_11C_V1_GPRS_MMI/plutommi/Customer/ResGenerator/gcctmp/ccmAfaaa.s 			page 282


DEFINED SYMBOLS
                            *ABS*:00000000 mtk_resgenerator.cpp
d:/github/AIOT_WORKSHOP/AIoT_MT2503AVE_SDK/11CW1418SP4_03_CORETEK03AE_11C_V1_GPRS_MMI/plutommi/Customer/ResGenerator/gcctmp/ccmAfaaa.s:838    .bss:00000008 __ZSt8__ioinit
d:/github/AIOT_WORKSHOP/AIoT_MT2503AVE_SDK/11CW1418SP4_03_CORETEK03AE_11C_V1_GPRS_MMI/plutommi/Customer/ResGenerator/gcctmp/ccmAfaaa.s:2901   .bss:00000000 _g_is_clean
d:/github/AIOT_WORKSHOP/AIoT_MT2503AVE_SDK/11CW1418SP4_03_CORETEK03AE_11C_V1_GPRS_MMI/plutommi/Customer/ResGenerator/gcctmp/ccmAfaaa.s:2955   .text:00000442 __Z28GenerateENFBAssociatedIDFilev
d:/github/AIOT_WORKSHOP/AIoT_MT2503AVE_SDK/11CW1418SP4_03_CORETEK03AE_11C_V1_GPRS_MMI/plutommi/Customer/ResGenerator/gcctmp/ccmAfaaa.s:3319   .text:00000a6a __Z10UnzipImagev
d:/github/AIOT_WORKSHOP/AIoT_MT2503AVE_SDK/11CW1418SP4_03_CORETEK03AE_11C_V1_GPRS_MMI/plutommi/Customer/ResGenerator/gcctmp/ccmAfaaa.s:3636   .text:0000100a __Z10UnzipAudiov
d:/github/AIOT_WORKSHOP/AIoT_MT2503AVE_SDK/11CW1418SP4_03_CORETEK03AE_11C_V1_GPRS_MMI/plutommi/Customer/ResGenerator/gcctmp/ccmAfaaa.s:3906   .text:0000139a _MtkResgenTrace
d:/github/AIOT_WORKSHOP/AIoT_MT2503AVE_SDK/11CW1418SP4_03_CORETEK03AE_11C_V1_GPRS_MMI/plutommi/Customer/ResGenerator/gcctmp/ccmAfaaa.s:3925   .text:000013a0 __Z21PopulateSearchMap_ExtP13CUSTOM_ID_MAPP20CUSTOM_ID_SEARCH_MAPPtS3_t
d:/github/AIOT_WORKSHOP/AIoT_MT2503AVE_SDK/11CW1418SP4_03_CORETEK03AE_11C_V1_GPRS_MMI/plutommi/Customer/ResGenerator/gcctmp/ccmAfaaa.s:4125   .text:0000155c __Z19PopulateImageSearchv
d:/github/AIOT_WORKSHOP/AIoT_MT2503AVE_SDK/11CW1418SP4_03_CORETEK03AE_11C_V1_GPRS_MMI/plutommi/Customer/ResGenerator/gcctmp/ccmAfaaa.s:4167   .text:0000161c __Z19PopulateAudioSearchv
d:/github/AIOT_WORKSHOP/AIoT_MT2503AVE_SDK/11CW1418SP4_03_CORETEK03AE_11C_V1_GPRS_MMI/plutommi/Customer/ResGenerator/gcctmp/ccmAfaaa.s:4209   .text:000016da __Z18PopulateFontSearchv
d:/github/AIOT_WORKSHOP/AIoT_MT2503AVE_SDK/11CW1418SP4_03_CORETEK03AE_11C_V1_GPRS_MMI/plutommi/Customer/ResGenerator/gcctmp/ccmAfaaa.s:4316   .text:00001ce2 __Z19GenerateResFile_Exti18RESOURCE_TYPE_LISTP16CUSTOM_NAME_LISTtPcS2_S2_S2_S2_S2_S2_S2_j
d:/github/AIOT_WORKSHOP/AIoT_MT2503AVE_SDK/11CW1418SP4_03_CORETEK03AE_11C_V1_GPRS_MMI/plutommi/Customer/ResGenerator/gcctmp/ccmAfaaa.s:4740   .text:00002264 __Z20GenerateImageResFilev
d:/github/AIOT_WORKSHOP/AIoT_MT2503AVE_SDK/11CW1418SP4_03_CORETEK03AE_11C_V1_GPRS_MMI/plutommi/Customer/ResGenerator/gcctmp/ccmAfaaa.s:4969   .text:000026c4 __Z20GenerateAudioResFilev
d:/github/AIOT_WORKSHOP/AIoT_MT2503AVE_SDK/11CW1418SP4_03_CORETEK03AE_11C_V1_GPRS_MMI/plutommi/Customer/ResGenerator/gcctmp/ccmAfaaa.s:5046   .text:000028ea __Z19GenerateFontResFilev
d:/github/AIOT_WORKSHOP/AIoT_MT2503AVE_SDK/11CW1418SP4_03_CORETEK03AE_11C_V1_GPRS_MMI/plutommi/Customer/ResGenerator/gcctmp/ccmAfaaa.s:5106   .text:00002ace __Z19GenerateMapFile_ExtP13CUSTOM_ID_MAPtPcS1_S1_S1_S1_
d:/github/AIOT_WORKSHOP/AIoT_MT2503AVE_SDK/11CW1418SP4_03_CORETEK03AE_11C_V1_GPRS_MMI/plutommi/Customer/ResGenerator/gcctmp/ccmAfaaa.s:5267   .text:00002d5e __Z20GenerateImageMapFilev
d:/github/AIOT_WORKSHOP/AIoT_MT2503AVE_SDK/11CW1418SP4_03_CORETEK03AE_11C_V1_GPRS_MMI/plutommi/Customer/ResGenerator/gcctmp/ccmAfaaa.s:5335   .text:00002f3e __Z20GenerateAudioMapFilev
d:/github/AIOT_WORKSHOP/AIoT_MT2503AVE_SDK/11CW1418SP4_03_CORETEK03AE_11C_V1_GPRS_MMI/plutommi/Customer/ResGenerator/gcctmp/ccmAfaaa.s:5394   .text:000030b6 __Z19GenerateFontMapFilev
d:/github/AIOT_WORKSHOP/AIoT_MT2503AVE_SDK/11CW1418SP4_03_CORETEK03AE_11C_V1_GPRS_MMI/plutommi/Customer/ResGenerator/gcctmp/ccmAfaaa.s:5442   .text:00003150 __Z25GenerateMapSearchFile_ExtP20CUSTOM_ID_SEARCH_MAPtPcS1_S1_S1_
d:/github/AIOT_WORKSHOP/AIoT_MT2503AVE_SDK/11CW1418SP4_03_CORETEK03AE_11C_V1_GPRS_MMI/plutommi/Customer/ResGenerator/gcctmp/ccmAfaaa.s:5582   .text:00003352 __Z26GenerateImageMapSearchFilev
d:/github/AIOT_WORKSHOP/AIoT_MT2503AVE_SDK/11CW1418SP4_03_CORETEK03AE_11C_V1_GPRS_MMI/plutommi/Customer/ResGenerator/gcctmp/ccmAfaaa.s:5638   .text:000034b2 __Z26GenerateAudioMapSearchFilev
d:/github/AIOT_WORKSHOP/AIoT_MT2503AVE_SDK/11CW1418SP4_03_CORETEK03AE_11C_V1_GPRS_MMI/plutommi/Customer/ResGenerator/gcctmp/ccmAfaaa.s:5690   .text:000035f4 __Z25GenerateFontMapSearchFilev
d:/github/AIOT_WORKSHOP/AIoT_MT2503AVE_SDK/11CW1418SP4_03_CORETEK03AE_11C_V1_GPRS_MMI/plutommi/Customer/ResGenerator/gcctmp/ccmAfaaa.s:5842   .text:00004c60 __Z16GenerateMenuFilet
d:/github/AIOT_WORKSHOP/AIoT_MT2503AVE_SDK/11CW1418SP4_03_CORETEK03AE_11C_V1_GPRS_MMI/plutommi/Customer/ResGenerator/gcctmp/ccmAfaaa.s:6667   .data:00000000 _output_file_name
d:/github/AIOT_WORKSHOP/AIoT_MT2503AVE_SDK/11CW1418SP4_03_CORETEK03AE_11C_V1_GPRS_MMI/plutommi/Customer/ResGenerator/gcctmp/ccmAfaaa.s:6673   .bss:00000018 _ZZ19process_line_bufferPcE5bjump
d:/github/AIOT_WORKSHOP/AIoT_MT2503AVE_SDK/11CW1418SP4_03_CORETEK03AE_11C_V1_GPRS_MMI/plutommi/Customer/ResGenerator/gcctmp/ccmAfaaa.s:6680   .text:00005710 __Z19process_line_bufferPc
d:/github/AIOT_WORKSHOP/AIoT_MT2503AVE_SDK/11CW1418SP4_03_CORETEK03AE_11C_V1_GPRS_MMI/plutommi/Customer/ResGenerator/gcctmp/ccmAfaaa.s:10262  .text:00008973 _REP_HEADER
d:/github/AIOT_WORKSHOP/AIoT_MT2503AVE_SDK/11CW1418SP4_03_CORETEK03AE_11C_V1_GPRS_MMI/plutommi/Customer/ResGenerator/gcctmp/ccmAfaaa.s:10260  .text:00008968 _HEADER
d:/github/AIOT_WORKSHOP/AIoT_MT2503AVE_SDK/11CW1418SP4_03_CORETEK03AE_11C_V1_GPRS_MMI/plutommi/Customer/ResGenerator/gcctmp/ccmAfaaa.s:6849   .bss:00000028 _ZZ16get_file_headersPcPPA1024_cPiE5bjump
d:/github/AIOT_WORKSHOP/AIoT_MT2503AVE_SDK/11CW1418SP4_03_CORETEK03AE_11C_V1_GPRS_MMI/plutommi/Customer/ResGenerator/gcctmp/ccmAfaaa.s:6859   .text:00005838 __Z16get_file_headersPcPPA1024_cPi
d:/github/AIOT_WORKSHOP/AIoT_MT2503AVE_SDK/11CW1418SP4_03_CORETEK03AE_11C_V1_GPRS_MMI/plutommi/Customer/ResGenerator/gcctmp/ccmAfaaa.s:6924   .bss:00000038 _ZZ22generate_img_data_fileP6_iobufPA1024_ciiE5count
d:/github/AIOT_WORKSHOP/AIoT_MT2503AVE_SDK/11CW1418SP4_03_CORETEK03AE_11C_V1_GPRS_MMI/plutommi/Customer/ResGenerator/gcctmp/ccmAfaaa.s:6944   .text:00005976 __Z22generate_img_data_fileP6_iobufPA1024_cii
d:/github/AIOT_WORKSHOP/AIoT_MT2503AVE_SDK/11CW1418SP4_03_CORETEK03AE_11C_V1_GPRS_MMI/plutommi/Customer/ResGenerator/gcctmp/ccmAfaaa.s:7264   .bss:00000048 _ZZ13get_img_countP6_iobufE9const_num
d:/github/AIOT_WORKSHOP/AIoT_MT2503AVE_SDK/11CW1418SP4_03_CORETEK03AE_11C_V1_GPRS_MMI/plutommi/Customer/ResGenerator/gcctmp/ccmAfaaa.s:7272   .text:00005cf8 __Z13get_img_countP6_iobuf
d:/github/AIOT_WORKSHOP/AIoT_MT2503AVE_SDK/11CW1418SP4_03_CORETEK03AE_11C_V1_GPRS_MMI/plutommi/Customer/ResGenerator/gcctmp/ccmAfaaa.s:7406   .text:0000612e __Z19split_img_data_filev
d:/github/AIOT_WORKSHOP/AIoT_MT2503AVE_SDK/11CW1418SP4_03_CORETEK03AE_11C_V1_GPRS_MMI/plutommi/Customer/ResGenerator/gcctmp/ccmAfaaa.s:7772   .data:00000010 _g_error
d:/github/AIOT_WORKSHOP/AIoT_MT2503AVE_SDK/11CW1418SP4_03_CORETEK03AE_11C_V1_GPRS_MMI/plutommi/Customer/ResGenerator/gcctmp/ccmAfaaa.s:7778   .text:00006560 __Z22launch_resgen_servicesv
d:/github/AIOT_WORKSHOP/AIoT_MT2503AVE_SDK/11CW1418SP4_03_CORETEK03AE_11C_V1_GPRS_MMI/plutommi/Customer/ResGenerator/gcctmp/ccmAfaaa.s:7868   .text:0000692c __Z19handle_regen_errorsv
d:/github/AIOT_WORKSHOP/AIoT_MT2503AVE_SDK/11CW1418SP4_03_CORETEK03AE_11C_V1_GPRS_MMI/plutommi/Customer/ResGenerator/gcctmp/ccmAfaaa.s:8023   .text:00006ae0 __Z18check_fatal_errorsv
d:/github/AIOT_WORKSHOP/AIoT_MT2503AVE_SDK/11CW1418SP4_03_CORETEK03AE_11C_V1_GPRS_MMI/plutommi/Customer/ResGenerator/gcctmp/ccmAfaaa.s:8064   .text:00006b0a __Z20stop_resgen_servicesv
d:/github/AIOT_WORKSHOP/AIoT_MT2503AVE_SDK/11CW1418SP4_03_CORETEK03AE_11C_V1_GPRS_MMI/plutommi/Customer/ResGenerator/gcctmp/ccmAfaaa.s:8105   .text:00006bac __Z14resgen_on_exitv
d:/github/AIOT_WORKSHOP/AIoT_MT2503AVE_SDK/11CW1418SP4_03_CORETEK03AE_11C_V1_GPRS_MMI/plutommi/Customer/ResGenerator/gcctmp/ccmAfaaa.s:8170   .text:00006c30 __Z14writeLogToFilePcS_i
d:/github/AIOT_WORKSHOP/AIoT_MT2503AVE_SDK/11CW1418SP4_03_CORETEK03AE_11C_V1_GPRS_MMI/plutommi/Customer/ResGenerator/gcctmp/ccmAfaaa.s:8231   .text:00006c96 __Z21CATResourceGenerationv
d:/github/AIOT_WORKSHOP/AIoT_MT2503AVE_SDK/11CW1418SP4_03_CORETEK03AE_11C_V1_GPRS_MMI/plutommi/Customer/ResGenerator/gcctmp/ccmAfaaa.s:8245   .bss:00000004 __ZN25OfflineResPopImageAdaptor33IMAGE_REPLACEBALE_SUPPORT_DISABLEE
d:/github/AIOT_WORKSHOP/AIoT_MT2503AVE_SDK/11CW1418SP4_03_CORETEK03AE_11C_V1_GPRS_MMI/plutommi/Customer/ResGenerator/gcctmp/ccmAfaaa.s:8250   .data:00000014 __ZN25OfflineResPopImageAdaptor32IMAGE_REPLACEBALE_SUPPORT_ENABLEE
d:/github/AIOT_WORKSHOP/AIoT_MT2503AVE_SDK/11CW1418SP4_03_CORETEK03AE_11C_V1_GPRS_MMI/plutommi/Customer/ResGenerator/gcctmp/ccmAfaaa.s:8295   .text:00007114 __Z23OfflineResPopControllerv
d:/github/AIOT_WORKSHOP/AIoT_MT2503AVE_SDK/11CW1418SP4_03_CORETEK03AE_11C_V1_GPRS_MMI/plutommi/Customer/ResGenerator/gcctmp/ccmAfaaa.s:8468   .text:0000762a __Z23prepare3DMetaPopulationv
d:/github/AIOT_WORKSHOP/AIoT_MT2503AVE_SDK/11CW1418SP4_03_CORETEK03AE_11C_V1_GPRS_MMI/plutommi/Customer/ResGenerator/gcctmp/ccmAfaaa.s:8525   .text:00007928 __Z19PostRegenOperationsv
d:/github/AIOT_WORKSHOP/AIoT_MT2503AVE_SDK/11CW1418SP4_03_CORETEK03AE_11C_V1_GPRS_MMI/plutommi/Customer/ResGenerator/gcctmp/ccmAfaaa.s:8649   .text:00007ec0 _main
d:/github/AIOT_WORKSHOP/AIoT_MT2503AVE_SDK/11CW1418SP4_03_CORETEK03AE_11C_V1_GPRS_MMI/plutommi/Customer/ResGenerator/gcctmp/ccmAfaaa.s:9448   .text:000087e0 __Z41__static_initialization_and_destruction_0ii
d:/github/AIOT_WORKSHOP/AIoT_MT2503AVE_SDK/11CW1418SP4_03_CORETEK03AE_11C_V1_GPRS_MMI/plutommi/Customer/ResGenerator/gcctmp/ccmAfaaa.s:10196  .text:000088c0 _image_resource_info
d:/github/AIOT_WORKSHOP/AIoT_MT2503AVE_SDK/11CW1418SP4_03_CORETEK03AE_11C_V1_GPRS_MMI/plutommi/Customer/ResGenerator/gcctmp/ccmAfaaa.s:10268  .rdata$_ZNSt15basic_streambufIcSt11char_traitsIcEE13_S_pback_sizeE:00000000 __ZNSt15basic_streambufIcSt11char_traitsIcEE13_S_pback_sizeE
d:/github/AIOT_WORKSHOP/AIoT_MT2503AVE_SDK/11CW1418SP4_03_CORETEK03AE_11C_V1_GPRS_MMI/plutommi/Customer/ResGenerator/gcctmp/ccmAfaaa.s:11030  .rdata$_ZTV25OfflineResPopAudioAdaptor:00000000 __ZTV25OfflineResPopAudioAdaptor
d:/github/AIOT_WORKSHOP/AIoT_MT2503AVE_SDK/11CW1418SP4_03_CORETEK03AE_11C_V1_GPRS_MMI/plutommi/Customer/ResGenerator/gcctmp/ccmAfaaa.s:11416  .rdata$_ZTI25OfflineResPopAudioAdaptor:00000000 __ZTI25OfflineResPopAudioAdaptor
d:/github/AIOT_WORKSHOP/AIoT_MT2503AVE_SDK/11CW1418SP4_03_CORETEK03AE_11C_V1_GPRS_MMI/plutommi/Customer/ResGenerator/gcctmp/ccmAfaaa.s:11423  .rdata$_ZTS25OfflineResPopAudioAdaptor:00000000 __ZTS25OfflineResPopAudioAdaptor
GAS LISTING d:/github/AIOT_WORKSHOP/AIoT_MT2503AVE_SDK/11CW1418SP4_03_CORETEK03AE_11C_V1_GPRS_MMI/plutommi/Customer/ResGenerator/gcctmp/ccmAfaaa.s 			page 283


d:/github/AIOT_WORKSHOP/AIoT_MT2503AVE_SDK/11CW1418SP4_03_CORETEK03AE_11C_V1_GPRS_MMI/plutommi/Customer/ResGenerator/gcctmp/ccmAfaaa.s:11455  .rdata$_ZTI20OfflineResPopAdaptor:00000000 __ZTI20OfflineResPopAdaptor
d:/github/AIOT_WORKSHOP/AIoT_MT2503AVE_SDK/11CW1418SP4_03_CORETEK03AE_11C_V1_GPRS_MMI/plutommi/Customer/ResGenerator/gcctmp/ccmAfaaa.s:11468  .rdata$_ZTV19OfflineResPopulator:00000000 __ZTV19OfflineResPopulator
d:/github/AIOT_WORKSHOP/AIoT_MT2503AVE_SDK/11CW1418SP4_03_CORETEK03AE_11C_V1_GPRS_MMI/plutommi/Customer/ResGenerator/gcctmp/ccmAfaaa.s:11462  .rdata$_ZTS20OfflineResPopAdaptor:00000000 __ZTS20OfflineResPopAdaptor
d:/github/AIOT_WORKSHOP/AIoT_MT2503AVE_SDK/11CW1418SP4_03_CORETEK03AE_11C_V1_GPRS_MMI/plutommi/Customer/ResGenerator/gcctmp/ccmAfaaa.s:11478  .rdata$_ZTI19OfflineResPopulator:00000000 __ZTI19OfflineResPopulator
d:/github/AIOT_WORKSHOP/AIoT_MT2503AVE_SDK/11CW1418SP4_03_CORETEK03AE_11C_V1_GPRS_MMI/plutommi/Customer/ResGenerator/gcctmp/ccmAfaaa.s:11484  .rdata$_ZTS19OfflineResPopulator:00000000 __ZTS19OfflineResPopulator
d:/github/AIOT_WORKSHOP/AIoT_MT2503AVE_SDK/11CW1418SP4_03_CORETEK03AE_11C_V1_GPRS_MMI/plutommi/Customer/ResGenerator/gcctmp/ccmAfaaa.s:11490  .text:000089be __GLOBAL__I_g_is_clean
d:/github/AIOT_WORKSHOP/AIoT_MT2503AVE_SDK/11CW1418SP4_03_CORETEK03AE_11C_V1_GPRS_MMI/plutommi/Customer/ResGenerator/gcctmp/ccmAfaaa.s:11512  .text:000089da __GLOBAL__D_g_is_clean
d:/github/AIOT_WORKSHOP/AIoT_MT2503AVE_SDK/11CW1418SP4_03_CORETEK03AE_11C_V1_GPRS_MMI/plutommi/Customer/ResGenerator/gcctmp/ccmAfaaa.s:11105  .text$_ZN25OfflineResPopAudioAdaptor21issueLecacyPopulationEP11ResPopParam:00000000 __ZN25OfflineResPopAudioAdaptor21issueLecacyPopulationEP11ResPopParam
d:/github/AIOT_WORKSHOP/AIoT_MT2503AVE_SDK/11CW1418SP4_03_CORETEK03AE_11C_V1_GPRS_MMI/plutommi/Customer/ResGenerator/gcctmp/ccmAfaaa.s:11011  .text$_ZNK9__gnu_cxx17__normal_iteratorIPP15ResFileGenParamSt6vectorIS2_SaIS2_EEEdeEv:00000000 __ZNK9__gnu_cxx17__normal_iteratorIPP15ResFileGenParamSt6vectorIS2_SaIS2_EEEdeEv
d:/github/AIOT_WORKSHOP/AIoT_MT2503AVE_SDK/11CW1418SP4_03_CORETEK03AE_11C_V1_GPRS_MMI/plutommi/Customer/ResGenerator/gcctmp/ccmAfaaa.s:10978  .text$_ZNK9__gnu_cxx17__normal_iteratorIPP15ResFileGenParamSt6vectorIS2_SaIS2_EEEplERKi:00000000 __ZNK9__gnu_cxx17__normal_iteratorIPP15ResFileGenParamSt6vectorIS2_SaIS2_EEEplERKi
d:/github/AIOT_WORKSHOP/AIoT_MT2503AVE_SDK/11CW1418SP4_03_CORETEK03AE_11C_V1_GPRS_MMI/plutommi/Customer/ResGenerator/gcctmp/ccmAfaaa.s:11399  .text$_ZNSt8iteratorISt26random_access_iterator_tagP15ResFileGenParamiPS2_RS2_EC2Ev:00000000 __ZNSt8iteratorISt26random_access_iterator_tagP15ResFileGenParamiPS2_RS2_EC2Ev
d:/github/AIOT_WORKSHOP/AIoT_MT2503AVE_SDK/11CW1418SP4_03_CORETEK03AE_11C_V1_GPRS_MMI/plutommi/Customer/ResGenerator/gcctmp/ccmAfaaa.s:10947  .text$_ZN9__gnu_cxx17__normal_iteratorIPP15ResFileGenParamSt6vectorIS2_SaIS2_EEEC1ERKS3_:00000000 __ZN9__gnu_cxx17__normal_iteratorIPP15ResFileGenParamSt6vectorIS2_SaIS2_EEEC1ERKS3_
d:/github/AIOT_WORKSHOP/AIoT_MT2503AVE_SDK/11CW1418SP4_03_CORETEK03AE_11C_V1_GPRS_MMI/plutommi/Customer/ResGenerator/gcctmp/ccmAfaaa.s:10917  .text$_ZNSt6vectorIP15ResFileGenParamSaIS1_EE5beginEv:00000000 __ZNSt6vectorIP15ResFileGenParamSaIS1_EE5beginEv
d:/github/AIOT_WORKSHOP/AIoT_MT2503AVE_SDK/11CW1418SP4_03_CORETEK03AE_11C_V1_GPRS_MMI/plutommi/Customer/ResGenerator/gcctmp/ccmAfaaa.s:10896  .text$_ZNK9__gnu_cxx17__normal_iteratorIPKP15ResFileGenParamSt6vectorIS2_SaIS2_EEE4baseEv:00000000 __ZNK9__gnu_cxx17__normal_iteratorIPKP15ResFileGenParamSt6vectorIS2_SaIS2_EEE4baseEv
d:/github/AIOT_WORKSHOP/AIoT_MT2503AVE_SDK/11CW1418SP4_03_CORETEK03AE_11C_V1_GPRS_MMI/plutommi/Customer/ResGenerator/gcctmp/ccmAfaaa.s:10859  .text$_ZN9__gnu_cxxmiIPKP15ResFileGenParamS4_St6vectorIS2_SaIS2_EEEENS_17__normal_iteratorIT_T1_E15difference_typeERKSB_RKNS8_IT0_SA_EE:00000000 __ZN9__gnu_cxxmiIPKP15ResFileGenParamS4_St6vectorIS2_SaIS2_EEEENS_17__normal_iteratorIT_T1_E15difference_typeERKSB_RKNS8_IT0_SA_EE
d:/github/AIOT_WORKSHOP/AIoT_MT2503AVE_SDK/11CW1418SP4_03_CORETEK03AE_11C_V1_GPRS_MMI/plutommi/Customer/ResGenerator/gcctmp/ccmAfaaa.s:10826  .text$_ZNKSt6vectorIP15ResFileGenParamSaIS1_EE3endEv:00000000 __ZNKSt6vectorIP15ResFileGenParamSaIS1_EE3endEv
d:/github/AIOT_WORKSHOP/AIoT_MT2503AVE_SDK/11CW1418SP4_03_CORETEK03AE_11C_V1_GPRS_MMI/plutommi/Customer/ResGenerator/gcctmp/ccmAfaaa.s:11377  .text$_ZNSt8iteratorISt26random_access_iterator_tagP15ResFileGenParamiPKS2_RS3_EC2Ev:00000000 __ZNSt8iteratorISt26random_access_iterator_tagP15ResFileGenParamiPKS2_RS3_EC2Ev
d:/github/AIOT_WORKSHOP/AIoT_MT2503AVE_SDK/11CW1418SP4_03_CORETEK03AE_11C_V1_GPRS_MMI/plutommi/Customer/ResGenerator/gcctmp/ccmAfaaa.s:10796  .text$_ZN9__gnu_cxx17__normal_iteratorIPKP15ResFileGenParamSt6vectorIS2_SaIS2_EEEC1ERKS4_:00000000 __ZN9__gnu_cxx17__normal_iteratorIPKP15ResFileGenParamSt6vectorIS2_SaIS2_EEEC1ERKS4_
d:/github/AIOT_WORKSHOP/AIoT_MT2503AVE_SDK/11CW1418SP4_03_CORETEK03AE_11C_V1_GPRS_MMI/plutommi/Customer/ResGenerator/gcctmp/ccmAfaaa.s:10763  .text$_ZNKSt6vectorIP15ResFileGenParamSaIS1_EE5beginEv:00000000 __ZNKSt6vectorIP15ResFileGenParamSaIS1_EE5beginEv
d:/github/AIOT_WORKSHOP/AIoT_MT2503AVE_SDK/11CW1418SP4_03_CORETEK03AE_11C_V1_GPRS_MMI/plutommi/Customer/ResGenerator/gcctmp/ccmAfaaa.s:9704   .text$_ZN24BatchedResFileGenService16generateResourceEPc:00000000 __ZN24BatchedResFileGenService16generateResourceEPc
d:/github/AIOT_WORKSHOP/AIoT_MT2503AVE_SDK/11CW1418SP4_03_CORETEK03AE_11C_V1_GPRS_MMI/plutommi/Customer/ResGenerator/gcctmp/ccmAfaaa.s:11340  .text$_ZN24BatchedResFileGenService19deInitResFileOutputEv:00000000 __ZN24BatchedResFileGenService19deInitResFileOutputEv
d:/github/AIOT_WORKSHOP/AIoT_MT2503AVE_SDK/11CW1418SP4_03_CORETEK03AE_11C_V1_GPRS_MMI/plutommi/Customer/ResGenerator/gcctmp/ccmAfaaa.s:11281  .text$_ZN24BatchedResFileGenService17initResFileOutputEPc:00000000 __ZN24BatchedResFileGenService17initResFileOutputEPc
d:/github/AIOT_WORKSHOP/AIoT_MT2503AVE_SDK/11CW1418SP4_03_CORETEK03AE_11C_V1_GPRS_MMI/plutommi/Customer/ResGenerator/gcctmp/ccmAfaaa.s:10680  .text$_ZN24BatchedResFileGenService16generateAudioResEPcS0_:00000000 __ZN24BatchedResFileGenService16generateAudioResEPcS0_
d:/github/AIOT_WORKSHOP/AIoT_MT2503AVE_SDK/11CW1418SP4_03_CORETEK03AE_11C_V1_GPRS_MMI/plutommi/Customer/ResGenerator/gcctmp/ccmAfaaa.s:10595  .text$_ZN24BatchedResFileGenService15generateFontResEPcS0_:00000000 __ZN24BatchedResFileGenService15generateFontResEPcS0_
d:/github/AIOT_WORKSHOP/AIoT_MT2503AVE_SDK/11CW1418SP4_03_CORETEK03AE_11C_V1_GPRS_MMI/plutommi/Customer/ResGenerator/gcctmp/ccmAfaaa.s:10423  .text$_ZN24BatchedResFileGenService16generateImageResEPcS0_:00000000 __ZN24BatchedResFileGenService16generateImageResEPcS0_
d:/github/AIOT_WORKSHOP/AIoT_MT2503AVE_SDK/11CW1418SP4_03_CORETEK03AE_11C_V1_GPRS_MMI/plutommi/Customer/ResGenerator/gcctmp/ccmAfaaa.s:10123  .text$_ZNSt6vectorIP15ResFileGenParamSaIS1_EEixEj:00000000 __ZNSt6vectorIP15ResFileGenParamSaIS1_EEixEj
d:/github/AIOT_WORKSHOP/AIoT_MT2503AVE_SDK/11CW1418SP4_03_CORETEK03AE_11C_V1_GPRS_MMI/plutommi/Customer/ResGenerator/gcctmp/ccmAfaaa.s:10083  .text$_ZNKSt6vectorIP15ResFileGenParamSaIS1_EE4sizeEv:00000000 __ZNKSt6vectorIP15ResFileGenParamSaIS1_EE4sizeEv
d:/github/AIOT_WORKSHOP/AIoT_MT2503AVE_SDK/11CW1418SP4_03_CORETEK03AE_11C_V1_GPRS_MMI/plutommi/Customer/ResGenerator/gcctmp/ccmAfaaa.s:10307  .text$_ZN26ResFileGenParamTextFileDAOC1Ev:00000000 __ZN26ResFileGenParamTextFileDAOC1Ev
d:/github/AIOT_WORKSHOP/AIoT_MT2503AVE_SDK/11CW1418SP4_03_CORETEK03AE_11C_V1_GPRS_MMI/plutommi/Customer/ResGenerator/gcctmp/ccmAfaaa.s:9540   .text$_ZN20OfflineResPopService21populateAudioResourceEPc:00000000 __ZN20OfflineResPopService21populateAudioResourceEPc
d:/github/AIOT_WORKSHOP/AIoT_MT2503AVE_SDK/11CW1418SP4_03_CORETEK03AE_11C_V1_GPRS_MMI/plutommi/Customer/ResGenerator/gcctmp/ccmAfaaa.s:10331  .text$_ZN25OfflineResPopAudioAdaptorC1Ev:00000000 __ZN25OfflineResPopAudioAdaptorC1Ev
d:/github/AIOT_WORKSHOP/AIoT_MT2503AVE_SDK/11CW1418SP4_03_CORETEK03AE_11C_V1_GPRS_MMI/plutommi/Customer/ResGenerator/gcctmp/ccmAfaaa.s:10277  .text$_ZN21AudioParamTextFileDAOC1Ev:00000000 __ZN21AudioParamTextFileDAOC1Ev
d:/github/AIOT_WORKSHOP/AIoT_MT2503AVE_SDK/11CW1418SP4_03_CORETEK03AE_11C_V1_GPRS_MMI/plutommi/Customer/ResGenerator/gcctmp/ccmAfaaa.s:10363  .text$_ZN20OfflineResPopService16populateResourceEP13ResParamModelPcP16ParamTextFileDAOP19OfflineResPopulator:00000000 __ZN20OfflineResPopService16populateResourceEP13ResParamModelPcP16ParamTextFileDAOP19OfflineResPopulator
d:/github/AIOT_WORKSHOP/AIoT_MT2503AVE_SDK/11CW1418SP4_03_CORETEK03AE_11C_V1_GPRS_MMI/plutommi/Customer/ResGenerator/gcctmp/ccmAfaaa.s:11046  .text$_ZN16ParamTextFileDAOC2Ev:00000000 __ZN16ParamTextFileDAOC2Ev
d:/github/AIOT_WORKSHOP/AIoT_MT2503AVE_SDK/11CW1418SP4_03_CORETEK03AE_11C_V1_GPRS_MMI/plutommi/Customer/ResGenerator/gcctmp/ccmAfaaa.s:11432  .text$_ZN19OfflineResPopulatorC2Ev:00000000 __ZN19OfflineResPopulatorC2Ev
d:/github/AIOT_WORKSHOP/AIoT_MT2503AVE_SDK/11CW1418SP4_03_CORETEK03AE_11C_V1_GPRS_MMI/plutommi/Customer/ResGenerator/gcctmp/ccmAfaaa.s:11072  .text$_ZN20OfflineResPopAdaptorC2Ev:00000000 __ZN20OfflineResPopAdaptorC2Ev
d:/github/AIOT_WORKSHOP/AIoT_MT2503AVE_SDK/11CW1418SP4_03_CORETEK03AE_11C_V1_GPRS_MMI/plutommi/Customer/ResGenerator/gcctmp/ccmAfaaa.s:9513   .text$_ZSt6strstrPcPKc:00000000 __ZSt6strstrPcPKc
d:/github/AIOT_WORKSHOP/AIoT_MT2503AVE_SDK/11CW1418SP4_03_CORETEK03AE_11C_V1_GPRS_MMI/plutommi/Customer/ResGenerator/gcctmp/ccmAfaaa.s:9484   .text$_ZSt6strchrPci:00000000 __ZSt6strchrPci

UNDEFINED SYMBOLS
_CurrMaxENFBAssociatedIDNum
_ENFBAssociatedIDList
__imp___iob
_FindFirstFileA@8
_GetLastError@0
_FindClose@4
_CompareFileTime@8
_CurrMaxSearchImageId
_CurrMaxImageId
_ImageIdSearchMap
_ImageIdMap
_CurrMaxSearchImageIdEXT
_CurrMaxImageIdEXT
_ImageIdSearchMapEXT
_ImageIdMapEXT
_CurrMaxSearchAudioId
_CurrMaxAudioId
_AudioIdSearchMap
GAS LISTING d:/github/AIOT_WORKSHOP/AIoT_MT2503AVE_SDK/11CW1418SP4_03_CORETEK03AE_11C_V1_GPRS_MMI/plutommi/Customer/ResGenerator/gcctmp/ccmAfaaa.s 			page 284


_AudioIdMap
_CurrMaxSearchAudioIdEXT
_CurrMaxAudioIdEXT
_AudioIdSearchMapEXT
_AudioIdMapEXT
_CurrMaxSearchFontIdEXT
_CurrMaxFontIdEXT
_FontIdSearchMapEXT
_FontIdMapEXT
__Unwind_SjLj_Resume
___gxx_personality_sj0
__Unwind_SjLj_Register
__Unwind_SjLj_Unregister
_CurrMaxImageNum
_ImageNameList
_CurrMaxImageNumEXT
_ImageNameListEXT
_CurrMaxAudioNum
_AudioNameList
_CurrMaxAudioNumEXT
_AudioNameListEXT
_CurrMaxFontNumEXT
_FontNameListEXT
_nCustMenus
_HintHdlrCount
_HiliteHdlrCount
_nMenuHiliteHandlers
_nMenuHintHandlers
__ZN18ResgenConfigurator19DEFAULT_CONFIG_FILEE
___main
__alloca
_dest_file
_resultFailFlag
_toolFlag
_Sleep@4
_CreateDirectoryA@8
_g_is_log
_CurrMaxMenuItemIndex
__ZN15ResFileGenParam10IMAGE_TYPEE
__ZN15ResFileGenParam9FONT_TYPEE
__ZN15ResFileGenParam10AUDIO_TYPEE
__ZTV21AudioParamTextFileDAO
__ZTV26ResFileGenParamTextFileDAO
__ZTV16ParamTextFileDAO
__ZTV20OfflineResPopAdaptor
__ZSt4cout
__ZTVN10__cxxabiv120__si_class_type_infoE
__ZTVN10__cxxabiv117__class_type_infoE
___cxa_pure_virtual
__ZN20OfflineResPopAdaptor14getResPopModelEv
__ZN20OfflineResPopAdaptor14setResPopModelEP13ResParamModel
__ZN20OfflineResPopAdaptor8populateEv
__ZNSt8ios_base4InitD1Ev
_atexit
_strcmp
_remove
_reslog_adaptor_fatal_error_pending_log
GAS LISTING d:/github/AIOT_WORKSHOP/AIoT_MT2503AVE_SDK/11CW1418SP4_03_CORETEK03AE_11C_V1_GPRS_MMI/plutommi/Customer/ResGenerator/gcctmp/ccmAfaaa.s 			page 285


_mtk_resgen_set_error
_ImageOutStreamDeinit
_ImageOutStreamOutputFile
_Iload
_ImageOutStreamInit
_initImageProcessData
_Fload
_Aload
_str_upper
_strncpy
__ZN20ResFileGenParamModelD1Ev
__ZN15ResFileGenParam7getTypeEv
__ZN15ResFileGenParam11getDestPathEv
__ZN15ResFileGenParam10getSrcPathEv
__ZN20ResFileGenParamModel21setRepositoryFileNameEPc
__ZN20ResFileGenParamModelC1Ev
_ToolPopulateInitial
_ResPopDeinitAll
_PopulateResDataPostXML
_PopulateResDataXML
_BinaryAdaptorStopOfflinePopulation
_AudioAdaptorStopOfflinePopulation
_PopulateResDataPreXML
_ResPopInitAll
_BinaryAdaptorStartOfflinePopulation
_AudioAdaptorStartOfflinePopulation
__ZN13ResParamModelD1Ev
__ZN13ResParamModelC1Ev
__ZN13ResParamModel21setRepositoryFileNameEPc
_SetAudioWithBufferForceType
_SetAudioWithBuffer
__ZN13AudioResParam16getIsMultipleBinEv
__ZN13AudioResParam12getForceTypeEv
__ZN13AudioResParam16getAudioFilePathEv
__ZdaPv
__ZN11ResPopParam14getIdEnumValueEv
__ZNKSs5c_strEv
__ZN11ResPopParam15getIdEnumStringEv
__Znaj
__ZNKSs4sizeEv
__ZNSolsEPFRSoS_E
__ZSt4endlIcSt11char_traitsIcEERSt13basic_ostreamIT_T0_ES6_
__ZStlsISt11char_traitsIcEERSt13basic_ostreamIcT_ES5_PKc
_fflush
_reslog_adaptor_stop_service
__ZN18ResgenConfigurator7releaseEv
__ZN26ResgenCrashHandlingService4stopEv
_reslog_adaptor_flush_pending_fatal_error
_reslog_adaptor_has_pending_fatal_error
_fwprintf
_reslog_adaptor_wlog
_str_merge_get_err
_mtk_resgen_has_error
__ZN26ResgenCrashHandlingService5startEv
__ZN26ResgenCrashHandlingService11getInstanceEv
_reslog_adaptor_set_max_level
__ZN18ResgenConfigurator13getDebugLevelEv
GAS LISTING d:/github/AIOT_WORKSHOP/AIoT_MT2503AVE_SDK/11CW1418SP4_03_CORETEK03AE_11C_V1_GPRS_MMI/plutommi/Customer/ResGenerator/gcctmp/ccmAfaaa.s 			page 286


__ZN18ResgenConfigurator17loadConfigurationEPKc
__ZN18ResgenConfigurator11getInstanceEv
_reslog_adaptor_start_service
_memset
_rewind
_malloc
_feof
_fgets
_strcpy
_strlen
_strcat
__ZN28ImageGroupMappingMetaCreatorD1Ev
__ZN28ImageGroupMappingMetaCreator16generateMetaFileEPKc
__ZN28ImageGroupMappingMetaCreator8addImageEPKc
__ZN28ImageGroupMappingMetaCreatorC1Ev
_Extract_Name
_fputs
_execute_ext_command
_fwrite
_fread
_exit
_sprintf
_fclose
_free
_fprintf
_fopen
_reslog_adaptor_log
__ZNSt8ios_base4InitC1Ev
__ZdlPv
__Znwj
_strstr
_strchr
__exit
